ARM GAS  C:\Users\tom\AppData\Local\Temp\ccEwUWak.s 			page 1


   1              		.syntax unified
   2              		.cpu cortex-m3
   3              		.fpu softvfp
   4              		.eabi_attribute 20, 1
   5              		.eabi_attribute 21, 1
   6              		.eabi_attribute 23, 3
   7              		.eabi_attribute 24, 1
   8              		.eabi_attribute 25, 1
   9              		.eabi_attribute 26, 1
  10              		.eabi_attribute 30, 4
  11              		.eabi_attribute 34, 1
  12              		.eabi_attribute 18, 4
  13              		.thumb
  14              		.file	"stm32f10x_it.c"
  15              		.text
  16              	.Ltext0:
  17              		.cfi_sections	.debug_frame
  18              		.section	.text.GetMsCounter,"ax",%progbits
  19              		.align	1
  20              		.global	GetMsCounter
  21              		.thumb
  22              		.thumb_func
  23              		.type	GetMsCounter, %function
  24              	GetMsCounter:
  25              	.LFB56:
  26              		.file 1 "stm32f10x_it.c"
   1:stm32f10x_it.c **** #include "misc.h"
   2:stm32f10x_it.c **** #include "stm32f10x_it.h"
   3:stm32f10x_it.c **** #include "adc_f1.h"
   4:stm32f10x_it.c **** 
   5:stm32f10x_it.c **** static unsigned long g_ms_counter;
   6:stm32f10x_it.c **** unsigned long GetMsCounter(void)
   7:stm32f10x_it.c **** {
  27              		.loc 1 7 0
  28              		.cfi_startproc
  29              		@ args = 0, pretend = 0, frame = 0
  30              		@ frame_needed = 0, uses_anonymous_args = 0
  31              		@ link register save eliminated.
   8:stm32f10x_it.c ****     return g_ms_counter;
   9:stm32f10x_it.c **** }
  32              		.loc 1 9 0
  33 0000 014B     		ldr	r3, .L2
  34 0002 1868     		ldr	r0, [r3]
  35 0004 7047     		bx	lr
  36              	.L3:
  37 0006 00BF     		.align	2
  38              	.L2:
  39 0008 00000000 		.word	.LANCHOR0
  40              		.cfi_endproc
  41              	.LFE56:
  42              		.size	GetMsCounter, .-GetMsCounter
  43              		.section	.text.USART1_IRQHandler,"ax",%progbits
  44              		.align	1
  45              		.global	USART1_IRQHandler
  46              		.thumb
  47              		.thumb_func
  48              		.type	USART1_IRQHandler, %function
ARM GAS  C:\Users\tom\AppData\Local\Temp\ccEwUWak.s 			page 2


  49              	USART1_IRQHandler:
  50              	.LFB57:
  10:stm32f10x_it.c **** 
  11:stm32f10x_it.c **** void USART1_IRQHandler(void)
  12:stm32f10x_it.c **** {
  51              		.loc 1 12 0
  52              		.cfi_startproc
  53              		@ args = 0, pretend = 0, frame = 0
  54              		@ frame_needed = 0, uses_anonymous_args = 0
  55 0000 08B5     		push	{r3, lr}
  56              	.LCFI0:
  57              		.cfi_def_cfa_offset 8
  58              		.cfi_offset 3, -8
  59              		.cfi_offset 14, -4
  13:stm32f10x_it.c ****     if(USART_GetITStatus(USART1, USART_IT_IDLE) != RESET) {
  60              		.loc 1 13 0
  61 0002 0848     		ldr	r0, .L7
  62 0004 40F22441 		movw	r1, #1060
  63 0008 FFF7FEFF 		bl	USART_GetITStatus
  64              	.LVL0:
  65 000c 48B1     		cbz	r0, .L4
  14:stm32f10x_it.c ****         USART_RX_IDLE_IRQHandler(USART1);
  66              		.loc 1 14 0
  67 000e 0548     		ldr	r0, .L7
  68 0010 FFF7FEFF 		bl	USART_RX_IDLE_IRQHandler
  69              	.LVL1:
  15:stm32f10x_it.c ****         USART_ClearITPendingBit(USART1, USART_IT_IDLE);
  16:stm32f10x_it.c ****     }
  17:stm32f10x_it.c **** }
  70              		.loc 1 17 0
  71 0014 BDE80840 		pop	{r3, lr}
  72              	.LCFI1:
  73              		.cfi_remember_state
  74              		.cfi_restore 14
  75              		.cfi_restore 3
  76              		.cfi_def_cfa_offset 0
  15:stm32f10x_it.c ****         USART_ClearITPendingBit(USART1, USART_IT_IDLE);
  77              		.loc 1 15 0
  78 0018 0248     		ldr	r0, .L7
  79 001a 40F22441 		movw	r1, #1060
  80 001e FFF7FEBF 		b	USART_ClearITPendingBit
  81              	.LVL2:
  82              	.L4:
  83              	.LCFI2:
  84              		.cfi_restore_state
  85 0022 08BD     		pop	{r3, pc}
  86              	.L8:
  87              		.align	2
  88              	.L7:
  89 0024 00380140 		.word	1073821696
  90              		.cfi_endproc
  91              	.LFE57:
  92              		.size	USART1_IRQHandler, .-USART1_IRQHandler
  93              		.section	.text.DMA1_Channel1_IRQHandler,"ax",%progbits
  94              		.align	1
  95              		.global	DMA1_Channel1_IRQHandler
  96              		.thumb
ARM GAS  C:\Users\tom\AppData\Local\Temp\ccEwUWak.s 			page 3


  97              		.thumb_func
  98              		.type	DMA1_Channel1_IRQHandler, %function
  99              	DMA1_Channel1_IRQHandler:
 100              	.LFB58:
  18:stm32f10x_it.c **** 
  19:stm32f10x_it.c **** // STM32内部ADC转换完成时把DMA_Buffer内容复制到ADC_Data数组, 调整增益
  20:stm32f10x_it.c **** void DMA1_Channel1_IRQHandler(void)
  21:stm32f10x_it.c **** {
 101              		.loc 1 21 0
 102              		.cfi_startproc
 103              		@ args = 0, pretend = 0, frame = 0
 104              		@ frame_needed = 0, uses_anonymous_args = 0
 105 0000 08B5     		push	{r3, lr}
 106              	.LCFI3:
 107              		.cfi_def_cfa_offset 8
 108              		.cfi_offset 3, -8
 109              		.cfi_offset 14, -4
  22:stm32f10x_it.c ****     ADCDMA_Conv_Complete_IRQHandler();
 110              		.loc 1 22 0
 111 0002 FFF7FEFF 		bl	ADCDMA_Conv_Complete_IRQHandler
 112              	.LVL3:
  23:stm32f10x_it.c ****     DMA_ClearITPendingBit(DMA1_IT_GL1);
  24:stm32f10x_it.c **** }
 113              		.loc 1 24 0
 114 0006 BDE80840 		pop	{r3, lr}
 115              	.LCFI4:
 116              		.cfi_restore 14
 117              		.cfi_restore 3
 118              		.cfi_def_cfa_offset 0
  23:stm32f10x_it.c ****     DMA_ClearITPendingBit(DMA1_IT_GL1);
 119              		.loc 1 23 0
 120 000a 0120     		movs	r0, #1
 121 000c FFF7FEBF 		b	DMA_ClearITPendingBit
 122              	.LVL4:
 123              		.cfi_endproc
 124              	.LFE58:
 125              		.size	DMA1_Channel1_IRQHandler, .-DMA1_Channel1_IRQHandler
 126              		.section	.text.SysTick_Handler,"ax",%progbits
 127              		.align	1
 128              		.global	SysTick_Handler
 129              		.thumb
 130              		.thumb_func
 131              		.type	SysTick_Handler, %function
 132              	SysTick_Handler:
 133              	.LFB59:
  25:stm32f10x_it.c **** 
  26:stm32f10x_it.c **** void SysTick_Handler(void)
  27:stm32f10x_it.c **** {
 134              		.loc 1 27 0
 135              		.cfi_startproc
 136              		@ args = 0, pretend = 0, frame = 0
 137              		@ frame_needed = 0, uses_anonymous_args = 0
 138 0000 08B5     		push	{r3, lr}
 139              	.LCFI5:
 140              		.cfi_def_cfa_offset 8
 141              		.cfi_offset 3, -8
 142              		.cfi_offset 14, -4
ARM GAS  C:\Users\tom\AppData\Local\Temp\ccEwUWak.s 			page 4


  28:stm32f10x_it.c ****     _delay_nms_mm();        // executes every 1ms
 143              		.loc 1 28 0
 144 0002 FFF7FEFF 		bl	_delay_nms_mm
 145              	.LVL5:
  29:stm32f10x_it.c ****     g_ms_counter++;
 146              		.loc 1 29 0
 147 0006 024A     		ldr	r2, .L11
 148 0008 1368     		ldr	r3, [r2]
 149 000a 0133     		adds	r3, r3, #1
 150 000c 1360     		str	r3, [r2]
 151 000e 08BD     		pop	{r3, pc}
 152              	.L12:
 153              		.align	2
 154              	.L11:
 155 0010 00000000 		.word	.LANCHOR0
 156              		.cfi_endproc
 157              	.LFE59:
 158              		.size	SysTick_Handler, .-SysTick_Handler
 159              		.section	.text.PPP_IRQHandler,"ax",%progbits
 160              		.align	1
 161              		.global	PPP_IRQHandler
 162              		.thumb
 163              		.thumb_func
 164              		.type	PPP_IRQHandler, %function
 165              	PPP_IRQHandler:
 166              	.LFB60:
  30:stm32f10x_it.c **** }
  31:stm32f10x_it.c **** 
  32:stm32f10x_it.c **** void PPP_IRQHandler(void)
  33:stm32f10x_it.c **** {
 167              		.loc 1 33 0
 168              		.cfi_startproc
 169              		@ args = 0, pretend = 0, frame = 0
 170              		@ frame_needed = 0, uses_anonymous_args = 0
 171              		@ link register save eliminated.
 172 0000 7047     		bx	lr
 173              		.cfi_endproc
 174              	.LFE60:
 175              		.size	PPP_IRQHandler, .-PPP_IRQHandler
 176              		.section	.text.NMI_Handler,"ax",%progbits
 177              		.align	1
 178              		.global	NMI_Handler
 179              		.thumb
 180              		.thumb_func
 181              		.type	NMI_Handler, %function
 182              	NMI_Handler:
 183              	.LFB61:
  34:stm32f10x_it.c **** }
  35:stm32f10x_it.c **** void NMI_Handler(void)
  36:stm32f10x_it.c **** {
 184              		.loc 1 36 0
 185              		.cfi_startproc
 186              		@ args = 0, pretend = 0, frame = 0
 187              		@ frame_needed = 0, uses_anonymous_args = 0
 188              		@ link register save eliminated.
 189 0000 7047     		bx	lr
 190              		.cfi_endproc
ARM GAS  C:\Users\tom\AppData\Local\Temp\ccEwUWak.s 			page 5


 191              	.LFE61:
 192              		.size	NMI_Handler, .-NMI_Handler
 193              		.section	.text.HardFault_Handler,"ax",%progbits
 194              		.align	1
 195              		.global	HardFault_Handler
 196              		.thumb
 197              		.thumb_func
 198              		.type	HardFault_Handler, %function
 199              	HardFault_Handler:
 200              	.LFB62:
  37:stm32f10x_it.c **** }
  38:stm32f10x_it.c **** void HardFault_Handler(void)
  39:stm32f10x_it.c **** {
 201              		.loc 1 39 0
 202              		.cfi_startproc
 203              		@ Volatile: function does not return.
 204              		@ args = 0, pretend = 0, frame = 0
 205              		@ frame_needed = 0, uses_anonymous_args = 0
 206              		@ link register save eliminated.
 207              	.L16:
  40:stm32f10x_it.c ****     ( {  while (1);});
 208              		.loc 1 40 0 discriminator 1
 209 0000 FEE7     		b	.L16
 210              		.cfi_endproc
 211              	.LFE62:
 212              		.size	HardFault_Handler, .-HardFault_Handler
 213              		.section	.text.MemManage_Handler,"ax",%progbits
 214              		.align	1
 215              		.global	MemManage_Handler
 216              		.thumb
 217              		.thumb_func
 218              		.type	MemManage_Handler, %function
 219              	MemManage_Handler:
 220              	.LFB63:
  41:stm32f10x_it.c **** }
  42:stm32f10x_it.c **** void MemManage_Handler(void)
  43:stm32f10x_it.c **** {
 221              		.loc 1 43 0
 222              		.cfi_startproc
 223              		@ Volatile: function does not return.
 224              		@ args = 0, pretend = 0, frame = 0
 225              		@ frame_needed = 0, uses_anonymous_args = 0
 226              		@ link register save eliminated.
 227              	.L18:
  44:stm32f10x_it.c ****     ( {  while (1);});
 228              		.loc 1 44 0 discriminator 1
 229 0000 FEE7     		b	.L18
 230              		.cfi_endproc
 231              	.LFE63:
 232              		.size	MemManage_Handler, .-MemManage_Handler
 233              		.section	.text.BusFault_Handler,"ax",%progbits
 234              		.align	1
 235              		.global	BusFault_Handler
 236              		.thumb
 237              		.thumb_func
 238              		.type	BusFault_Handler, %function
 239              	BusFault_Handler:
ARM GAS  C:\Users\tom\AppData\Local\Temp\ccEwUWak.s 			page 6


 240              	.LFB64:
  45:stm32f10x_it.c **** }
  46:stm32f10x_it.c **** void BusFault_Handler(void)
  47:stm32f10x_it.c **** {
 241              		.loc 1 47 0
 242              		.cfi_startproc
 243              		@ Volatile: function does not return.
 244              		@ args = 0, pretend = 0, frame = 0
 245              		@ frame_needed = 0, uses_anonymous_args = 0
 246              		@ link register save eliminated.
 247              	.L20:
  48:stm32f10x_it.c ****     ( {  while (1);});
 248              		.loc 1 48 0 discriminator 1
 249 0000 FEE7     		b	.L20
 250              		.cfi_endproc
 251              	.LFE64:
 252              		.size	BusFault_Handler, .-BusFault_Handler
 253              		.section	.text.UsageFault_Handler,"ax",%progbits
 254              		.align	1
 255              		.global	UsageFault_Handler
 256              		.thumb
 257              		.thumb_func
 258              		.type	UsageFault_Handler, %function
 259              	UsageFault_Handler:
 260              	.LFB65:
  49:stm32f10x_it.c **** }
  50:stm32f10x_it.c **** void UsageFault_Handler(void)
  51:stm32f10x_it.c **** {
 261              		.loc 1 51 0
 262              		.cfi_startproc
 263              		@ Volatile: function does not return.
 264              		@ args = 0, pretend = 0, frame = 0
 265              		@ frame_needed = 0, uses_anonymous_args = 0
 266              		@ link register save eliminated.
 267              	.L22:
  52:stm32f10x_it.c ****     ( {  while (1);});
 268              		.loc 1 52 0 discriminator 1
 269 0000 FEE7     		b	.L22
 270              		.cfi_endproc
 271              	.LFE65:
 272              		.size	UsageFault_Handler, .-UsageFault_Handler
 273              		.section	.text.SVC_Handler,"ax",%progbits
 274              		.align	1
 275              		.global	SVC_Handler
 276              		.thumb
 277              		.thumb_func
 278              		.type	SVC_Handler, %function
 279              	SVC_Handler:
 280              	.LFB66:
  53:stm32f10x_it.c **** }
  54:stm32f10x_it.c **** void SVC_Handler(void)
  55:stm32f10x_it.c **** {
 281              		.loc 1 55 0
 282              		.cfi_startproc
 283              		@ args = 0, pretend = 0, frame = 0
 284              		@ frame_needed = 0, uses_anonymous_args = 0
 285              		@ link register save eliminated.
ARM GAS  C:\Users\tom\AppData\Local\Temp\ccEwUWak.s 			page 7


 286 0000 7047     		bx	lr
 287              		.cfi_endproc
 288              	.LFE66:
 289              		.size	SVC_Handler, .-SVC_Handler
 290              		.section	.text.DebugMon_Handler,"ax",%progbits
 291              		.align	1
 292              		.global	DebugMon_Handler
 293              		.thumb
 294              		.thumb_func
 295              		.type	DebugMon_Handler, %function
 296              	DebugMon_Handler:
 297              	.LFB67:
  56:stm32f10x_it.c **** }
  57:stm32f10x_it.c **** void DebugMon_Handler(void)
  58:stm32f10x_it.c **** {
 298              		.loc 1 58 0
 299              		.cfi_startproc
 300              		@ args = 0, pretend = 0, frame = 0
 301              		@ frame_needed = 0, uses_anonymous_args = 0
 302              		@ link register save eliminated.
 303 0000 7047     		bx	lr
 304              		.cfi_endproc
 305              	.LFE67:
 306              		.size	DebugMon_Handler, .-DebugMon_Handler
 307              		.section	.text.PendSV_Handler,"ax",%progbits
 308              		.align	1
 309              		.global	PendSV_Handler
 310              		.thumb
 311              		.thumb_func
 312              		.type	PendSV_Handler, %function
 313              	PendSV_Handler:
 314              	.LFB68:
  59:stm32f10x_it.c **** }
  60:stm32f10x_it.c **** void PendSV_Handler(void)
  61:stm32f10x_it.c **** {
 315              		.loc 1 61 0
 316              		.cfi_startproc
 317              		@ args = 0, pretend = 0, frame = 0
 318              		@ frame_needed = 0, uses_anonymous_args = 0
 319              		@ link register save eliminated.
 320 0000 7047     		bx	lr
 321              		.cfi_endproc
 322              	.LFE68:
 323              		.size	PendSV_Handler, .-PendSV_Handler
 324              		.section	.bss.g_ms_counter,"aw",%nobits
 325              		.align	2
 326              		.set	.LANCHOR0,. + 0
 327              		.type	g_ms_counter, %object
 328              		.size	g_ms_counter, 4
 329              	g_ms_counter:
 330 0000 00000000 		.space	4
 331              		.text
 332              	.Letext0:
 333              		.file 2 "c:\\yagarto\\arm-none-eabi\\include\\machine\\_default_types.h"
 334              		.file 3 "c:\\yagarto\\arm-none-eabi\\include\\stdint.h"
 335              		.file 4 "c:/yagarto/cmsis_cm3_v361/_cmsis/stm32f10x.h"
 336              		.file 5 "stm32f10x_it.h"
ARM GAS  C:\Users\tom\AppData\Local\Temp\ccEwUWak.s 			page 8


 337              		.file 6 "c:/yagarto/cmsis_cm3_v361/_f10x_stdperiph_drv/inc/stm32f10x_usart.h"
 338              		.file 7 "c:/yagarto/cmsis_cm3_v361/_f10x_stdperiph_drv/inc/stm32f10x_dma.h"
 339              		.file 8 "hw/adc_f1.h"
 340              		.file 9 "./_libs/misc.h"
 341              		.file 10 "c:/yagarto/cmsis_cm3_v361/_cmsis/core_cm3.h"