ARM GAS  C:\Users\tom\AppData\Local\Temp\ccEwUWak.s 			page 1


   1              		.syntax unified
   2              		.cpu cortex-m3
   3              		.fpu softvfp
   4              		.eabi_attribute 20, 1
   5              		.eabi_attribute 21, 1
   6              		.eabi_attribute 23, 3
   7              		.eabi_attribute 24, 1
   8              		.eabi_attribute 25, 1
   9              		.eabi_attribute 26, 1
  10              		.eabi_attribute 30, 4
  11              		.eabi_attribute 34, 1
  12              		.eabi_attribute 18, 4
  13              		.thumb
  14              		.file	"stm32f10x_it.c"
  15              		.text
  16              	.Ltext0:
  17              		.cfi_sections	.debug_frame
  18              		.section	.text.GetMsCounter,"ax",%progbits
  19              		.align	1
  20              		.global	GetMsCounter
  21              		.thumb
  22              		.thumb_func
  23              		.type	GetMsCounter, %function
  24              	GetMsCounter:
  25              	.LFB56:
  26              		.file 1 "stm32f10x_it.c"
   1:stm32f10x_it.c **** #include "misc.h"
   2:stm32f10x_it.c **** #include "stm32f10x_it.h"
   3:stm32f10x_it.c **** #include "adc_f1.h"
   4:stm32f10x_it.c **** 
   5:stm32f10x_it.c **** static unsigned long g_ms_counter;
   6:stm32f10x_it.c **** unsigned long GetMsCounter(void)
   7:stm32f10x_it.c **** {
  27              		.loc 1 7 0
  28              		.cfi_startproc
  29              		@ args = 0, pretend = 0, frame = 0
  30              		@ frame_needed = 0, uses_anonymous_args = 0
  31              		@ link register save eliminated.
   8:stm32f10x_it.c ****     return g_ms_counter;
   9:stm32f10x_it.c **** }
  32              		.loc 1 9 0
  33 0000 014B     		ldr	r3, .L2
  34 0002 1868     		ldr	r0, [r3]
  35 0004 7047     		bx	lr
  36              	.L3:
  37 0006 00BF     		.align	2
  38              	.L2:
  39 0008 00000000 		.word	.LANCHOR0
  40              		.cfi_endproc
  41              	.LFE56:
  42              		.size	GetMsCounter, .-GetMsCounter
  43              		.section	.text.USART1_IRQHandler,"ax",%progbits
  44              		.align	1
  45              		.global	USART1_IRQHandler
  46              		.thumb
  47              		.thumb_func
  48              		.type	USART1_IRQHandler, %function
ARM GAS  C:\Users\tom\AppData\Local\Temp\ccEwUWak.s 			page 2


  49              	USART1_IRQHandler:
  50              	.LFB57:
  10:stm32f10x_it.c **** 
  11:stm32f10x_it.c **** void USART1_IRQHandler(void)
  12:stm32f10x_it.c **** {
  51              		.loc 1 12 0
  52              		.cfi_startproc
  53              		@ args = 0, pretend = 0, frame = 0
  54              		@ frame_needed = 0, uses_anonymous_args = 0
  55 0000 08B5     		push	{r3, lr}
  56              	.LCFI0:
  57              		.cfi_def_cfa_offset 8
  58              		.cfi_offset 3, -8
  59              		.cfi_offset 14, -4
  13:stm32f10x_it.c ****     if(USART_GetITStatus(USART1, USART_IT_IDLE) != RESET) {
  60              		.loc 1 13 0
  61 0002 0848     		ldr	r0, .L7
  62 0004 40F22441 		movw	r1, #1060
  63 0008 FFF7FEFF 		bl	USART_GetITStatus
  64              	.LVL0:
  65 000c 48B1     		cbz	r0, .L4
  14:stm32f10x_it.c ****         USART_RX_IDLE_IRQHandler(USART1);
  66              		.loc 1 14 0
  67 000e 0548     		ldr	r0, .L7
  68 0010 FFF7FEFF 		bl	USART_RX_IDLE_IRQHandler
  69              	.LVL1:
  15:stm32f10x_it.c ****         USART_ClearITPendingBit(USART1, USART_IT_IDLE);
  16:stm32f10x_it.c ****     }
  17:stm32f10x_it.c **** }
  70              		.loc 1 17 0
  71 0014 BDE80840 		pop	{r3, lr}
  72              	.LCFI1:
  73              		.cfi_remember_state
  74              		.cfi_restore 14
  75              		.cfi_restore 3
  76              		.cfi_def_cfa_offset 0
  15:stm32f10x_it.c ****         USART_ClearITPendingBit(USART1, USART_IT_IDLE);
  77              		.loc 1 15 0
  78 0018 0248     		ldr	r0, .L7
  79 001a 40F22441 		movw	r1, #1060
  80 001e FFF7FEBF 		b	USART_ClearITPendingBit
  81              	.LVL2:
  82              	.L4:
  83              	.LCFI2:
  84              		.cfi_restore_state
  85 0022 08BD     		pop	{r3, pc}
  86              	.L8:
  87              		.align	2
  88              	.L7:
  89 0024 00380140 		.word	1073821696
  90              		.cfi_endproc
  91              	.LFE57:
  92              		.size	USART1_IRQHandler, .-USART1_IRQHandler
  93              		.section	.text.DMA1_Channel1_IRQHandler,"ax",%progbits
  94              		.align	1
  95              		.global	DMA1_Channel1_IRQHandler
  96              		.thumb
ARM GAS  C:\Users\tom\AppData\Local\Temp\ccEwUWak.s 			page 3


  97              		.thumb_func
  98              		.type	DMA1_Channel1_IRQHandler, %function
  99              	DMA1_Channel1_IRQHandler:
 100              	.LFB58:
  18:stm32f10x_it.c **** 
  19:stm32f10x_it.c **** // STM32内部ADC转换完成时把DMA_Buffer内容复制到ADC_Data数组, 调整增益
  20:stm32f10x_it.c **** void DMA1_Channel1_IRQHandler(void)
  21:stm32f10x_it.c **** {
 101              		.loc 1 21 0
 102              		.cfi_startproc
 103              		@ args = 0, pretend = 0, frame = 0
 104              		@ frame_needed = 0, uses_anonymous_args = 0
 105 0000 08B5     		push	{r3, lr}
 106              	.LCFI3:
 107              		.cfi_def_cfa_offset 8
 108              		.cfi_offset 3, -8
 109              		.cfi_offset 14, -4
  22:stm32f10x_it.c ****     ADCDMA_Conv_Complete_IRQHandler();
 110              		.loc 1 22 0
 111 0002 FFF7FEFF 		bl	ADCDMA_Conv_Complete_IRQHandler
 112              	.LVL3:
  23:stm32f10x_it.c ****     DMA_ClearITPendingBit(DMA1_IT_GL1);
  24:stm32f10x_it.c **** }
 113              		.loc 1 24 0
 114 0006 BDE80840 		pop	{r3, lr}
 115              	.LCFI4:
 116              		.cfi_restore 14
 117              		.cfi_restore 3
 118              		.cfi_def_cfa_offset 0
  23:stm32f10x_it.c ****     DMA_ClearITPendingBit(DMA1_IT_GL1);
 119              		.loc 1 23 0
 120 000a 0120     		movs	r0, #1
 121 000c FFF7FEBF 		b	DMA_ClearITPendingBit
 122              	.LVL4:
 123              		.cfi_endproc
 124              	.LFE58:
 125              		.size	DMA1_Channel1_IRQHandler, .-DMA1_Channel1_IRQHandler
 126              		.section	.text.SysTick_Handler,"ax",%progbits
 127              		.align	1
 128              		.global	SysTick_Handler
 129              		.thumb
 130              		.thumb_func
 131              		.type	SysTick_Handler, %function
 132              	SysTick_Handler:
 133              	.LFB59:
  25:stm32f10x_it.c **** 
  26:stm32f10x_it.c **** void SysTick_Handler(void)
  27:stm32f10x_it.c **** {
 134              		.loc 1 27 0
 135              		.cfi_startproc
 136              		@ args = 0, pretend = 0, frame = 0
 137              		@ frame_needed = 0, uses_anonymous_args = 0
 138 0000 08B5     		push	{r3, lr}
 139              	.LCFI5:
 140              		.cfi_def_cfa_offset 8
 141              		.cfi_offset 3, -8
 142              		.cfi_offset 14, -4
ARM GAS  C:\Users\tom\AppData\Local\Temp\ccEwUWak.s 			page 4


  28:stm32f10x_it.c ****     _delay_nms_mm();        // executes every 1ms
 143              		.loc 1 28 0
 144 0002 FFF7FEFF 		bl	_delay_nms_mm
 145              	.LVL5:
  29:stm32f10x_it.c ****     g_ms_counter++;
 146              		.loc 1 29 0
 147 0006 024A     		ldr	r2, .L11
 148 0008 1368     		ldr	r3, [r2]
 149 000a 0133     		adds	r3, r3, #1
 150 000c 1360     		str	r3, [r2]
 151 000e 08BD     		pop	{r3, pc}
 152              	.L12:
 153              		.align	2
 154              	.L11:
 155 0010 00000000 		.word	.LANCHOR0
 156              		.cfi_endproc
 157              	.LFE59:
 158              		.size	SysTick_Handler, .-SysTick_Handler
 159              		.section	.text.PPP_IRQHandler,"ax",%progbits
 160              		.align	1
 161              		.global	PPP_IRQHandler
 162              		.thumb
 163              		.thumb_func
 164              		.type	PPP_IRQHandler, %function
 165              	PPP_IRQHandler:
 166              	.LFB60:
  30:stm32f10x_it.c **** }
  31:stm32f10x_it.c **** 
  32:stm32f10x_it.c **** void PPP_IRQHandler(void)
  33:stm32f10x_it.c **** {
 167              		.loc 1 33 0
 168              		.cfi_startproc
 169              		@ args = 0, pretend = 0, frame = 0
 170              		@ frame_needed = 0, uses_anonymous_args = 0
 171              		@ link register save eliminated.
 172 0000 7047     		bx	lr
 173              		.cfi_endproc
 174              	.LFE60:
 175              		.size	PPP_IRQHandler, .-PPP_IRQHandler
 176              		.section	.text.NMI_Handler,"ax",%progbits
 177              		.align	1
 178              		.global	NMI_Handler
 179              		.thumb
 180              		.thumb_func
 181              		.type	NMI_Handler, %function
 182              	NMI_Handler:
 183              	.LFB61:
  34:stm32f10x_it.c **** }
  35:stm32f10x_it.c **** void NMI_Handler(void)
  36:stm32f10x_it.c **** {
 184              		.loc 1 36 0
 185              		.cfi_startproc
 186              		@ args = 0, pretend = 0, frame = 0
 187              		@ frame_needed = 0, uses_anonymous_args = 0
 188              		@ link register save eliminated.
 189 0000 7047     		bx	lr
 190              		.cfi_endproc
ARM GAS  C:\Users\tom\AppData\Local\Temp\ccEwUWak.s 			page 5


 191              	.LFE61:
 192              		.size	NMI_Handler, .-NMI_Handler
 193              		.section	.text.HardFault_Handler,"ax",%progbits
 194              		.align	1
 195              		.global	HardFault_Handler
 196              		.thumb
 197              		.thumb_func
 198              		.type	HardFault_Handler, %function
 199              	HardFault_Handler:
 200              	.LFB62:
  37:stm32f10x_it.c **** }
  38:stm32f10x_it.c **** void HardFault_Handler(void)
  39:stm32f10x_it.c **** {
 201              		.loc 1 39 0
 202              		.cfi_startproc
 203              		@ Volatile: function does not return.
 204              		@ args = 0, pretend = 0, frame = 0
 205              		@ frame_needed = 0, uses_anonymous_args = 0
 206              		@ link register save eliminated.
 207              	.L16:
  40:stm32f10x_it.c ****     ( {  while (1);});
 208              		.loc 1 40 0 discriminator 1
 209 0000 FEE7     		b	.L16
 210              		.cfi_endproc
 211              	.LFE62:
 212              		.size	HardFault_Handler, .-HardFault_Handler
 213              		.section	.text.MemManage_Handler,"ax",%progbits
 214              		.align	1
 215              		.global	MemManage_Handler
 216              		.thumb
 217              		.thumb_func
 218              		.type	MemManage_Handler, %function
 219              	MemManage_Handler:
 220              	.LFB63:
  41:stm32f10x_it.c **** }
  42:stm32f10x_it.c **** void MemManage_Handler(void)
  43:stm32f10x_it.c **** {
 221              		.loc 1 43 0
 222              		.cfi_startproc
 223              		@ Volatile: function does not return.
 224              		@ args = 0, pretend = 0, frame = 0
 225              		@ frame_needed = 0, uses_anonymous_args = 0
 226              		@ link register save eliminated.
 227              	.L18:
  44:stm32f10x_it.c ****     ( {  while (1);});
 228              		.loc 1 44 0 discriminator 1
 229 0000 FEE7     		b	.L18
 230              		.cfi_endproc
 231              	.LFE63:
 232              		.size	MemManage_Handler, .-MemManage_Handler
 233              		.section	.text.BusFault_Handler,"ax",%progbits
 234              		.align	1
 235              		.global	BusFault_Handler
 236              		.thumb
 237              		.thumb_func
 238              		.type	BusFault_Handler, %function
 239              	BusFault_Handler:
ARM GAS  C:\Users\tom\AppData\Local\Temp\ccEwUWak.s 			page 6


 240              	.LFB64:
  45:stm32f10x_it.c **** }
  46:stm32f10x_it.c **** void BusFault_Handler(void)
  47:stm32f10x_it.c **** {
 241              		.loc 1 47 0
 242              		.cfi_startproc
 243              		@ Volatile: function does not return.
 244              		@ args = 0, pretend = 0, frame = 0
 245              		@ frame_needed = 0, uses_anonymous_args = 0
 246              		@ link register save eliminated.
 247              	.L20:
  48:stm32f10x_it.c ****     ( {  while (1);});
 248              		.loc 1 48 0 discriminator 1
 249 0000 FEE7     		b	.L20
 250              		.cfi_endproc
 251              	.LFE64:
 252              		.size	BusFault_Handler, .-BusFault_Handler
 253              		.section	.text.UsageFault_Handler,"ax",%progbits
 254              		.align	1
 255              		.global	UsageFault_Handler
 256              		.thumb
 257              		.thumb_func
 258              		.type	UsageFault_Handler, %function
 259              	UsageFault_Handler:
 260              	.LFB65:
  49:stm32f10x_it.c **** }
  50:stm32f10x_it.c **** void UsageFault_Handler(void)
  51:stm32f10x_it.c **** {
 261              		.loc 1 51 0
 262              		.cfi_startproc
 263              		@ Volatile: function does not return.
 264              		@ args = 0, pretend = 0, frame = 0
 265              		@ frame_needed = 0, uses_anonymous_args = 0
 266              		@ link register save eliminated.
 267              	.L22:
  52:stm32f10x_it.c ****     ( {  while (1);});
 268              		.loc 1 52 0 discriminator 1
 269 0000 FEE7     		b	.L22
 270              		.cfi_endproc
 271              	.LFE65:
 272              		.size	UsageFault_Handler, .-UsageFault_Handler
 273              		.section	.text.SVC_Handler,"ax",%progbits
 274              		.align	1
 275              		.global	SVC_Handler
 276              		.thumb
 277              		.thumb_func
 278              		.type	SVC_Handler, %function
 279              	SVC_Handler:
 280              	.LFB66:
  53:stm32f10x_it.c **** }
  54:stm32f10x_it.c **** void SVC_Handler(void)
  55:stm32f10x_it.c **** {
 281              		.loc 1 55 0
 282              		.cfi_startproc
 283              		@ args = 0, pretend = 0, frame = 0
 284              		@ frame_needed = 0, uses_anonymous_args = 0
 285              		@ link register save eliminated.
ARM GAS  C:\Users\tom\AppData\Local\Temp\ccEwUWak.s 			page 7


 286 0000 7047     		bx	lr
 287              		.cfi_endproc
 288              	.LFE66:
 289              		.size	SVC_Handler, .-SVC_Handler
 290              		.section	.text.DebugMon_Handler,"ax",%progbits
 291              		.align	1
 292              		.global	DebugMon_Handler
 293              		.thumb
 294              		.thumb_func
 295              		.type	DebugMon_Handler, %function
 296              	DebugMon_Handler:
 297              	.LFB67:
  56:stm32f10x_it.c **** }
  57:stm32f10x_it.c **** void DebugMon_Handler(void)
  58:stm32f10x_it.c **** {
 298              		.loc 1 58 0
 299              		.cfi_startproc
 300              		@ args = 0, pretend = 0, frame = 0
 301              		@ frame_needed = 0, uses_anonymous_args = 0
 302              		@ link register save eliminated.
 303 0000 7047     		bx	lr
 304              		.cfi_endproc
 305              	.LFE67:
 306              		.size	DebugMon_Handler, .-DebugMon_Handler
 307              		.section	.text.PendSV_Handler,"ax",%progbits
 308              		.align	1
 309              		.global	PendSV_Handler
 310              		.thumb
 311              		.thumb_func
 312              		.type	PendSV_Handler, %function
 313              	PendSV_Handler:
 314              	.LFB68:
  59:stm32f10x_it.c **** }
  60:stm32f10x_it.c **** void PendSV_Handler(void)
  61:stm32f10x_it.c **** {
 315              		.loc 1 61 0
 316              		.cfi_startproc
 317              		@ args = 0, pretend = 0, frame = 0
 318              		@ frame_needed = 0, uses_anonymous_args = 0
 319              		@ link register save eliminated.
 320 0000 7047     		bx	lr
 321              		.cfi_endproc
 322              	.LFE68:
 323              		.size	PendSV_Handler, .-PendSV_Handler
 324              		.section	.bss.g_ms_counter,"aw",%nobits
 325              		.align	2
 326              		.set	.LANCHOR0,. + 0
 327              		.type	g_ms_counter, %object
 328              		.size	g_ms_counter, 4
 329              	g_ms_counter:
 330 0000 00000000 		.space	4
 331              		.text
 332              	.Letext0:
 333              		.file 2 "c:\\yagarto\\arm-none-eabi\\include\\machine\\_default_types.h"
 334              		.file 3 "c:\\yagarto\\arm-none-eabi\\include\\stdint.h"
 335              		.file 4 "c:/yagarto/cmsis_cm3_v361/_cmsis/stm32f10x.h"
 336              		.file 5 "stm32f10x_it.h"
ARM GAS  C:\Users\tom\AppData\Local\Temp\ccEwUWak.s 			page 8


 337              		.file 6 "c:/yagarto/cmsis_cm3_v361/_f10x_stdperiph_drv/inc/stm32f10x_usart.h"
 338              		.file 7 "c:/yagarto/cmsis_cm3_v361/_f10x_stdperiph_drv/inc/stm32f10x_dma.h"
 339              		.file 8 "hw/adc_f1.h"
 340              		.file 9 "./_libs/misc.h"
 341              		.file 10 "c:/yagarto/cmsis_cm3_v361/_cmsis/core_cm3.h"
 342              		.section	.debug_info,"",%progbits
 343              	.Ldebug_info0:
 344 0000 08040000 		.4byte	0x408
 345 0004 0200     		.2byte	0x2
 346 0006 00000000 		.4byte	.Ldebug_abbrev0
 347 000a 04       		.byte	0x4
 348 000b 01       		.uleb128 0x1
 349 000c 2F000000 		.4byte	.LASF46
 350 0010 01       		.byte	0x1
 351 0011 85030000 		.4byte	.LASF47
 352 0015 29010000 		.4byte	.LASF48
 353 0019 00000000 		.4byte	.Ldebug_ranges0+0
 354 001d 00000000 		.4byte	0
 355 0021 00000000 		.4byte	0
 356 0025 00000000 		.4byte	.Ldebug_line0
 357 0029 02       		.uleb128 0x2
 358 002a 01       		.byte	0x1
 359 002b 06       		.byte	0x6
 360 002c 40030000 		.4byte	.LASF0
 361 0030 02       		.uleb128 0x2
 362 0031 01       		.byte	0x1
 363 0032 08       		.byte	0x8
 364 0033 CA010000 		.4byte	.LASF1
 365 0037 02       		.uleb128 0x2
 366 0038 02       		.byte	0x2
 367 0039 05       		.byte	0x5
 368 003a EB020000 		.4byte	.LASF2
 369 003e 03       		.uleb128 0x3
 370 003f 24020000 		.4byte	.LASF4
 371 0043 02       		.byte	0x2
 372 0044 2B       		.byte	0x2b
 373 0045 49000000 		.4byte	0x49
 374 0049 02       		.uleb128 0x2
 375 004a 02       		.byte	0x2
 376 004b 07       		.byte	0x7
 377 004c 4C030000 		.4byte	.LASF3
 378 0050 03       		.uleb128 0x3
 379 0051 D0000000 		.4byte	.LASF5
 380 0055 02       		.byte	0x2
 381 0056 3F       		.byte	0x3f
 382 0057 5B000000 		.4byte	0x5b
 383 005b 02       		.uleb128 0x2
 384 005c 04       		.byte	0x4
 385 005d 05       		.byte	0x5
 386 005e 37030000 		.4byte	.LASF6
 387 0062 03       		.uleb128 0x3
 388 0063 2F020000 		.4byte	.LASF7
 389 0067 02       		.byte	0x2
 390 0068 41       		.byte	0x41
 391 0069 6D000000 		.4byte	0x6d
 392 006d 02       		.uleb128 0x2
 393 006e 04       		.byte	0x4
ARM GAS  C:\Users\tom\AppData\Local\Temp\ccEwUWak.s 			page 9


 394 006f 07       		.byte	0x7
 395 0070 F1010000 		.4byte	.LASF8
 396 0074 02       		.uleb128 0x2
 397 0075 08       		.byte	0x8
 398 0076 05       		.byte	0x5
 399 0077 A5020000 		.4byte	.LASF9
 400 007b 02       		.uleb128 0x2
 401 007c 08       		.byte	0x8
 402 007d 07       		.byte	0x7
 403 007e B3010000 		.4byte	.LASF10
 404 0082 04       		.uleb128 0x4
 405 0083 04       		.byte	0x4
 406 0084 05       		.byte	0x5
 407 0085 696E7400 		.ascii	"int\000"
 408 0089 02       		.uleb128 0x2
 409 008a 04       		.byte	0x4
 410 008b 07       		.byte	0x7
 411 008c 3F020000 		.4byte	.LASF11
 412 0090 03       		.uleb128 0x3
 413 0091 E2020000 		.4byte	.LASF12
 414 0095 03       		.byte	0x3
 415 0096 21       		.byte	0x21
 416 0097 3E000000 		.4byte	0x3e
 417 009b 03       		.uleb128 0x3
 418 009c 94020000 		.4byte	.LASF13
 419 00a0 03       		.byte	0x3
 420 00a1 2C       		.byte	0x2c
 421 00a2 50000000 		.4byte	0x50
 422 00a6 03       		.uleb128 0x3
 423 00a7 2E030000 		.4byte	.LASF14
 424 00ab 03       		.byte	0x3
 425 00ac 2D       		.byte	0x2d
 426 00ad 62000000 		.4byte	0x62
 427 00b1 02       		.uleb128 0x2
 428 00b2 04       		.byte	0x4
 429 00b3 07       		.byte	0x7
 430 00b4 9C020000 		.4byte	.LASF15
 431 00b8 02       		.uleb128 0x2
 432 00b9 01       		.byte	0x1
 433 00ba 08       		.byte	0x8
 434 00bb 4C020000 		.4byte	.LASF16
 435 00bf 05       		.uleb128 0x5
 436 00c0 90000000 		.4byte	0x90
 437 00c4 05       		.uleb128 0x5
 438 00c5 9B000000 		.4byte	0x9b
 439 00c9 06       		.uleb128 0x6
 440 00ca 01       		.byte	0x1
 441 00cb 04       		.byte	0x4
 442 00cc 1102     		.2byte	0x211
 443 00ce DF000000 		.4byte	0xdf
 444 00d2 07       		.uleb128 0x7
 445 00d3 03020000 		.4byte	.LASF17
 446 00d7 00       		.sleb128 0
 447 00d8 08       		.uleb128 0x8
 448 00d9 53455400 		.ascii	"SET\000"
 449 00dd 01       		.sleb128 1
 450 00de 00       		.byte	0
ARM GAS  C:\Users\tom\AppData\Local\Temp\ccEwUWak.s 			page 10


 451 00df 09       		.uleb128 0x9
 452 00e0 26000000 		.4byte	.LASF18
 453 00e4 04       		.byte	0x4
 454 00e5 1102     		.2byte	0x211
 455 00e7 C9000000 		.4byte	0xc9
 456 00eb 0A       		.uleb128 0xa
 457 00ec 1C       		.byte	0x1c
 458 00ed 04       		.byte	0x4
 459 00ee DC04     		.2byte	0x4dc
 460 00f0 C5010000 		.4byte	0x1c5
 461 00f4 0B       		.uleb128 0xb
 462 00f5 535200   		.ascii	"SR\000"
 463 00f8 04       		.byte	0x4
 464 00f9 DE04     		.2byte	0x4de
 465 00fb BF000000 		.4byte	0xbf
 466 00ff 02       		.byte	0x2
 467 0100 23       		.byte	0x23
 468 0101 00       		.uleb128 0
 469 0102 0C       		.uleb128 0xc
 470 0103 5B010000 		.4byte	.LASF19
 471 0107 04       		.byte	0x4
 472 0108 DF04     		.2byte	0x4df
 473 010a 90000000 		.4byte	0x90
 474 010e 02       		.byte	0x2
 475 010f 23       		.byte	0x23
 476 0110 02       		.uleb128 0x2
 477 0111 0B       		.uleb128 0xb
 478 0112 445200   		.ascii	"DR\000"
 479 0115 04       		.byte	0x4
 480 0116 E004     		.2byte	0x4e0
 481 0118 BF000000 		.4byte	0xbf
 482 011c 02       		.byte	0x2
 483 011d 23       		.byte	0x23
 484 011e 04       		.uleb128 0x4
 485 011f 0C       		.uleb128 0xc
 486 0120 65010000 		.4byte	.LASF20
 487 0124 04       		.byte	0x4
 488 0125 E104     		.2byte	0x4e1
 489 0127 90000000 		.4byte	0x90
 490 012b 02       		.byte	0x2
 491 012c 23       		.byte	0x23
 492 012d 06       		.uleb128 0x6
 493 012e 0B       		.uleb128 0xb
 494 012f 42525200 		.ascii	"BRR\000"
 495 0133 04       		.byte	0x4
 496 0134 E204     		.2byte	0x4e2
 497 0136 BF000000 		.4byte	0xbf
 498 013a 02       		.byte	0x2
 499 013b 23       		.byte	0x23
 500 013c 08       		.uleb128 0x8
 501 013d 0C       		.uleb128 0xc
 502 013e 6F010000 		.4byte	.LASF21
 503 0142 04       		.byte	0x4
 504 0143 E304     		.2byte	0x4e3
 505 0145 90000000 		.4byte	0x90
 506 0149 02       		.byte	0x2
 507 014a 23       		.byte	0x23
ARM GAS  C:\Users\tom\AppData\Local\Temp\ccEwUWak.s 			page 11


 508 014b 0A       		.uleb128 0xa
 509 014c 0B       		.uleb128 0xb
 510 014d 43523100 		.ascii	"CR1\000"
 511 0151 04       		.byte	0x4
 512 0152 E404     		.2byte	0x4e4
 513 0154 BF000000 		.4byte	0xbf
 514 0158 02       		.byte	0x2
 515 0159 23       		.byte	0x23
 516 015a 0C       		.uleb128 0xc
 517 015b 0C       		.uleb128 0xc
 518 015c 79010000 		.4byte	.LASF22
 519 0160 04       		.byte	0x4
 520 0161 E504     		.2byte	0x4e5
 521 0163 90000000 		.4byte	0x90
 522 0167 02       		.byte	0x2
 523 0168 23       		.byte	0x23
 524 0169 0E       		.uleb128 0xe
 525 016a 0B       		.uleb128 0xb
 526 016b 43523200 		.ascii	"CR2\000"
 527 016f 04       		.byte	0x4
 528 0170 E604     		.2byte	0x4e6
 529 0172 BF000000 		.4byte	0xbf
 530 0176 02       		.byte	0x2
 531 0177 23       		.byte	0x23
 532 0178 10       		.uleb128 0x10
 533 0179 0C       		.uleb128 0xc
 534 017a 83010000 		.4byte	.LASF23
 535 017e 04       		.byte	0x4
 536 017f E704     		.2byte	0x4e7
 537 0181 90000000 		.4byte	0x90
 538 0185 02       		.byte	0x2
 539 0186 23       		.byte	0x23
 540 0187 12       		.uleb128 0x12
 541 0188 0B       		.uleb128 0xb
 542 0189 43523300 		.ascii	"CR3\000"
 543 018d 04       		.byte	0x4
 544 018e E804     		.2byte	0x4e8
 545 0190 BF000000 		.4byte	0xbf
 546 0194 02       		.byte	0x2
 547 0195 23       		.byte	0x23
 548 0196 14       		.uleb128 0x14
 549 0197 0C       		.uleb128 0xc
 550 0198 00000000 		.4byte	.LASF24
 551 019c 04       		.byte	0x4
 552 019d E904     		.2byte	0x4e9
 553 019f 90000000 		.4byte	0x90
 554 01a3 02       		.byte	0x2
 555 01a4 23       		.byte	0x23
 556 01a5 16       		.uleb128 0x16
 557 01a6 0C       		.uleb128 0xc
 558 01a7 3A020000 		.4byte	.LASF25
 559 01ab 04       		.byte	0x4
 560 01ac EA04     		.2byte	0x4ea
 561 01ae BF000000 		.4byte	0xbf
 562 01b2 02       		.byte	0x2
 563 01b3 23       		.byte	0x23
 564 01b4 18       		.uleb128 0x18
ARM GAS  C:\Users\tom\AppData\Local\Temp\ccEwUWak.s 			page 12


 565 01b5 0C       		.uleb128 0xc
 566 01b6 8D010000 		.4byte	.LASF26
 567 01ba 04       		.byte	0x4
 568 01bb EB04     		.2byte	0x4eb
 569 01bd 90000000 		.4byte	0x90
 570 01c1 02       		.byte	0x2
 571 01c2 23       		.byte	0x23
 572 01c3 1A       		.uleb128 0x1a
 573 01c4 00       		.byte	0
 574 01c5 09       		.uleb128 0x9
 575 01c6 1B010000 		.4byte	.LASF27
 576 01ca 04       		.byte	0x4
 577 01cb EC04     		.2byte	0x4ec
 578 01cd EB000000 		.4byte	0xeb
 579 01d1 02       		.uleb128 0x2
 580 01d2 04       		.byte	0x4
 581 01d3 04       		.byte	0x4
 582 01d4 AD010000 		.4byte	.LASF28
 583 01d8 0D       		.uleb128 0xd
 584 01d9 01       		.byte	0x1
 585 01da 78030000 		.4byte	.LASF49
 586 01de 01       		.byte	0x1
 587 01df 06       		.byte	0x6
 588 01e0 01       		.byte	0x1
 589 01e1 6D000000 		.4byte	0x6d
 590 01e5 00000000 		.4byte	.LFB56
 591 01e9 0C000000 		.4byte	.LFE56
 592 01ed 02       		.byte	0x2
 593 01ee 7D       		.byte	0x7d
 594 01ef 00       		.sleb128 0
 595 01f0 01       		.byte	0x1
 596 01f1 0E       		.uleb128 0xe
 597 01f2 01       		.byte	0x1
 598 01f3 6F020000 		.4byte	.LASF29
 599 01f7 01       		.byte	0x1
 600 01f8 0B       		.byte	0xb
 601 01f9 01       		.byte	0x1
 602 01fa 00000000 		.4byte	.LFB57
 603 01fe 28000000 		.4byte	.LFE57
 604 0202 00000000 		.4byte	.LLST0
 605 0206 01       		.byte	0x1
 606 0207 5C020000 		.4byte	0x25c
 607 020b 0F       		.uleb128 0xf
 608 020c 0C000000 		.4byte	.LVL0
 609 0210 90030000 		.4byte	0x390
 610 0214 29020000 		.4byte	0x229
 611 0218 10       		.uleb128 0x10
 612 0219 01       		.byte	0x1
 613 021a 51       		.byte	0x51
 614 021b 03       		.byte	0x3
 615 021c 0A       		.byte	0xa
 616 021d 2404     		.2byte	0x424
 617 021f 10       		.uleb128 0x10
 618 0220 01       		.byte	0x1
 619 0221 50       		.byte	0x50
 620 0222 05       		.byte	0x5
 621 0223 0C       		.byte	0xc
ARM GAS  C:\Users\tom\AppData\Local\Temp\ccEwUWak.s 			page 13


 622 0224 00380140 		.4byte	0x40013800
 623 0228 00       		.byte	0
 624 0229 0F       		.uleb128 0xf
 625 022a 14000000 		.4byte	.LVL1
 626 022e B4030000 		.4byte	0x3b4
 627 0232 40020000 		.4byte	0x240
 628 0236 10       		.uleb128 0x10
 629 0237 01       		.byte	0x1
 630 0238 50       		.byte	0x50
 631 0239 05       		.byte	0x5
 632 023a 0C       		.byte	0xc
 633 023b 00380140 		.4byte	0x40013800
 634 023f 00       		.byte	0
 635 0240 11       		.uleb128 0x11
 636 0241 22000000 		.4byte	.LVL2
 637 0245 01       		.byte	0x1
 638 0246 C8030000 		.4byte	0x3c8
 639 024a 10       		.uleb128 0x10
 640 024b 01       		.byte	0x1
 641 024c 51       		.byte	0x51
 642 024d 03       		.byte	0x3
 643 024e 0A       		.byte	0xa
 644 024f 2404     		.2byte	0x424
 645 0251 10       		.uleb128 0x10
 646 0252 01       		.byte	0x1
 647 0253 50       		.byte	0x50
 648 0254 05       		.byte	0x5
 649 0255 0C       		.byte	0xc
 650 0256 00380140 		.4byte	0x40013800
 651 025a 00       		.byte	0
 652 025b 00       		.byte	0
 653 025c 0E       		.uleb128 0xe
 654 025d 01       		.byte	0x1
 655 025e D8010000 		.4byte	.LASF30
 656 0262 01       		.byte	0x1
 657 0263 14       		.byte	0x14
 658 0264 01       		.byte	0x1
 659 0265 00000000 		.4byte	.LFB58
 660 0269 10000000 		.4byte	.LFE58
 661 026d 38000000 		.4byte	.LLST1
 662 0271 01       		.byte	0x1
 663 0272 90020000 		.4byte	0x290
 664 0276 12       		.uleb128 0x12
 665 0277 06000000 		.4byte	.LVL3
 666 027b E2030000 		.4byte	0x3e2
 667 027f 11       		.uleb128 0x11
 668 0280 10000000 		.4byte	.LVL4
 669 0284 01       		.byte	0x1
 670 0285 EC030000 		.4byte	0x3ec
 671 0289 10       		.uleb128 0x10
 672 028a 01       		.byte	0x1
 673 028b 50       		.byte	0x50
 674 028c 01       		.byte	0x1
 675 028d 31       		.byte	0x31
 676 028e 00       		.byte	0
 677 028f 00       		.byte	0
 678 0290 0E       		.uleb128 0xe
ARM GAS  C:\Users\tom\AppData\Local\Temp\ccEwUWak.s 			page 14


 679 0291 01       		.byte	0x1
 680 0292 EB000000 		.4byte	.LASF31
 681 0296 01       		.byte	0x1
 682 0297 1A       		.byte	0x1a
 683 0298 01       		.byte	0x1
 684 0299 00000000 		.4byte	.LFB59
 685 029d 14000000 		.4byte	.LFE59
 686 02a1 64000000 		.4byte	.LLST2
 687 02a5 01       		.byte	0x1
 688 02a6 B4020000 		.4byte	0x2b4
 689 02aa 12       		.uleb128 0x12
 690 02ab 06000000 		.4byte	.LVL5
 691 02af 01040000 		.4byte	0x401
 692 02b3 00       		.byte	0
 693 02b4 13       		.uleb128 0x13
 694 02b5 01       		.byte	0x1
 695 02b6 17000000 		.4byte	.LASF32
 696 02ba 01       		.byte	0x1
 697 02bb 20       		.byte	0x20
 698 02bc 01       		.byte	0x1
 699 02bd 00000000 		.4byte	.LFB60
 700 02c1 02000000 		.4byte	.LFE60
 701 02c5 02       		.byte	0x2
 702 02c6 7D       		.byte	0x7d
 703 02c7 00       		.sleb128 0
 704 02c8 01       		.byte	0x1
 705 02c9 13       		.uleb128 0x13
 706 02ca 01       		.byte	0x1
 707 02cb 51020000 		.4byte	.LASF33
 708 02cf 01       		.byte	0x1
 709 02d0 23       		.byte	0x23
 710 02d1 01       		.byte	0x1
 711 02d2 00000000 		.4byte	.LFB61
 712 02d6 02000000 		.4byte	.LFE61
 713 02da 02       		.byte	0x2
 714 02db 7D       		.byte	0x7d
 715 02dc 00       		.sleb128 0
 716 02dd 01       		.byte	0x1
 717 02de 13       		.uleb128 0x13
 718 02df 01       		.byte	0x1
 719 02e0 B3020000 		.4byte	.LASF34
 720 02e4 01       		.byte	0x1
 721 02e5 26       		.byte	0x26
 722 02e6 01       		.byte	0x1
 723 02e7 00000000 		.4byte	.LFB62
 724 02eb 02000000 		.4byte	.LFE62
 725 02ef 02       		.byte	0x2
 726 02f0 7D       		.byte	0x7d
 727 02f1 00       		.sleb128 0
 728 02f2 01       		.byte	0x1
 729 02f3 13       		.uleb128 0x13
 730 02f4 01       		.byte	0x1
 731 02f5 5D020000 		.4byte	.LASF35
 732 02f9 01       		.byte	0x1
 733 02fa 2A       		.byte	0x2a
 734 02fb 01       		.byte	0x1
 735 02fc 00000000 		.4byte	.LFB63
ARM GAS  C:\Users\tom\AppData\Local\Temp\ccEwUWak.s 			page 15


 736 0300 02000000 		.4byte	.LFE63
 737 0304 02       		.byte	0x2
 738 0305 7D       		.byte	0x7d
 739 0306 00       		.sleb128 0
 740 0307 01       		.byte	0x1
 741 0308 13       		.uleb128 0x13
 742 0309 01       		.byte	0x1
 743 030a D1020000 		.4byte	.LASF36
 744 030e 01       		.byte	0x1
 745 030f 2E       		.byte	0x2e
 746 0310 01       		.byte	0x1
 747 0311 00000000 		.4byte	.LFB64
 748 0315 02000000 		.4byte	.LFE64
 749 0319 02       		.byte	0x2
 750 031a 7D       		.byte	0x7d
 751 031b 00       		.sleb128 0
 752 031c 01       		.byte	0x1
 753 031d 13       		.uleb128 0x13
 754 031e 01       		.byte	0x1
 755 031f 81020000 		.4byte	.LASF37
 756 0323 01       		.byte	0x1
 757 0324 32       		.byte	0x32
 758 0325 01       		.byte	0x1
 759 0326 00000000 		.4byte	.LFB65
 760 032a 02000000 		.4byte	.LFE65
 761 032e 02       		.byte	0x2
 762 032f 7D       		.byte	0x7d
 763 0330 00       		.sleb128 0
 764 0331 01       		.byte	0x1
 765 0332 13       		.uleb128 0x13
 766 0333 01       		.byte	0x1
 767 0334 C5020000 		.4byte	.LASF38
 768 0338 01       		.byte	0x1
 769 0339 36       		.byte	0x36
 770 033a 01       		.byte	0x1
 771 033b 00000000 		.4byte	.LFB66
 772 033f 02000000 		.4byte	.LFE66
 773 0343 02       		.byte	0x2
 774 0344 7D       		.byte	0x7d
 775 0345 00       		.sleb128 0
 776 0346 01       		.byte	0x1
 777 0347 13       		.uleb128 0x13
 778 0348 01       		.byte	0x1
 779 0349 DA000000 		.4byte	.LASF39
 780 034d 01       		.byte	0x1
 781 034e 39       		.byte	0x39
 782 034f 01       		.byte	0x1
 783 0350 00000000 		.4byte	.LFB67
 784 0354 02000000 		.4byte	.LFE67
 785 0358 02       		.byte	0x2
 786 0359 7D       		.byte	0x7d
 787 035a 00       		.sleb128 0
 788 035b 01       		.byte	0x1
 789 035c 13       		.uleb128 0x13
 790 035d 01       		.byte	0x1
 791 035e F5020000 		.4byte	.LASF40
 792 0362 01       		.byte	0x1
ARM GAS  C:\Users\tom\AppData\Local\Temp\ccEwUWak.s 			page 16


 793 0363 3C       		.byte	0x3c
 794 0364 01       		.byte	0x1
 795 0365 00000000 		.4byte	.LFB68
 796 0369 02000000 		.4byte	.LFE68
 797 036d 02       		.byte	0x2
 798 036e 7D       		.byte	0x7d
 799 036f 00       		.sleb128 0
 800 0370 01       		.byte	0x1
 801 0371 14       		.uleb128 0x14
 802 0372 0A000000 		.4byte	.LASF50
 803 0376 01       		.byte	0x1
 804 0377 05       		.byte	0x5
 805 0378 6D000000 		.4byte	0x6d
 806 037c 05       		.byte	0x5
 807 037d 03       		.byte	0x3
 808 037e 00000000 		.4byte	g_ms_counter
 809 0382 15       		.uleb128 0x15
 810 0383 17020000 		.4byte	.LASF51
 811 0387 0A       		.byte	0xa
 812 0388 0606     		.2byte	0x606
 813 038a C4000000 		.4byte	0xc4
 814 038e 01       		.byte	0x1
 815 038f 01       		.byte	0x1
 816 0390 16       		.uleb128 0x16
 817 0391 01       		.byte	0x1
 818 0392 04030000 		.4byte	.LASF52
 819 0396 06       		.byte	0x6
 820 0397 9901     		.2byte	0x199
 821 0399 01       		.byte	0x1
 822 039a DF000000 		.4byte	0xdf
 823 039e 01       		.byte	0x1
 824 039f AE030000 		.4byte	0x3ae
 825 03a3 17       		.uleb128 0x17
 826 03a4 AE030000 		.4byte	0x3ae
 827 03a8 17       		.uleb128 0x17
 828 03a9 90000000 		.4byte	0x90
 829 03ad 00       		.byte	0
 830 03ae 18       		.uleb128 0x18
 831 03af 04       		.byte	0x4
 832 03b0 C5010000 		.4byte	0x1c5
 833 03b4 19       		.uleb128 0x19
 834 03b5 01       		.byte	0x1
 835 03b6 5F030000 		.4byte	.LASF41
 836 03ba 05       		.byte	0x5
 837 03bb 07       		.byte	0x7
 838 03bc 01       		.byte	0x1
 839 03bd 01       		.byte	0x1
 840 03be C8030000 		.4byte	0x3c8
 841 03c2 17       		.uleb128 0x17
 842 03c3 AE030000 		.4byte	0x3ae
 843 03c7 00       		.byte	0
 844 03c8 1A       		.uleb128 0x1a
 845 03c9 01       		.byte	0x1
 846 03ca 16030000 		.4byte	.LASF42
 847 03ce 06       		.byte	0x6
 848 03cf 9A01     		.2byte	0x19a
 849 03d1 01       		.byte	0x1
ARM GAS  C:\Users\tom\AppData\Local\Temp\ccEwUWak.s 			page 17


 850 03d2 01       		.byte	0x1
 851 03d3 E2030000 		.4byte	0x3e2
 852 03d7 17       		.uleb128 0x17
 853 03d8 AE030000 		.4byte	0x3ae
 854 03dc 17       		.uleb128 0x17
 855 03dd 90000000 		.4byte	0x90
 856 03e1 00       		.byte	0
 857 03e2 1B       		.uleb128 0x1b
 858 03e3 01       		.byte	0x1
 859 03e4 FB000000 		.4byte	.LASF44
 860 03e8 08       		.byte	0x8
 861 03e9 0C       		.byte	0xc
 862 03ea 01       		.byte	0x1
 863 03eb 01       		.byte	0x1
 864 03ec 1A       		.uleb128 0x1a
 865 03ed 01       		.byte	0x1
 866 03ee 97010000 		.4byte	.LASF43
 867 03f2 07       		.byte	0x7
 868 03f3 AA01     		.2byte	0x1aa
 869 03f5 01       		.byte	0x1
 870 03f6 01       		.byte	0x1
 871 03f7 01040000 		.4byte	0x401
 872 03fb 17       		.uleb128 0x17
 873 03fc A6000000 		.4byte	0xa6
 874 0400 00       		.byte	0
 875 0401 1B       		.uleb128 0x1b
 876 0402 01       		.byte	0x1
 877 0403 09020000 		.4byte	.LASF45
 878 0407 09       		.byte	0x9
 879 0408 10       		.byte	0x10
 880 0409 01       		.byte	0x1
 881 040a 01       		.byte	0x1
 882 040b 00       		.byte	0
 883              		.section	.debug_abbrev,"",%progbits
 884              	.Ldebug_abbrev0:
 885 0000 01       		.uleb128 0x1
 886 0001 11       		.uleb128 0x11
 887 0002 01       		.byte	0x1
 888 0003 25       		.uleb128 0x25
 889 0004 0E       		.uleb128 0xe
 890 0005 13       		.uleb128 0x13
 891 0006 0B       		.uleb128 0xb
 892 0007 03       		.uleb128 0x3
 893 0008 0E       		.uleb128 0xe
 894 0009 1B       		.uleb128 0x1b
 895 000a 0E       		.uleb128 0xe
 896 000b 55       		.uleb128 0x55
 897 000c 06       		.uleb128 0x6
 898 000d 11       		.uleb128 0x11
 899 000e 01       		.uleb128 0x1
 900 000f 52       		.uleb128 0x52
 901 0010 01       		.uleb128 0x1
 902 0011 10       		.uleb128 0x10
 903 0012 06       		.uleb128 0x6
 904 0013 00       		.byte	0
 905 0014 00       		.byte	0
 906 0015 02       		.uleb128 0x2
ARM GAS  C:\Users\tom\AppData\Local\Temp\ccEwUWak.s 			page 18


 907 0016 24       		.uleb128 0x24
 908 0017 00       		.byte	0
 909 0018 0B       		.uleb128 0xb
 910 0019 0B       		.uleb128 0xb
 911 001a 3E       		.uleb128 0x3e
 912 001b 0B       		.uleb128 0xb
 913 001c 03       		.uleb128 0x3
 914 001d 0E       		.uleb128 0xe
 915 001e 00       		.byte	0
 916 001f 00       		.byte	0
 917 0020 03       		.uleb128 0x3
 918 0021 16       		.uleb128 0x16
 919 0022 00       		.byte	0
 920 0023 03       		.uleb128 0x3
 921 0024 0E       		.uleb128 0xe
 922 0025 3A       		.uleb128 0x3a
 923 0026 0B       		.uleb128 0xb
 924 0027 3B       		.uleb128 0x3b
 925 0028 0B       		.uleb128 0xb
 926 0029 49       		.uleb128 0x49
 927 002a 13       		.uleb128 0x13
 928 002b 00       		.byte	0
 929 002c 00       		.byte	0
 930 002d 04       		.uleb128 0x4
 931 002e 24       		.uleb128 0x24
 932 002f 00       		.byte	0
 933 0030 0B       		.uleb128 0xb
 934 0031 0B       		.uleb128 0xb
 935 0032 3E       		.uleb128 0x3e
 936 0033 0B       		.uleb128 0xb
 937 0034 03       		.uleb128 0x3
 938 0035 08       		.uleb128 0x8
 939 0036 00       		.byte	0
 940 0037 00       		.byte	0
 941 0038 05       		.uleb128 0x5
 942 0039 35       		.uleb128 0x35
 943 003a 00       		.byte	0
 944 003b 49       		.uleb128 0x49
 945 003c 13       		.uleb128 0x13
 946 003d 00       		.byte	0
 947 003e 00       		.byte	0
 948 003f 06       		.uleb128 0x6
 949 0040 04       		.uleb128 0x4
 950 0041 01       		.byte	0x1
 951 0042 0B       		.uleb128 0xb
 952 0043 0B       		.uleb128 0xb
 953 0044 3A       		.uleb128 0x3a
 954 0045 0B       		.uleb128 0xb
 955 0046 3B       		.uleb128 0x3b
 956 0047 05       		.uleb128 0x5
 957 0048 01       		.uleb128 0x1
 958 0049 13       		.uleb128 0x13
 959 004a 00       		.byte	0
 960 004b 00       		.byte	0
 961 004c 07       		.uleb128 0x7
 962 004d 28       		.uleb128 0x28
 963 004e 00       		.byte	0
ARM GAS  C:\Users\tom\AppData\Local\Temp\ccEwUWak.s 			page 19


 964 004f 03       		.uleb128 0x3
 965 0050 0E       		.uleb128 0xe
 966 0051 1C       		.uleb128 0x1c
 967 0052 0D       		.uleb128 0xd
 968 0053 00       		.byte	0
 969 0054 00       		.byte	0
 970 0055 08       		.uleb128 0x8
 971 0056 28       		.uleb128 0x28
 972 0057 00       		.byte	0
 973 0058 03       		.uleb128 0x3
 974 0059 08       		.uleb128 0x8
 975 005a 1C       		.uleb128 0x1c
 976 005b 0D       		.uleb128 0xd
 977 005c 00       		.byte	0
 978 005d 00       		.byte	0
 979 005e 09       		.uleb128 0x9
 980 005f 16       		.uleb128 0x16
 981 0060 00       		.byte	0
 982 0061 03       		.uleb128 0x3
 983 0062 0E       		.uleb128 0xe
 984 0063 3A       		.uleb128 0x3a
 985 0064 0B       		.uleb128 0xb
 986 0065 3B       		.uleb128 0x3b
 987 0066 05       		.uleb128 0x5
 988 0067 49       		.uleb128 0x49
 989 0068 13       		.uleb128 0x13
 990 0069 00       		.byte	0
 991 006a 00       		.byte	0
 992 006b 0A       		.uleb128 0xa
 993 006c 13       		.uleb128 0x13
 994 006d 01       		.byte	0x1
 995 006e 0B       		.uleb128 0xb
 996 006f 0B       		.uleb128 0xb
 997 0070 3A       		.uleb128 0x3a
 998 0071 0B       		.uleb128 0xb
 999 0072 3B       		.uleb128 0x3b
 1000 0073 05       		.uleb128 0x5
 1001 0074 01       		.uleb128 0x1
 1002 0075 13       		.uleb128 0x13
 1003 0076 00       		.byte	0
 1004 0077 00       		.byte	0
 1005 0078 0B       		.uleb128 0xb
 1006 0079 0D       		.uleb128 0xd
 1007 007a 00       		.byte	0
 1008 007b 03       		.uleb128 0x3
 1009 007c 08       		.uleb128 0x8
 1010 007d 3A       		.uleb128 0x3a
 1011 007e 0B       		.uleb128 0xb
 1012 007f 3B       		.uleb128 0x3b
 1013 0080 05       		.uleb128 0x5
 1014 0081 49       		.uleb128 0x49
 1015 0082 13       		.uleb128 0x13
 1016 0083 38       		.uleb128 0x38
 1017 0084 0A       		.uleb128 0xa
 1018 0085 00       		.byte	0
 1019 0086 00       		.byte	0
 1020 0087 0C       		.uleb128 0xc
ARM GAS  C:\Users\tom\AppData\Local\Temp\ccEwUWak.s 			page 20


 1021 0088 0D       		.uleb128 0xd
 1022 0089 00       		.byte	0
 1023 008a 03       		.uleb128 0x3
 1024 008b 0E       		.uleb128 0xe
 1025 008c 3A       		.uleb128 0x3a
 1026 008d 0B       		.uleb128 0xb
 1027 008e 3B       		.uleb128 0x3b
 1028 008f 05       		.uleb128 0x5
 1029 0090 49       		.uleb128 0x49
 1030 0091 13       		.uleb128 0x13
 1031 0092 38       		.uleb128 0x38
 1032 0093 0A       		.uleb128 0xa
 1033 0094 00       		.byte	0
 1034 0095 00       		.byte	0
 1035 0096 0D       		.uleb128 0xd
 1036 0097 2E       		.uleb128 0x2e
 1037 0098 00       		.byte	0
 1038 0099 3F       		.uleb128 0x3f
 1039 009a 0C       		.uleb128 0xc
 1040 009b 03       		.uleb128 0x3
 1041 009c 0E       		.uleb128 0xe
 1042 009d 3A       		.uleb128 0x3a
 1043 009e 0B       		.uleb128 0xb
 1044 009f 3B       		.uleb128 0x3b
 1045 00a0 0B       		.uleb128 0xb
 1046 00a1 27       		.uleb128 0x27
 1047 00a2 0C       		.uleb128 0xc
 1048 00a3 49       		.uleb128 0x49
 1049 00a4 13       		.uleb128 0x13
 1050 00a5 11       		.uleb128 0x11
 1051 00a6 01       		.uleb128 0x1
 1052 00a7 12       		.uleb128 0x12
 1053 00a8 01       		.uleb128 0x1
 1054 00a9 40       		.uleb128 0x40
 1055 00aa 0A       		.uleb128 0xa
 1056 00ab 9742     		.uleb128 0x2117
 1057 00ad 0C       		.uleb128 0xc
 1058 00ae 00       		.byte	0
 1059 00af 00       		.byte	0
 1060 00b0 0E       		.uleb128 0xe
 1061 00b1 2E       		.uleb128 0x2e
 1062 00b2 01       		.byte	0x1
 1063 00b3 3F       		.uleb128 0x3f
 1064 00b4 0C       		.uleb128 0xc
 1065 00b5 03       		.uleb128 0x3
 1066 00b6 0E       		.uleb128 0xe
 1067 00b7 3A       		.uleb128 0x3a
 1068 00b8 0B       		.uleb128 0xb
 1069 00b9 3B       		.uleb128 0x3b
 1070 00ba 0B       		.uleb128 0xb
 1071 00bb 27       		.uleb128 0x27
 1072 00bc 0C       		.uleb128 0xc
 1073 00bd 11       		.uleb128 0x11
 1074 00be 01       		.uleb128 0x1
 1075 00bf 12       		.uleb128 0x12
 1076 00c0 01       		.uleb128 0x1
 1077 00c1 40       		.uleb128 0x40
ARM GAS  C:\Users\tom\AppData\Local\Temp\ccEwUWak.s 			page 21


 1078 00c2 06       		.uleb128 0x6
 1079 00c3 9742     		.uleb128 0x2117
 1080 00c5 0C       		.uleb128 0xc
 1081 00c6 01       		.uleb128 0x1
 1082 00c7 13       		.uleb128 0x13
 1083 00c8 00       		.byte	0
 1084 00c9 00       		.byte	0
 1085 00ca 0F       		.uleb128 0xf
 1086 00cb 898201   		.uleb128 0x4109
 1087 00ce 01       		.byte	0x1
 1088 00cf 11       		.uleb128 0x11
 1089 00d0 01       		.uleb128 0x1
 1090 00d1 31       		.uleb128 0x31
 1091 00d2 13       		.uleb128 0x13
 1092 00d3 01       		.uleb128 0x1
 1093 00d4 13       		.uleb128 0x13
 1094 00d5 00       		.byte	0
 1095 00d6 00       		.byte	0
 1096 00d7 10       		.uleb128 0x10
 1097 00d8 8A8201   		.uleb128 0x410a
 1098 00db 00       		.byte	0
 1099 00dc 02       		.uleb128 0x2
 1100 00dd 0A       		.uleb128 0xa
 1101 00de 9142     		.uleb128 0x2111
 1102 00e0 0A       		.uleb128 0xa
 1103 00e1 00       		.byte	0
 1104 00e2 00       		.byte	0
 1105 00e3 11       		.uleb128 0x11
 1106 00e4 898201   		.uleb128 0x4109
 1107 00e7 01       		.byte	0x1
 1108 00e8 11       		.uleb128 0x11
 1109 00e9 01       		.uleb128 0x1
 1110 00ea 9542     		.uleb128 0x2115
 1111 00ec 0C       		.uleb128 0xc
 1112 00ed 31       		.uleb128 0x31
 1113 00ee 13       		.uleb128 0x13
 1114 00ef 00       		.byte	0
 1115 00f0 00       		.byte	0
 1116 00f1 12       		.uleb128 0x12
 1117 00f2 898201   		.uleb128 0x4109
 1118 00f5 00       		.byte	0
 1119 00f6 11       		.uleb128 0x11
 1120 00f7 01       		.uleb128 0x1
 1121 00f8 31       		.uleb128 0x31
 1122 00f9 13       		.uleb128 0x13
 1123 00fa 00       		.byte	0
 1124 00fb 00       		.byte	0
 1125 00fc 13       		.uleb128 0x13
 1126 00fd 2E       		.uleb128 0x2e
 1127 00fe 00       		.byte	0
 1128 00ff 3F       		.uleb128 0x3f
 1129 0100 0C       		.uleb128 0xc
 1130 0101 03       		.uleb128 0x3
 1131 0102 0E       		.uleb128 0xe
 1132 0103 3A       		.uleb128 0x3a
 1133 0104 0B       		.uleb128 0xb
 1134 0105 3B       		.uleb128 0x3b
ARM GAS  C:\Users\tom\AppData\Local\Temp\ccEwUWak.s 			page 22


 1135 0106 0B       		.uleb128 0xb
 1136 0107 27       		.uleb128 0x27
 1137 0108 0C       		.uleb128 0xc
 1138 0109 11       		.uleb128 0x11
 1139 010a 01       		.uleb128 0x1
 1140 010b 12       		.uleb128 0x12
 1141 010c 01       		.uleb128 0x1
 1142 010d 40       		.uleb128 0x40
 1143 010e 0A       		.uleb128 0xa
 1144 010f 9742     		.uleb128 0x2117
 1145 0111 0C       		.uleb128 0xc
 1146 0112 00       		.byte	0
 1147 0113 00       		.byte	0
 1148 0114 14       		.uleb128 0x14
 1149 0115 34       		.uleb128 0x34
 1150 0116 00       		.byte	0
 1151 0117 03       		.uleb128 0x3
 1152 0118 0E       		.uleb128 0xe
 1153 0119 3A       		.uleb128 0x3a
 1154 011a 0B       		.uleb128 0xb
 1155 011b 3B       		.uleb128 0x3b
 1156 011c 0B       		.uleb128 0xb
 1157 011d 49       		.uleb128 0x49
 1158 011e 13       		.uleb128 0x13
 1159 011f 02       		.uleb128 0x2
 1160 0120 0A       		.uleb128 0xa
 1161 0121 00       		.byte	0
 1162 0122 00       		.byte	0
 1163 0123 15       		.uleb128 0x15
 1164 0124 34       		.uleb128 0x34
 1165 0125 00       		.byte	0
 1166 0126 03       		.uleb128 0x3
 1167 0127 0E       		.uleb128 0xe
 1168 0128 3A       		.uleb128 0x3a
 1169 0129 0B       		.uleb128 0xb
 1170 012a 3B       		.uleb128 0x3b
 1171 012b 05       		.uleb128 0x5
 1172 012c 49       		.uleb128 0x49
 1173 012d 13       		.uleb128 0x13
 1174 012e 3F       		.uleb128 0x3f
 1175 012f 0C       		.uleb128 0xc
 1176 0130 3C       		.uleb128 0x3c
 1177 0131 0C       		.uleb128 0xc
 1178 0132 00       		.byte	0
 1179 0133 00       		.byte	0
 1180 0134 16       		.uleb128 0x16
 1181 0135 2E       		.uleb128 0x2e
 1182 0136 01       		.byte	0x1
 1183 0137 3F       		.uleb128 0x3f
 1184 0138 0C       		.uleb128 0xc
 1185 0139 03       		.uleb128 0x3
 1186 013a 0E       		.uleb128 0xe
 1187 013b 3A       		.uleb128 0x3a
 1188 013c 0B       		.uleb128 0xb
 1189 013d 3B       		.uleb128 0x3b
 1190 013e 05       		.uleb128 0x5
 1191 013f 27       		.uleb128 0x27
ARM GAS  C:\Users\tom\AppData\Local\Temp\ccEwUWak.s 			page 23


 1192 0140 0C       		.uleb128 0xc
 1193 0141 49       		.uleb128 0x49
 1194 0142 13       		.uleb128 0x13
 1195 0143 3C       		.uleb128 0x3c
 1196 0144 0C       		.uleb128 0xc
 1197 0145 01       		.uleb128 0x1
 1198 0146 13       		.uleb128 0x13
 1199 0147 00       		.byte	0
 1200 0148 00       		.byte	0
 1201 0149 17       		.uleb128 0x17
 1202 014a 05       		.uleb128 0x5
 1203 014b 00       		.byte	0
 1204 014c 49       		.uleb128 0x49
 1205 014d 13       		.uleb128 0x13
 1206 014e 00       		.byte	0
 1207 014f 00       		.byte	0
 1208 0150 18       		.uleb128 0x18
 1209 0151 0F       		.uleb128 0xf
 1210 0152 00       		.byte	0
 1211 0153 0B       		.uleb128 0xb
 1212 0154 0B       		.uleb128 0xb
 1213 0155 49       		.uleb128 0x49
 1214 0156 13       		.uleb128 0x13
 1215 0157 00       		.byte	0
 1216 0158 00       		.byte	0
 1217 0159 19       		.uleb128 0x19
 1218 015a 2E       		.uleb128 0x2e
 1219 015b 01       		.byte	0x1
 1220 015c 3F       		.uleb128 0x3f
 1221 015d 0C       		.uleb128 0xc
 1222 015e 03       		.uleb128 0x3
 1223 015f 0E       		.uleb128 0xe
 1224 0160 3A       		.uleb128 0x3a
 1225 0161 0B       		.uleb128 0xb
 1226 0162 3B       		.uleb128 0x3b
 1227 0163 0B       		.uleb128 0xb
 1228 0164 27       		.uleb128 0x27
 1229 0165 0C       		.uleb128 0xc
 1230 0166 3C       		.uleb128 0x3c
 1231 0167 0C       		.uleb128 0xc
 1232 0168 01       		.uleb128 0x1
 1233 0169 13       		.uleb128 0x13
 1234 016a 00       		.byte	0
 1235 016b 00       		.byte	0
 1236 016c 1A       		.uleb128 0x1a
 1237 016d 2E       		.uleb128 0x2e
 1238 016e 01       		.byte	0x1
 1239 016f 3F       		.uleb128 0x3f
 1240 0170 0C       		.uleb128 0xc
 1241 0171 03       		.uleb128 0x3
 1242 0172 0E       		.uleb128 0xe
 1243 0173 3A       		.uleb128 0x3a
 1244 0174 0B       		.uleb128 0xb
 1245 0175 3B       		.uleb128 0x3b
 1246 0176 05       		.uleb128 0x5
 1247 0177 27       		.uleb128 0x27
 1248 0178 0C       		.uleb128 0xc
ARM GAS  C:\Users\tom\AppData\Local\Temp\ccEwUWak.s 			page 24


 1249 0179 3C       		.uleb128 0x3c
 1250 017a 0C       		.uleb128 0xc
 1251 017b 01       		.uleb128 0x1
 1252 017c 13       		.uleb128 0x13
 1253 017d 00       		.byte	0
 1254 017e 00       		.byte	0
 1255 017f 1B       		.uleb128 0x1b
 1256 0180 2E       		.uleb128 0x2e
 1257 0181 00       		.byte	0
 1258 0182 3F       		.uleb128 0x3f
 1259 0183 0C       		.uleb128 0xc
 1260 0184 03       		.uleb128 0x3
 1261 0185 0E       		.uleb128 0xe
 1262 0186 3A       		.uleb128 0x3a
 1263 0187 0B       		.uleb128 0xb
 1264 0188 3B       		.uleb128 0x3b
 1265 0189 0B       		.uleb128 0xb
 1266 018a 27       		.uleb128 0x27
 1267 018b 0C       		.uleb128 0xc
 1268 018c 3C       		.uleb128 0x3c
 1269 018d 0C       		.uleb128 0xc
 1270 018e 00       		.byte	0
 1271 018f 00       		.byte	0
 1272 0190 00       		.byte	0
 1273              		.section	.debug_loc,"",%progbits
 1274              	.Ldebug_loc0:
 1275              	.LLST0:
 1276 0000 00000000 		.4byte	.LFB57
 1277 0004 02000000 		.4byte	.LCFI0
 1278 0008 0200     		.2byte	0x2
 1279 000a 7D       		.byte	0x7d
 1280 000b 00       		.sleb128 0
 1281 000c 02000000 		.4byte	.LCFI0
 1282 0010 18000000 		.4byte	.LCFI1
 1283 0014 0200     		.2byte	0x2
 1284 0016 7D       		.byte	0x7d
 1285 0017 08       		.sleb128 8
 1286 0018 18000000 		.4byte	.LCFI1
 1287 001c 22000000 		.4byte	.LCFI2
 1288 0020 0200     		.2byte	0x2
 1289 0022 7D       		.byte	0x7d
 1290 0023 00       		.sleb128 0
 1291 0024 22000000 		.4byte	.LCFI2
 1292 0028 28000000 		.4byte	.LFE57
 1293 002c 0200     		.2byte	0x2
 1294 002e 7D       		.byte	0x7d
 1295 002f 08       		.sleb128 8
 1296 0030 00000000 		.4byte	0
 1297 0034 00000000 		.4byte	0
 1298              	.LLST1:
 1299 0038 00000000 		.4byte	.LFB58
 1300 003c 02000000 		.4byte	.LCFI3
 1301 0040 0200     		.2byte	0x2
 1302 0042 7D       		.byte	0x7d
 1303 0043 00       		.sleb128 0
 1304 0044 02000000 		.4byte	.LCFI3
 1305 0048 0A000000 		.4byte	.LCFI4
ARM GAS  C:\Users\tom\AppData\Local\Temp\ccEwUWak.s 			page 25


 1306 004c 0200     		.2byte	0x2
 1307 004e 7D       		.byte	0x7d
 1308 004f 08       		.sleb128 8
 1309 0050 0A000000 		.4byte	.LCFI4
 1310 0054 10000000 		.4byte	.LFE58
 1311 0058 0200     		.2byte	0x2
 1312 005a 7D       		.byte	0x7d
 1313 005b 00       		.sleb128 0
 1314 005c 00000000 		.4byte	0
 1315 0060 00000000 		.4byte	0
 1316              	.LLST2:
 1317 0064 00000000 		.4byte	.LFB59
 1318 0068 02000000 		.4byte	.LCFI5
 1319 006c 0200     		.2byte	0x2
 1320 006e 7D       		.byte	0x7d
 1321 006f 00       		.sleb128 0
 1322 0070 02000000 		.4byte	.LCFI5
 1323 0074 14000000 		.4byte	.LFE59
 1324 0078 0200     		.2byte	0x2
 1325 007a 7D       		.byte	0x7d
 1326 007b 08       		.sleb128 8
 1327 007c 00000000 		.4byte	0
 1328 0080 00000000 		.4byte	0
 1329              		.section	.debug_aranges,"",%progbits
 1330 0000 7C000000 		.4byte	0x7c
 1331 0004 0200     		.2byte	0x2
 1332 0006 00000000 		.4byte	.Ldebug_info0
 1333 000a 04       		.byte	0x4
 1334 000b 00       		.byte	0
 1335 000c 0000     		.2byte	0
 1336 000e 0000     		.2byte	0
 1337 0010 00000000 		.4byte	.LFB56
 1338 0014 0C000000 		.4byte	.LFE56-.LFB56
 1339 0018 00000000 		.4byte	.LFB57
 1340 001c 28000000 		.4byte	.LFE57-.LFB57
 1341 0020 00000000 		.4byte	.LFB58
 1342 0024 10000000 		.4byte	.LFE58-.LFB58
 1343 0028 00000000 		.4byte	.LFB59
 1344 002c 14000000 		.4byte	.LFE59-.LFB59
 1345 0030 00000000 		.4byte	.LFB60
 1346 0034 02000000 		.4byte	.LFE60-.LFB60
 1347 0038 00000000 		.4byte	.LFB61
 1348 003c 02000000 		.4byte	.LFE61-.LFB61
 1349 0040 00000000 		.4byte	.LFB62
 1350 0044 02000000 		.4byte	.LFE62-.LFB62
 1351 0048 00000000 		.4byte	.LFB63
 1352 004c 02000000 		.4byte	.LFE63-.LFB63
 1353 0050 00000000 		.4byte	.LFB64
 1354 0054 02000000 		.4byte	.LFE64-.LFB64
 1355 0058 00000000 		.4byte	.LFB65
 1356 005c 02000000 		.4byte	.LFE65-.LFB65
 1357 0060 00000000 		.4byte	.LFB66
 1358 0064 02000000 		.4byte	.LFE66-.LFB66
 1359 0068 00000000 		.4byte	.LFB67
 1360 006c 02000000 		.4byte	.LFE67-.LFB67
 1361 0070 00000000 		.4byte	.LFB68
 1362 0074 02000000 		.4byte	.LFE68-.LFB68
ARM GAS  C:\Users\tom\AppData\Local\Temp\ccEwUWak.s 			page 26


 1363 0078 00000000 		.4byte	0
 1364 007c 00000000 		.4byte	0
 1365              		.section	.debug_ranges,"",%progbits
 1366              	.Ldebug_ranges0:
 1367 0000 00000000 		.4byte	.LFB56
 1368 0004 0C000000 		.4byte	.LFE56
 1369 0008 00000000 		.4byte	.LFB57
 1370 000c 28000000 		.4byte	.LFE57
 1371 0010 00000000 		.4byte	.LFB58
 1372 0014 10000000 		.4byte	.LFE58
 1373 0018 00000000 		.4byte	.LFB59
 1374 001c 14000000 		.4byte	.LFE59
 1375 0020 00000000 		.4byte	.LFB60
 1376 0024 02000000 		.4byte	.LFE60
 1377 0028 00000000 		.4byte	.LFB61
 1378 002c 02000000 		.4byte	.LFE61
 1379 0030 00000000 		.4byte	.LFB62
 1380 0034 02000000 		.4byte	.LFE62
 1381 0038 00000000 		.4byte	.LFB63
 1382 003c 02000000 		.4byte	.LFE63
 1383 0040 00000000 		.4byte	.LFB64
 1384 0044 02000000 		.4byte	.LFE64
 1385 0048 00000000 		.4byte	.LFB65
 1386 004c 02000000 		.4byte	.LFE65
 1387 0050 00000000 		.4byte	.LFB66
 1388 0054 02000000 		.4byte	.LFE66
 1389 0058 00000000 		.4byte	.LFB67
 1390 005c 02000000 		.4byte	.LFE67
 1391 0060 00000000 		.4byte	.LFB68
 1392 0064 02000000 		.4byte	.LFE68
 1393 0068 00000000 		.4byte	0
 1394 006c 00000000 		.4byte	0
 1395              		.section	.debug_line,"",%progbits
 1396              	.Ldebug_line0:
 1397 0000 3F020000 		.section	.debug_str,"MS",%progbits,1
 1397      02005A01 
 1397      00000201 
 1397      FB0E0D00 
 1397      01010101 
 1398              	.LASF24:
 1399 0000 52455345 		.ascii	"RESERVED5\000"
 1399      52564544 
 1399      3500
 1400              	.LASF50:
 1401 000a 675F6D73 		.ascii	"g_ms_counter\000"
 1401      5F636F75 
 1401      6E746572 
 1401      00
 1402              	.LASF32:
 1403 0017 5050505F 		.ascii	"PPP_IRQHandler\000"
 1403      49525148 
 1403      616E646C 
 1403      657200
 1404              	.LASF18:
 1405 0026 49545374 		.ascii	"ITStatus\000"
 1405      61747573 
 1405      00
ARM GAS  C:\Users\tom\AppData\Local\Temp\ccEwUWak.s 			page 27


 1406              	.LASF46:
 1407 002f 474E5520 		.ascii	"GNU C 4.9.3 20150303 (release) [ARM/embedded-4_9-br"
 1407      4320342E 
 1407      392E3320 
 1407      32303135 
 1407      30333033 
 1408 0062 616E6368 		.ascii	"anch revision 221220] -mcpu=cortex-m3 -mthumb -g -g"
 1408      20726576 
 1408      6973696F 
 1408      6E203232 
 1408      31323230 
 1409 0095 64776172 		.ascii	"dwarf-2 -Os -std=gnu99 -ffunction-sections -fdata-s"
 1409      662D3220 
 1409      2D4F7320 
 1409      2D737464 
 1409      3D676E75 
 1410 00c8 65637469 		.ascii	"ections\000"
 1410      6F6E7300 
 1411              	.LASF5:
 1412 00d0 5F5F696E 		.ascii	"__int32_t\000"
 1412      7433325F 
 1412      7400
 1413              	.LASF39:
 1414 00da 44656275 		.ascii	"DebugMon_Handler\000"
 1414      674D6F6E 
 1414      5F48616E 
 1414      646C6572 
 1414      00
 1415              	.LASF31:
 1416 00eb 53797354 		.ascii	"SysTick_Handler\000"
 1416      69636B5F 
 1416      48616E64 
 1416      6C657200 
 1417              	.LASF44:
 1418 00fb 41444344 		.ascii	"ADCDMA_Conv_Complete_IRQHandler\000"
 1418      4D415F43 
 1418      6F6E765F 
 1418      436F6D70 
 1418      6C657465 
 1419              	.LASF27:
 1420 011b 55534152 		.ascii	"USART_TypeDef\000"
 1420      545F5479 
 1420      70654465 
 1420      6600
 1421              	.LASF48:
 1422 0129 443A5C77 		.ascii	"D:\\work\\__my_github\\diy\\battery_analyzer\\firmw"
 1422      6F726B5C 
 1422      5F5F6D79 
 1422      5F676974 
 1422      6875625C 
 1423 0157 61726500 		.ascii	"are\000"
 1424              	.LASF19:
 1425 015b 52455345 		.ascii	"RESERVED0\000"
 1425      52564544 
 1425      3000
 1426              	.LASF20:
 1427 0165 52455345 		.ascii	"RESERVED1\000"
ARM GAS  C:\Users\tom\AppData\Local\Temp\ccEwUWak.s 			page 28


 1427      52564544 
 1427      3100
 1428              	.LASF21:
 1429 016f 52455345 		.ascii	"RESERVED2\000"
 1429      52564544 
 1429      3200
 1430              	.LASF22:
 1431 0179 52455345 		.ascii	"RESERVED3\000"
 1431      52564544 
 1431      3300
 1432              	.LASF23:
 1433 0183 52455345 		.ascii	"RESERVED4\000"
 1433      52564544 
 1433      3400
 1434              	.LASF26:
 1435 018d 52455345 		.ascii	"RESERVED6\000"
 1435      52564544 
 1435      3600
 1436              	.LASF43:
 1437 0197 444D415F 		.ascii	"DMA_ClearITPendingBit\000"
 1437      436C6561 
 1437      72495450 
 1437      656E6469 
 1437      6E674269 
 1438              	.LASF28:
 1439 01ad 666C6F61 		.ascii	"float\000"
 1439      7400
 1440              	.LASF10:
 1441 01b3 6C6F6E67 		.ascii	"long long unsigned int\000"
 1441      206C6F6E 
 1441      6720756E 
 1441      7369676E 
 1441      65642069 
 1442              	.LASF1:
 1443 01ca 756E7369 		.ascii	"unsigned char\000"
 1443      676E6564 
 1443      20636861 
 1443      7200
 1444              	.LASF30:
 1445 01d8 444D4131 		.ascii	"DMA1_Channel1_IRQHandler\000"
 1445      5F436861 
 1445      6E6E656C 
 1445      315F4952 
 1445      5148616E 
 1446              	.LASF8:
 1447 01f1 6C6F6E67 		.ascii	"long unsigned int\000"
 1447      20756E73 
 1447      69676E65 
 1447      6420696E 
 1447      7400
 1448              	.LASF17:
 1449 0203 52455345 		.ascii	"RESET\000"
 1449      5400
 1450              	.LASF45:
 1451 0209 5F64656C 		.ascii	"_delay_nms_mm\000"
 1451      61795F6E 
 1451      6D735F6D 
ARM GAS  C:\Users\tom\AppData\Local\Temp\ccEwUWak.s 			page 29


 1451      6D00
 1452              	.LASF51:
 1453 0217 49544D5F 		.ascii	"ITM_RxBuffer\000"
 1453      52784275 
 1453      66666572 
 1453      00
 1454              	.LASF4:
 1455 0224 5F5F7569 		.ascii	"__uint16_t\000"
 1455      6E743136 
 1455      5F7400
 1456              	.LASF7:
 1457 022f 5F5F7569 		.ascii	"__uint32_t\000"
 1457      6E743332 
 1457      5F7400
 1458              	.LASF25:
 1459 023a 47545052 		.ascii	"GTPR\000"
 1459      00
 1460              	.LASF11:
 1461 023f 756E7369 		.ascii	"unsigned int\000"
 1461      676E6564 
 1461      20696E74 
 1461      00
 1462              	.LASF16:
 1463 024c 63686172 		.ascii	"char\000"
 1463      00
 1464              	.LASF33:
 1465 0251 4E4D495F 		.ascii	"NMI_Handler\000"
 1465      48616E64 
 1465      6C657200 
 1466              	.LASF35:
 1467 025d 4D656D4D 		.ascii	"MemManage_Handler\000"
 1467      616E6167 
 1467      655F4861 
 1467      6E646C65 
 1467      7200
 1468              	.LASF29:
 1469 026f 55534152 		.ascii	"USART1_IRQHandler\000"
 1469      54315F49 
 1469      52514861 
 1469      6E646C65 
 1469      7200
 1470              	.LASF37:
 1471 0281 55736167 		.ascii	"UsageFault_Handler\000"
 1471      65466175 
 1471      6C745F48 
 1471      616E646C 
 1471      657200
 1472              	.LASF13:
 1473 0294 696E7433 		.ascii	"int32_t\000"
 1473      325F7400 
 1474              	.LASF15:
 1475 029c 73697A65 		.ascii	"sizetype\000"
 1475      74797065 
 1475      00
 1476              	.LASF9:
 1477 02a5 6C6F6E67 		.ascii	"long long int\000"
 1477      206C6F6E 
ARM GAS  C:\Users\tom\AppData\Local\Temp\ccEwUWak.s 			page 30


 1477      6720696E 
 1477      7400
 1478              	.LASF34:
 1479 02b3 48617264 		.ascii	"HardFault_Handler\000"
 1479      4661756C 
 1479      745F4861 
 1479      6E646C65 
 1479      7200
 1480              	.LASF38:
 1481 02c5 5356435F 		.ascii	"SVC_Handler\000"
 1481      48616E64 
 1481      6C657200 
 1482              	.LASF36:
 1483 02d1 42757346 		.ascii	"BusFault_Handler\000"
 1483      61756C74 
 1483      5F48616E 
 1483      646C6572 
 1483      00
 1484              	.LASF12:
 1485 02e2 75696E74 		.ascii	"uint16_t\000"
 1485      31365F74 
 1485      00
 1486              	.LASF2:
 1487 02eb 73686F72 		.ascii	"short int\000"
 1487      7420696E 
 1487      7400
 1488              	.LASF40:
 1489 02f5 50656E64 		.ascii	"PendSV_Handler\000"
 1489      53565F48 
 1489      616E646C 
 1489      657200
 1490              	.LASF52:
 1491 0304 55534152 		.ascii	"USART_GetITStatus\000"
 1491      545F4765 
 1491      74495453 
 1491      74617475 
 1491      7300
 1492              	.LASF42:
 1493 0316 55534152 		.ascii	"USART_ClearITPendingBit\000"
 1493      545F436C 
 1493      65617249 
 1493      5450656E 
 1493      64696E67 
 1494              	.LASF14:
 1495 032e 75696E74 		.ascii	"uint32_t\000"
 1495      33325F74 
 1495      00
 1496              	.LASF6:
 1497 0337 6C6F6E67 		.ascii	"long int\000"
 1497      20696E74 
 1497      00
 1498              	.LASF0:
 1499 0340 7369676E 		.ascii	"signed char\000"
 1499      65642063 
 1499      68617200 
 1500              	.LASF3:
 1501 034c 73686F72 		.ascii	"short unsigned int\000"
ARM GAS  C:\Users\tom\AppData\Local\Temp\ccEwUWak.s 			page 31


 1501      7420756E 
 1501      7369676E 
 1501      65642069 
 1501      6E7400
 1502              	.LASF41:
 1503 035f 55534152 		.ascii	"USART_RX_IDLE_IRQHandler\000"
 1503      545F5258 
 1503      5F49444C 
 1503      455F4952 
 1503      5148616E 
 1504              	.LASF49:
 1505 0378 4765744D 		.ascii	"GetMsCounter\000"
 1505      73436F75 
 1505      6E746572 
 1505      00
 1506              	.LASF47:
 1507 0385 73746D33 		.ascii	"stm32f10x_it.c\000"
 1507      32663130 
 1507      785F6974 
 1507      2E6300
 1508              		.ident	"GCC: (GNU Tools for ARM Embedded Processors) 4.9.3 20150303 (release) [ARM/embedded-4_9-br
ARM GAS  C:\Users\tom\AppData\Local\Temp\ccEwUWak.s 			page 32


DEFINED SYMBOLS
                            *ABS*:00000000 stm32f10x_it.c
C:\Users\tom\AppData\Local\Temp\ccEwUWak.s:19     .text.GetMsCounter:00000000 $t
C:\Users\tom\AppData\Local\Temp\ccEwUWak.s:24     .text.GetMsCounter:00000000 GetMsCounter
C:\Users\tom\AppData\Local\Temp\ccEwUWak.s:39     .text.GetMsCounter:00000008 $d
C:\Users\tom\AppData\Local\Temp\ccEwUWak.s:44     .text.USART1_IRQHandler:00000000 $t
C:\Users\tom\AppData\Local\Temp\ccEwUWak.s:49     .text.USART1_IRQHandler:00000000 USART1_IRQHandler
C:\Users\tom\AppData\Local\Temp\ccEwUWak.s:89     .text.USART1_IRQHandler:00000024 $d
C:\Users\tom\AppData\Local\Temp\ccEwUWak.s:94     .text.DMA1_Channel1_IRQHandler:00000000 $t
C:\Users\tom\AppData\Local\Temp\ccEwUWak.s:99     .text.DMA1_Channel1_IRQHandler:00000000 DMA1_Channel1_IRQHandler
C:\Users\tom\AppData\Local\Temp\ccEwUWak.s:127    .text.SysTick_Handler:00000000 $t
C:\Users\tom\AppData\Local\Temp\ccEwUWak.s:132    .text.SysTick_Handler:00000000 SysTick_Handler
C:\Users\tom\AppData\Local\Temp\ccEwUWak.s:155    .text.SysTick_Handler:00000010 $d
C:\Users\tom\AppData\Local\Temp\ccEwUWak.s:160    .text.PPP_IRQHandler:00000000 $t
C:\Users\tom\AppData\Local\Temp\ccEwUWak.s:165    .text.PPP_IRQHandler:00000000 PPP_IRQHandler
C:\Users\tom\AppData\Local\Temp\ccEwUWak.s:177    .text.NMI_Handler:00000000 $t
C:\Users\tom\AppData\Local\Temp\ccEwUWak.s:182    .text.NMI_Handler:00000000 NMI_Handler
C:\Users\tom\AppData\Local\Temp\ccEwUWak.s:194    .text.HardFault_Handler:00000000 $t
C:\Users\tom\AppData\Local\Temp\ccEwUWak.s:199    .text.HardFault_Handler:00000000 HardFault_Handler
C:\Users\tom\AppData\Local\Temp\ccEwUWak.s:214    .text.MemManage_Handler:00000000 $t
C:\Users\tom\AppData\Local\Temp\ccEwUWak.s:219    .text.MemManage_Handler:00000000 MemManage_Handler
C:\Users\tom\AppData\Local\Temp\ccEwUWak.s:234    .text.BusFault_Handler:00000000 $t
C:\Users\tom\AppData\Local\Temp\ccEwUWak.s:239    .text.BusFault_Handler:00000000 BusFault_Handler
C:\Users\tom\AppData\Local\Temp\ccEwUWak.s:254    .text.UsageFault_Handler:00000000 $t
C:\Users\tom\AppData\Local\Temp\ccEwUWak.s:259    .text.UsageFault_Handler:00000000 UsageFault_Handler
C:\Users\tom\AppData\Local\Temp\ccEwUWak.s:274    .text.SVC_Handler:00000000 $t
C:\Users\tom\AppData\Local\Temp\ccEwUWak.s:279    .text.SVC_Handler:00000000 SVC_Handler
C:\Users\tom\AppData\Local\Temp\ccEwUWak.s:291    .text.DebugMon_Handler:00000000 $t
C:\Users\tom\AppData\Local\Temp\ccEwUWak.s:296    .text.DebugMon_Handler:00000000 DebugMon_Handler
C:\Users\tom\AppData\Local\Temp\ccEwUWak.s:308    .text.PendSV_Handler:00000000 $t
C:\Users\tom\AppData\Local\Temp\ccEwUWak.s:313    .text.PendSV_Handler:00000000 PendSV_Handler
C:\Users\tom\AppData\Local\Temp\ccEwUWak.s:325    .bss.g_ms_counter:00000000 $d
C:\Users\tom\AppData\Local\Temp\ccEwUWak.s:329    .bss.g_ms_counter:00000000 g_ms_counter
                     .debug_frame:00000010 $d

UNDEFINED SYMBOLS
USART_GetITStatus
USART_RX_IDLE_IRQHandler
USART_ClearITPendingBit
ADCDMA_Conv_Complete_IRQHandler
DMA_ClearITPendingBit
_delay_nms_mm
