ARM GAS  C:\Users\tom\AppData\Local\Temp\ccvXuUid.s 			page 1


   1              		.syntax unified
   2              		.cpu cortex-m3
   3              		.fpu softvfp
   4              		.eabi_attribute 20, 1
   5              		.eabi_attribute 21, 1
   6              		.eabi_attribute 23, 3
   7              		.eabi_attribute 24, 1
   8              		.eabi_attribute 25, 1
   9              		.eabi_attribute 26, 1
  10              		.eabi_attribute 30, 4
  11              		.eabi_attribute 34, 1
  12              		.eabi_attribute 18, 4
  13              		.thumb
  14              		.file	"misc.c"
  15              		.text
  16              	.Ltext0:
  17              		.cfi_sections	.debug_frame
  18              		.section	.text._delay_us,"ax",%progbits
  19              		.align	1
  20              		.global	_delay_us
  21              		.thumb
  22              		.thumb_func
  23              		.type	_delay_us, %function
  24              	_delay_us:
  25              	.LFB56:
  26              		.file 1 "_libs/misc.c"
   1:_libs/misc.c  **** #include "misc.h"
   2:_libs/misc.c  **** 
   3:_libs/misc.c  **** GPIO_InitTypeDef    GPIO_InitStructure;
   4:_libs/misc.c  **** SPI_InitTypeDef     SPI_InitStructure;
   5:_libs/misc.c  **** DMA_InitTypeDef     DMA_InitStructure;
   6:_libs/misc.c  **** NVIC_InitTypeDef    NVIC_InitStructure;
   7:_libs/misc.c  **** USART_InitTypeDef   USART_InitStructure;
   8:_libs/misc.c  **** EXTI_InitTypeDef    EXTI_InitStructure;
   9:_libs/misc.c  **** DAC_InitTypeDef     DAC_InitStructure; 
  10:_libs/misc.c  **** ADC_InitTypeDef     ADC_InitStructure; 
  11:_libs/misc.c  **** TIM_TimeBaseInitTypeDef TIM_TimeBaseStructure;
  12:_libs/misc.c  **** 
  13:_libs/misc.c  **** const unsigned char __attribute__ ((section("FLASH"))) ByteReverseTable[256] = {
  14:_libs/misc.c  ****     0x00, 0x80, 0x40, 0xc0, 0x20, 0xa0, 0x60, 0xe0, 0x10, 0x90, 0x50, 0xd0,
  15:_libs/misc.c  ****     0x30, 0xb0, 0x70, 0xf0, 0x08, 0x88, 0x48, 0xc8, 0x28, 0xa8, 0x68, 0xe8,
  16:_libs/misc.c  ****     0x18, 0x98, 0x58, 0xd8, 0x38, 0xb8, 0x78, 0xf8, 0x04, 0x84, 0x44, 0xc4,
  17:_libs/misc.c  ****     0x24, 0xa4, 0x64, 0xe4, 0x14, 0x94, 0x54, 0xd4, 0x34, 0xb4, 0x74, 0xf4,
  18:_libs/misc.c  ****     0x0c, 0x8c, 0x4c, 0xcc, 0x2c, 0xac, 0x6c, 0xec, 0x1c, 0x9c, 0x5c, 0xdc,
  19:_libs/misc.c  ****     0x3c, 0xbc, 0x7c, 0xfc, 0x02, 0x82, 0x42, 0xc2, 0x22, 0xa2, 0x62, 0xe2,
  20:_libs/misc.c  ****     0x12, 0x92, 0x52, 0xd2, 0x32, 0xb2, 0x72, 0xf2, 0x0a, 0x8a, 0x4a, 0xca,
  21:_libs/misc.c  ****     0x2a, 0xaa, 0x6a, 0xea, 0x1a, 0x9a, 0x5a, 0xda, 0x3a, 0xba, 0x7a, 0xfa,
  22:_libs/misc.c  ****     0x06, 0x86, 0x46, 0xc6, 0x26, 0xa6, 0x66, 0xe6, 0x16, 0x96, 0x56, 0xd6,
  23:_libs/misc.c  ****     0x36, 0xb6, 0x76, 0xf6, 0x0e, 0x8e, 0x4e, 0xce, 0x2e, 0xae, 0x6e, 0xee,
  24:_libs/misc.c  ****     0x1e, 0x9e, 0x5e, 0xde, 0x3e, 0xbe, 0x7e, 0xfe, 0x01, 0x81, 0x41, 0xc1,
  25:_libs/misc.c  ****     0x21, 0xa1, 0x61, 0xe1, 0x11, 0x91, 0x51, 0xd1, 0x31, 0xb1, 0x71, 0xf1,
  26:_libs/misc.c  ****     0x09, 0x89, 0x49, 0xc9, 0x29, 0xa9, 0x69, 0xe9, 0x19, 0x99, 0x59, 0xd9,
  27:_libs/misc.c  ****     0x39, 0xb9, 0x79, 0xf9, 0x05, 0x85, 0x45, 0xc5, 0x25, 0xa5, 0x65, 0xe5,
  28:_libs/misc.c  ****     0x15, 0x95, 0x55, 0xd5, 0x35, 0xb5, 0x75, 0xf5, 0x0d, 0x8d, 0x4d, 0xcd,
  29:_libs/misc.c  ****     0x2d, 0xad, 0x6d, 0xed, 0x1d, 0x9d, 0x5d, 0xdd, 0x3d, 0xbd, 0x7d, 0xfd,
  30:_libs/misc.c  ****     0x03, 0x83, 0x43, 0xc3, 0x23, 0xa3, 0x63, 0xe3, 0x13, 0x93, 0x53, 0xd3,
  31:_libs/misc.c  ****     0x33, 0xb3, 0x73, 0xf3, 0x0b, 0x8b, 0x4b, 0xcb, 0x2b, 0xab, 0x6b, 0xeb,
ARM GAS  C:\Users\tom\AppData\Local\Temp\ccvXuUid.s 			page 2


  32:_libs/misc.c  ****     0x1b, 0x9b, 0x5b, 0xdb, 0x3b, 0xbb, 0x7b, 0xfb, 0x07, 0x87, 0x47, 0xc7,
  33:_libs/misc.c  ****     0x27, 0xa7, 0x67, 0xe7, 0x17, 0x97, 0x57, 0xd7, 0x37, 0xb7, 0x77, 0xf7,
  34:_libs/misc.c  ****     0x0f, 0x8f, 0x4f, 0xcf, 0x2f, 0xaf, 0x6f, 0xef, 0x1f, 0x9f, 0x5f, 0xdf,
  35:_libs/misc.c  ****     0x3f, 0xbf, 0x7f, 0xff
  36:_libs/misc.c  **** };
  37:_libs/misc.c  **** 
  38:_libs/misc.c  **** volatile unsigned long g_nms;
  39:_libs/misc.c  **** 
  40:_libs/misc.c  **** void _delay_us(volatile unsigned long n)
  41:_libs/misc.c  **** {
  27              		.loc 1 41 0
  28              		.cfi_startproc
  29              		@ args = 0, pretend = 0, frame = 8
  30              		@ frame_needed = 0, uses_anonymous_args = 0
  31              		@ link register save eliminated.
  32              	.LVL0:
  33 0000 82B0     		sub	sp, sp, #8
  34              	.LCFI0:
  35              		.cfi_def_cfa_offset 8
  36              		.loc 1 41 0
  37 0002 0190     		str	r0, [sp, #4]
  42:_libs/misc.c  ****     n *= 5;
  38              		.loc 1 42 0
  39 0004 019B     		ldr	r3, [sp, #4]
  40 0006 03EB8303 		add	r3, r3, r3, lsl #2
  41 000a 0193     		str	r3, [sp, #4]
  43:_libs/misc.c  ****     n /= 2;
  42              		.loc 1 43 0
  43 000c 019B     		ldr	r3, [sp, #4]
  44 000e 5B08     		lsrs	r3, r3, #1
  45 0010 0193     		str	r3, [sp, #4]
  46              	.L2:
  44:_libs/misc.c  ****     while (n--) ;
  47              		.loc 1 44 0 discriminator 1
  48 0012 019B     		ldr	r3, [sp, #4]
  49 0014 5A1E     		subs	r2, r3, #1
  50 0016 0192     		str	r2, [sp, #4]
  51 0018 002B     		cmp	r3, #0
  52 001a FAD1     		bne	.L2
  45:_libs/misc.c  **** }
  53              		.loc 1 45 0
  54 001c 02B0     		add	sp, sp, #8
  55              	.LCFI1:
  56              		.cfi_def_cfa_offset 0
  57              		@ sp needed
  58 001e 7047     		bx	lr
  59              		.cfi_endproc
  60              	.LFE56:
  61              		.size	_delay_us, .-_delay_us
  62              		.section	.text._delay_ms_loop,"ax",%progbits
  63              		.align	1
  64              		.global	_delay_ms_loop
  65              		.thumb
  66              		.thumb_func
  67              		.type	_delay_ms_loop, %function
  68              	_delay_ms_loop:
  69              	.LFB57:
ARM GAS  C:\Users\tom\AppData\Local\Temp\ccvXuUid.s 			page 3


  46:_libs/misc.c  **** 
  47:_libs/misc.c  **** void _delay_ms_loop(volatile unsigned long n)
  48:_libs/misc.c  **** {
  70              		.loc 1 48 0
  71              		.cfi_startproc
  72              		@ args = 0, pretend = 0, frame = 8
  73              		@ frame_needed = 0, uses_anonymous_args = 0
  74              	.LVL1:
  75 0000 07B5     		push	{r0, r1, r2, lr}
  76              	.LCFI2:
  77              		.cfi_def_cfa_offset 16
  78              		.cfi_offset 14, -4
  79 0002 0190     		str	r0, [sp, #4]
  80              	.LVL2:
  81              	.L6:
  49:_libs/misc.c  ****     while (n--) {
  82              		.loc 1 49 0
  83 0004 019B     		ldr	r3, [sp, #4]
  84 0006 5A1E     		subs	r2, r3, #1
  85 0008 0192     		str	r2, [sp, #4]
  86 000a 23B1     		cbz	r3, .L8
  50:_libs/misc.c  ****         _delay_us(1000);
  87              		.loc 1 50 0
  88 000c 4FF47A70 		mov	r0, #1000
  89 0010 FFF7FEFF 		bl	_delay_us
  90              	.LVL3:
  91 0014 F6E7     		b	.L6
  92              	.L8:
  51:_libs/misc.c  ****     }
  52:_libs/misc.c  **** }
  93              		.loc 1 52 0
  94 0016 03B0     		add	sp, sp, #12
  95              	.LCFI3:
  96              		.cfi_def_cfa_offset 4
  97              		@ sp needed
  98 0018 5DF804FB 		ldr	pc, [sp], #4
  99              		.cfi_endproc
 100              	.LFE57:
 101              		.size	_delay_ms_loop, .-_delay_ms_loop
 102              		.section	.text._delay_ms_systick,"ax",%progbits
 103              		.align	1
 104              		.global	_delay_ms_systick
 105              		.thumb
 106              		.thumb_func
 107              		.type	_delay_ms_systick, %function
 108              	_delay_ms_systick:
 109              	.LFB58:
  53:_libs/misc.c  **** 
  54:_libs/misc.c  **** void _delay_ms_systick(volatile unsigned long nms)
  55:_libs/misc.c  **** {
 110              		.loc 1 55 0
 111              		.cfi_startproc
 112              		@ args = 0, pretend = 0, frame = 8
 113              		@ frame_needed = 0, uses_anonymous_args = 0
 114              		@ link register save eliminated.
 115              	.LVL4:
 116 0000 82B0     		sub	sp, sp, #8
ARM GAS  C:\Users\tom\AppData\Local\Temp\ccvXuUid.s 			page 4


 117              	.LCFI4:
 118              		.cfi_def_cfa_offset 8
 119              		.loc 1 55 0
 120 0002 0190     		str	r0, [sp, #4]
  56:_libs/misc.c  ****     g_nms = nms;
 121              		.loc 1 56 0
 122 0004 019A     		ldr	r2, [sp, #4]
 123 0006 034B     		ldr	r3, .L12
 124 0008 1A60     		str	r2, [r3]
 125              	.L10:
  57:_libs/misc.c  ****     while (g_nms > 0) ;
 126              		.loc 1 57 0 discriminator 1
 127 000a 1A68     		ldr	r2, [r3]
 128 000c 002A     		cmp	r2, #0
 129 000e FCD1     		bne	.L10
  58:_libs/misc.c  **** }
 130              		.loc 1 58 0
 131 0010 02B0     		add	sp, sp, #8
 132              	.LCFI5:
 133              		.cfi_def_cfa_offset 0
 134              		@ sp needed
 135 0012 7047     		bx	lr
 136              	.L13:
 137              		.align	2
 138              	.L12:
 139 0014 00000000 		.word	g_nms
 140              		.cfi_endproc
 141              	.LFE58:
 142              		.size	_delay_ms_systick, .-_delay_ms_systick
 143              		.section	.text._delay_nms_mm,"ax",%progbits
 144              		.align	1
 145              		.global	_delay_nms_mm
 146              		.thumb
 147              		.thumb_func
 148              		.type	_delay_nms_mm, %function
 149              	_delay_nms_mm:
 150              	.LFB59:
  59:_libs/misc.c  **** 
  60:_libs/misc.c  **** void _delay_nms_mm(void)
  61:_libs/misc.c  **** {
 151              		.loc 1 61 0
 152              		.cfi_startproc
 153              		@ args = 0, pretend = 0, frame = 0
 154              		@ frame_needed = 0, uses_anonymous_args = 0
 155              		@ link register save eliminated.
  62:_libs/misc.c  ****     if (g_nms > 0)
 156              		.loc 1 62 0
 157 0000 034B     		ldr	r3, .L19
 158 0002 1A68     		ldr	r2, [r3]
 159 0004 12B1     		cbz	r2, .L14
  63:_libs/misc.c  ****         g_nms--;
 160              		.loc 1 63 0
 161 0006 1A68     		ldr	r2, [r3]
 162 0008 013A     		subs	r2, r2, #1
 163 000a 1A60     		str	r2, [r3]
 164              	.L14:
 165 000c 7047     		bx	lr
ARM GAS  C:\Users\tom\AppData\Local\Temp\ccvXuUid.s 			page 5


 166              	.L20:
 167 000e 00BF     		.align	2
 168              	.L19:
 169 0010 00000000 		.word	g_nms
 170              		.cfi_endproc
 171              	.LFE59:
 172              		.size	_delay_nms_mm, .-_delay_nms_mm
 173              		.section	.text.ByteReverse,"ax",%progbits
 174              		.align	1
 175              		.global	ByteReverse
 176              		.thumb
 177              		.thumb_func
 178              		.type	ByteReverse, %function
 179              	ByteReverse:
 180              	.LFB60:
  64:_libs/misc.c  **** }
  65:_libs/misc.c  **** 
  66:_libs/misc.c  **** unsigned char ByteReverse(unsigned char c)
  67:_libs/misc.c  **** { 
 181              		.loc 1 67 0
 182              		.cfi_startproc
 183              		@ args = 0, pretend = 0, frame = 0
 184              		@ frame_needed = 0, uses_anonymous_args = 0
 185              		@ link register save eliminated.
 186              	.LVL5:
  68:_libs/misc.c  ****     return ByteReverseTable[c];
  69:_libs/misc.c  **** }
 187              		.loc 1 69 0
 188 0000 014B     		ldr	r3, .L22
 189 0002 185C     		ldrb	r0, [r3, r0]	@ zero_extendqisi2
 190              	.LVL6:
 191 0004 7047     		bx	lr
 192              	.L23:
 193 0006 00BF     		.align	2
 194              	.L22:
 195 0008 00000000 		.word	.LANCHOR0
 196              		.cfi_endproc
 197              	.LFE60:
 198              		.size	ByteReverse, .-ByteReverse
 199              		.section	.text.get_free_mem,"ax",%progbits
 200              		.align	1
 201              		.global	get_free_mem
 202              		.thumb
 203              		.thumb_func
 204              		.type	get_free_mem, %function
 205              	get_free_mem:
 206              	.LFB62:
  70:_libs/misc.c  **** 
  71:_libs/misc.c  **** static size_t __get_free_mem(size_t start, size_t end)
  72:_libs/misc.c  **** {
  73:_libs/misc.c  ****     unsigned char *p;
  74:_libs/misc.c  ****     while(start < end - 1) {
  75:_libs/misc.c  ****         size_t size = (start + end) / 2;
  76:_libs/misc.c  ****         if(size == 0)
  77:_libs/misc.c  ****             return 0;
  78:_libs/misc.c  ****        p = malloc(size);
  79:_libs/misc.c  ****         if(p != NULL) {     // malloc succeeded
ARM GAS  C:\Users\tom\AppData\Local\Temp\ccvXuUid.s 			page 6


  80:_libs/misc.c  ****             free(p);
  81:_libs/misc.c  ****             start = size;
  82:_libs/misc.c  ****         }
  83:_libs/misc.c  ****         else {              // malloc failed
  84:_libs/misc.c  ****             end = size - 1;
  85:_libs/misc.c  ****         }
  86:_libs/misc.c  ****     }
  87:_libs/misc.c  ****     return start;
  88:_libs/misc.c  **** }
  89:_libs/misc.c  **** 
  90:_libs/misc.c  **** size_t get_free_mem(void)
  91:_libs/misc.c  **** {
 207              		.loc 1 91 0
 208              		.cfi_startproc
 209              		@ args = 0, pretend = 0, frame = 0
 210              		@ frame_needed = 0, uses_anonymous_args = 0
 211              	.LVL7:
 212 0000 70B5     		push	{r4, r5, r6, lr}
 213              	.LCFI6:
 214              		.cfi_def_cfa_offset 16
 215              		.cfi_offset 4, -16
 216              		.cfi_offset 5, -12
 217              		.cfi_offset 6, -8
 218              		.cfi_offset 14, -4
 219              	.LBB6:
 220              	.LBB7:
 221              	.LBB8:
  80:_libs/misc.c  ****             start = size;
 222              		.loc 1 80 0
 223 0002 4FF48036 		mov	r6, #65536
 224 0006 0025     		movs	r5, #0
 225              	.LVL8:
 226              	.L25:
 227              	.LBE8:
  74:_libs/misc.c  ****         size_t size = (start + end) / 2;
 228              		.loc 1 74 0
 229 0008 731E     		subs	r3, r6, #1
 230 000a 9D42     		cmp	r5, r3
 231 000c 0CD2     		bcs	.L31
 232              	.LBB9:
  75:_libs/misc.c  ****         if(size == 0)
 233              		.loc 1 75 0
 234 000e 7019     		adds	r0, r6, r5
 235              	.LVL9:
  76:_libs/misc.c  ****             return 0;
 236              		.loc 1 76 0
 237 0010 4408     		lsrs	r4, r0, #1
 238              	.LVL10:
  77:_libs/misc.c  ****        p = malloc(size);
 239              		.loc 1 77 0
 240 0012 2046     		mov	r0, r4
  76:_libs/misc.c  ****             return 0;
 241              		.loc 1 76 0
 242 0014 0AD0     		beq	.L30
  78:_libs/misc.c  ****         if(p != NULL) {     // malloc succeeded
 243              		.loc 1 78 0
 244 0016 FFF7FEFF 		bl	malloc
ARM GAS  C:\Users\tom\AppData\Local\Temp\ccvXuUid.s 			page 7


 245              	.LVL11:
  79:_libs/misc.c  ****             free(p);
 246              		.loc 1 79 0
 247 001a 18B1     		cbz	r0, .L27
  80:_libs/misc.c  ****             start = size;
 248              		.loc 1 80 0
 249 001c FFF7FEFF 		bl	free
 250              	.LVL12:
 251 0020 2546     		mov	r5, r4
 252 0022 F1E7     		b	.L25
 253              	.LVL13:
 254              	.L27:
  84:_libs/misc.c  ****         }
 255              		.loc 1 84 0
 256 0024 661E     		subs	r6, r4, #1
 257              	.LVL14:
 258 0026 EFE7     		b	.L25
 259              	.LVL15:
 260              	.L31:
 261              	.LBE9:
  74:_libs/misc.c  ****         size_t size = (start + end) / 2;
 262              		.loc 1 74 0
 263 0028 2846     		mov	r0, r5
 264 002a 70BD     		pop	{r4, r5, r6, pc}
 265              	.LVL16:
 266              	.L30:
 267              	.LBE7:
 268              	.LBE6:
  92:_libs/misc.c  ****     return __get_free_mem(0, 65536UL); 
  93:_libs/misc.c  **** }
 269              		.loc 1 93 0
 270 002c 70BD     		pop	{r4, r5, r6, pc}
 271              		.cfi_endproc
 272              	.LFE62:
 273              		.size	get_free_mem, .-get_free_mem
 274              		.comm	g_nms,4,4
 275              		.global	ByteReverseTable
 276              		.comm	TIM_TimeBaseStructure,10,2
 277              		.comm	ADC_InitStructure,20,4
 278              		.comm	DAC_InitStructure,16,4
 279              		.comm	EXTI_InitStructure,8,4
 280              		.comm	USART_InitStructure,16,4
 281              		.comm	NVIC_InitStructure,4,1
 282              		.comm	DMA_InitStructure,44,4
 283              		.comm	SPI_InitStructure,18,2
 284              		.comm	GPIO_InitStructure,4,2
 285              		.section	FLASH,"a",%progbits
 286              		.set	.LANCHOR0,. + 0
 287              		.type	ByteReverseTable, %object
 288              		.size	ByteReverseTable, 256
 289              	ByteReverseTable:
 290 0000 00       		.byte	0
 291 0001 80       		.byte	-128
 292 0002 40       		.byte	64
 293 0003 C0       		.byte	-64
 294 0004 20       		.byte	32
 295 0005 A0       		.byte	-96
ARM GAS  C:\Users\tom\AppData\Local\Temp\ccvXuUid.s 			page 8


 296 0006 60       		.byte	96
 297 0007 E0       		.byte	-32
 298 0008 10       		.byte	16
 299 0009 90       		.byte	-112
 300 000a 50       		.byte	80
 301 000b D0       		.byte	-48
 302 000c 30       		.byte	48
 303 000d B0       		.byte	-80
 304 000e 70       		.byte	112
 305 000f F0       		.byte	-16
 306 0010 08       		.byte	8
 307 0011 88       		.byte	-120
 308 0012 48       		.byte	72
 309 0013 C8       		.byte	-56
 310 0014 28       		.byte	40
 311 0015 A8       		.byte	-88
 312 0016 68       		.byte	104
 313 0017 E8       		.byte	-24
 314 0018 18       		.byte	24
 315 0019 98       		.byte	-104
 316 001a 58       		.byte	88
 317 001b D8       		.byte	-40
 318 001c 38       		.byte	56
 319 001d B8       		.byte	-72
 320 001e 78       		.byte	120
 321 001f F8       		.byte	-8
 322 0020 04       		.byte	4
 323 0021 84       		.byte	-124
 324 0022 44       		.byte	68
 325 0023 C4       		.byte	-60
 326 0024 24       		.byte	36
 327 0025 A4       		.byte	-92
 328 0026 64       		.byte	100
 329 0027 E4       		.byte	-28
 330 0028 14       		.byte	20
 331 0029 94       		.byte	-108
 332 002a 54       		.byte	84
 333 002b D4       		.byte	-44
 334 002c 34       		.byte	52
 335 002d B4       		.byte	-76
 336 002e 74       		.byte	116
 337 002f F4       		.byte	-12
 338 0030 0C       		.byte	12
 339 0031 8C       		.byte	-116
 340 0032 4C       		.byte	76
 341 0033 CC       		.byte	-52
 342 0034 2C       		.byte	44
 343 0035 AC       		.byte	-84
 344 0036 6C       		.byte	108
 345 0037 EC       		.byte	-20
 346 0038 1C       		.byte	28
 347 0039 9C       		.byte	-100
 348 003a 5C       		.byte	92
 349 003b DC       		.byte	-36
 350 003c 3C       		.byte	60
 351 003d BC       		.byte	-68
 352 003e 7C       		.byte	124
ARM GAS  C:\Users\tom\AppData\Local\Temp\ccvXuUid.s 			page 9


 353 003f FC       		.byte	-4
 354 0040 02       		.byte	2
 355 0041 82       		.byte	-126
 356 0042 42       		.byte	66
 357 0043 C2       		.byte	-62
 358 0044 22       		.byte	34
 359 0045 A2       		.byte	-94
 360 0046 62       		.byte	98
 361 0047 E2       		.byte	-30
 362 0048 12       		.byte	18
 363 0049 92       		.byte	-110
 364 004a 52       		.byte	82
 365 004b D2       		.byte	-46
 366 004c 32       		.byte	50
 367 004d B2       		.byte	-78
 368 004e 72       		.byte	114
 369 004f F2       		.byte	-14
 370 0050 0A       		.byte	10
 371 0051 8A       		.byte	-118
 372 0052 4A       		.byte	74
 373 0053 CA       		.byte	-54
 374 0054 2A       		.byte	42
 375 0055 AA       		.byte	-86
 376 0056 6A       		.byte	106
 377 0057 EA       		.byte	-22
 378 0058 1A       		.byte	26
 379 0059 9A       		.byte	-102
 380 005a 5A       		.byte	90
 381 005b DA       		.byte	-38
 382 005c 3A       		.byte	58
 383 005d BA       		.byte	-70
 384 005e 7A       		.byte	122
 385 005f FA       		.byte	-6
 386 0060 06       		.byte	6
 387 0061 86       		.byte	-122
 388 0062 46       		.byte	70
 389 0063 C6       		.byte	-58
 390 0064 26       		.byte	38
 391 0065 A6       		.byte	-90
 392 0066 66       		.byte	102
 393 0067 E6       		.byte	-26
 394 0068 16       		.byte	22
 395 0069 96       		.byte	-106
 396 006a 56       		.byte	86
 397 006b D6       		.byte	-42
 398 006c 36       		.byte	54
 399 006d B6       		.byte	-74
 400 006e 76       		.byte	118
 401 006f F6       		.byte	-10
 402 0070 0E       		.byte	14
 403 0071 8E       		.byte	-114
 404 0072 4E       		.byte	78
 405 0073 CE       		.byte	-50
 406 0074 2E       		.byte	46
 407 0075 AE       		.byte	-82
 408 0076 6E       		.byte	110
 409 0077 EE       		.byte	-18
ARM GAS  C:\Users\tom\AppData\Local\Temp\ccvXuUid.s 			page 10


 410 0078 1E       		.byte	30
 411 0079 9E       		.byte	-98
 412 007a 5E       		.byte	94
 413 007b DE       		.byte	-34
 414 007c 3E       		.byte	62
 415 007d BE       		.byte	-66
 416 007e 7E       		.byte	126
 417 007f FE       		.byte	-2
 418 0080 01       		.byte	1
 419 0081 81       		.byte	-127
 420 0082 41       		.byte	65
 421 0083 C1       		.byte	-63
 422 0084 21       		.byte	33
 423 0085 A1       		.byte	-95
 424 0086 61       		.byte	97
 425 0087 E1       		.byte	-31
 426 0088 11       		.byte	17
 427 0089 91       		.byte	-111
 428 008a 51       		.byte	81
 429 008b D1       		.byte	-47
 430 008c 31       		.byte	49
 431 008d B1       		.byte	-79
 432 008e 71       		.byte	113
 433 008f F1       		.byte	-15
 434 0090 09       		.byte	9
 435 0091 89       		.byte	-119
 436 0092 49       		.byte	73
 437 0093 C9       		.byte	-55
 438 0094 29       		.byte	41
 439 0095 A9       		.byte	-87
 440 0096 69       		.byte	105
 441 0097 E9       		.byte	-23
 442 0098 19       		.byte	25
 443 0099 99       		.byte	-103
 444 009a 59       		.byte	89
 445 009b D9       		.byte	-39
 446 009c 39       		.byte	57
 447 009d B9       		.byte	-71
 448 009e 79       		.byte	121
 449 009f F9       		.byte	-7
 450 00a0 05       		.byte	5
 451 00a1 85       		.byte	-123
 452 00a2 45       		.byte	69
 453 00a3 C5       		.byte	-59
 454 00a4 25       		.byte	37
 455 00a5 A5       		.byte	-91
 456 00a6 65       		.byte	101
 457 00a7 E5       		.byte	-27
 458 00a8 15       		.byte	21
 459 00a9 95       		.byte	-107
 460 00aa 55       		.byte	85
 461 00ab D5       		.byte	-43
 462 00ac 35       		.byte	53
 463 00ad B5       		.byte	-75
 464 00ae 75       		.byte	117
 465 00af F5       		.byte	-11
 466 00b0 0D       		.byte	13
ARM GAS  C:\Users\tom\AppData\Local\Temp\ccvXuUid.s 			page 11


 467 00b1 8D       		.byte	-115
 468 00b2 4D       		.byte	77
 469 00b3 CD       		.byte	-51
 470 00b4 2D       		.byte	45
 471 00b5 AD       		.byte	-83
 472 00b6 6D       		.byte	109
 473 00b7 ED       		.byte	-19
 474 00b8 1D       		.byte	29
 475 00b9 9D       		.byte	-99
 476 00ba 5D       		.byte	93
 477 00bb DD       		.byte	-35
 478 00bc 3D       		.byte	61
 479 00bd BD       		.byte	-67
 480 00be 7D       		.byte	125
 481 00bf FD       		.byte	-3
 482 00c0 03       		.byte	3
 483 00c1 83       		.byte	-125
 484 00c2 43       		.byte	67
 485 00c3 C3       		.byte	-61
 486 00c4 23       		.byte	35
 487 00c5 A3       		.byte	-93
 488 00c6 63       		.byte	99
 489 00c7 E3       		.byte	-29
 490 00c8 13       		.byte	19
 491 00c9 93       		.byte	-109
 492 00ca 53       		.byte	83
 493 00cb D3       		.byte	-45
 494 00cc 33       		.byte	51
 495 00cd B3       		.byte	-77
 496 00ce 73       		.byte	115
 497 00cf F3       		.byte	-13
 498 00d0 0B       		.byte	11
 499 00d1 8B       		.byte	-117
 500 00d2 4B       		.byte	75
 501 00d3 CB       		.byte	-53
 502 00d4 2B       		.byte	43
 503 00d5 AB       		.byte	-85
 504 00d6 6B       		.byte	107
 505 00d7 EB       		.byte	-21
 506 00d8 1B       		.byte	27
 507 00d9 9B       		.byte	-101
 508 00da 5B       		.byte	91
 509 00db DB       		.byte	-37
 510 00dc 3B       		.byte	59
 511 00dd BB       		.byte	-69
 512 00de 7B       		.byte	123
 513 00df FB       		.byte	-5
 514 00e0 07       		.byte	7
 515 00e1 87       		.byte	-121
 516 00e2 47       		.byte	71
 517 00e3 C7       		.byte	-57
 518 00e4 27       		.byte	39
 519 00e5 A7       		.byte	-89
 520 00e6 67       		.byte	103
 521 00e7 E7       		.byte	-25
 522 00e8 17       		.byte	23
 523 00e9 97       		.byte	-105
ARM GAS  C:\Users\tom\AppData\Local\Temp\ccvXuUid.s 			page 12


 524 00ea 57       		.byte	87
 525 00eb D7       		.byte	-41
 526 00ec 37       		.byte	55
 527 00ed B7       		.byte	-73
 528 00ee 77       		.byte	119
 529 00ef F7       		.byte	-9
 530 00f0 0F       		.byte	15
 531 00f1 8F       		.byte	-113
 532 00f2 4F       		.byte	79
 533 00f3 CF       		.byte	-49
 534 00f4 2F       		.byte	47
 535 00f5 AF       		.byte	-81
 536 00f6 6F       		.byte	111
 537 00f7 EF       		.byte	-17
 538 00f8 1F       		.byte	31
 539 00f9 9F       		.byte	-97
 540 00fa 5F       		.byte	95
 541 00fb DF       		.byte	-33
 542 00fc 3F       		.byte	63
 543 00fd BF       		.byte	-65
 544 00fe 7F       		.byte	127
 545 00ff FF       		.byte	-1
 546              		.text
 547              	.Letext0:
 548              		.file 2 "c:\\yagarto\\arm-none-eabi\\include\\machine\\_default_types.h"
 549              		.file 3 "c:\\yagarto\\arm-none-eabi\\include\\stdint.h"
 550              		.file 4 "c:\\yagarto\\lib\\gcc\\arm-none-eabi\\4.9.3\\include\\stddef.h"
 551              		.file 5 "c:/yagarto/cmsis_cm3_v361/_cmsis/stm32f10x.h"
 552              		.file 6 "c:/yagarto/cmsis_cm3_v361/_f10x_stdperiph_drv/inc/stm32f10x_adc.h"
 553              		.file 7 "c:/yagarto/cmsis_cm3_v361/_f10x_stdperiph_drv/inc/stm32f10x_dac.h"
 554              		.file 8 "c:/yagarto/cmsis_cm3_v361/_f10x_stdperiph_drv/inc/stm32f10x_dma.h"
 555              		.file 9 "c:/yagarto/cmsis_cm3_v361/_f10x_stdperiph_drv/inc/stm32f10x_exti.h"
 556              		.file 10 "c:/yagarto/cmsis_cm3_v361/_f10x_stdperiph_drv/inc/stm32f10x_gpio.h"
 557              		.file 11 "c:/yagarto/cmsis_cm3_v361/_f10x_stdperiph_drv/inc/stm32f10x_spi.h"
 558              		.file 12 "c:/yagarto/cmsis_cm3_v361/_f10x_stdperiph_drv/inc/stm32f10x_tim.h"
 559              		.file 13 "c:/yagarto/cmsis_cm3_v361/_f10x_stdperiph_drv/inc/stm32f10x_usart.h"
 560              		.file 14 "c:/yagarto/cmsis_cm3_v361/_f10x_stdperiph_drv/inc/misc.h"
 561              		.file 15 "c:/yagarto/cmsis_cm3_v361/_cmsis/core_cm3.h"
 562              		.file 16 "c:\\yagarto\\arm-none-eabi\\include\\stdlib.h"
 563              		.section	.debug_info,"",%progbits
 564              	.Ldebug_info0:
 565 0000 E4070000 		.4byte	0x7e4
 566 0004 0200     		.2byte	0x2
 567 0006 00000000 		.4byte	.Ldebug_abbrev0
 568 000a 04       		.byte	0x4
 569 000b 01       		.uleb128 0x1
 570 000c 46020000 		.4byte	.LASF123
 571 0010 01       		.byte	0x1
 572 0011 AB030000 		.4byte	.LASF124
 573 0015 EB050000 		.4byte	.LASF125
 574 0019 18000000 		.4byte	.Ldebug_ranges0+0x18
 575 001d 00000000 		.4byte	0
 576 0021 00000000 		.4byte	0
 577 0025 00000000 		.4byte	.Ldebug_line0
 578 0029 02       		.uleb128 0x2
 579 002a 01       		.byte	0x1
 580 002b 06       		.byte	0x6
ARM GAS  C:\Users\tom\AppData\Local\Temp\ccvXuUid.s 			page 13


 581 002c 1E010000 		.4byte	.LASF0
 582 0030 03       		.uleb128 0x3
 583 0031 64000000 		.4byte	.LASF3
 584 0035 02       		.byte	0x2
 585 0036 1D       		.byte	0x1d
 586 0037 3B000000 		.4byte	0x3b
 587 003b 02       		.uleb128 0x2
 588 003c 01       		.byte	0x1
 589 003d 08       		.byte	0x8
 590 003e DD050000 		.4byte	.LASF1
 591 0042 02       		.uleb128 0x2
 592 0043 02       		.byte	0x2
 593 0044 05       		.byte	0x5
 594 0045 04020000 		.4byte	.LASF2
 595 0049 03       		.uleb128 0x3
 596 004a FB060000 		.4byte	.LASF4
 597 004e 02       		.byte	0x2
 598 004f 2B       		.byte	0x2b
 599 0050 54000000 		.4byte	0x54
 600 0054 02       		.uleb128 0x2
 601 0055 02       		.byte	0x2
 602 0056 07       		.byte	0x7
 603 0057 CD030000 		.4byte	.LASF5
 604 005b 03       		.uleb128 0x3
 605 005c 4A070000 		.4byte	.LASF6
 606 0060 02       		.byte	0x2
 607 0061 3F       		.byte	0x3f
 608 0062 66000000 		.4byte	0x66
 609 0066 02       		.uleb128 0x2
 610 0067 04       		.byte	0x4
 611 0068 05       		.byte	0x5
 612 0069 C9010000 		.4byte	.LASF7
 613 006d 03       		.uleb128 0x3
 614 006e 54070000 		.4byte	.LASF8
 615 0072 02       		.byte	0x2
 616 0073 41       		.byte	0x41
 617 0074 78000000 		.4byte	0x78
 618 0078 02       		.uleb128 0x2
 619 0079 04       		.byte	0x4
 620 007a 07       		.byte	0x7
 621 007b 83030000 		.4byte	.LASF9
 622 007f 02       		.uleb128 0x2
 623 0080 08       		.byte	0x8
 624 0081 05       		.byte	0x5
 625 0082 10010000 		.4byte	.LASF10
 626 0086 02       		.uleb128 0x2
 627 0087 08       		.byte	0x8
 628 0088 07       		.byte	0x7
 629 0089 BF000000 		.4byte	.LASF11
 630 008d 04       		.uleb128 0x4
 631 008e 04       		.byte	0x4
 632 008f 05       		.byte	0x5
 633 0090 696E7400 		.ascii	"int\000"
 634 0094 02       		.uleb128 0x2
 635 0095 04       		.byte	0x4
 636 0096 07       		.byte	0x7
 637 0097 64030000 		.4byte	.LASF12
ARM GAS  C:\Users\tom\AppData\Local\Temp\ccvXuUid.s 			page 14


 638 009b 03       		.uleb128 0x3
 639 009c E2070000 		.4byte	.LASF13
 640 00a0 03       		.byte	0x3
 641 00a1 15       		.byte	0x15
 642 00a2 30000000 		.4byte	0x30
 643 00a6 03       		.uleb128 0x3
 644 00a7 0E020000 		.4byte	.LASF14
 645 00ab 03       		.byte	0x3
 646 00ac 21       		.byte	0x21
 647 00ad 49000000 		.4byte	0x49
 648 00b1 03       		.uleb128 0x3
 649 00b2 D5050000 		.4byte	.LASF15
 650 00b6 03       		.byte	0x3
 651 00b7 2C       		.byte	0x2c
 652 00b8 5B000000 		.4byte	0x5b
 653 00bc 03       		.uleb128 0x3
 654 00bd 97060000 		.4byte	.LASF16
 655 00c1 03       		.byte	0x3
 656 00c2 2D       		.byte	0x2d
 657 00c3 6D000000 		.4byte	0x6d
 658 00c7 03       		.uleb128 0x3
 659 00c8 1A000000 		.4byte	.LASF17
 660 00cc 04       		.byte	0x4
 661 00cd D4       		.byte	0xd4
 662 00ce 94000000 		.4byte	0x94
 663 00d2 02       		.uleb128 0x2
 664 00d3 04       		.byte	0x4
 665 00d4 07       		.byte	0x7
 666 00d5 98040000 		.4byte	.LASF18
 667 00d9 05       		.uleb128 0x5
 668 00da 04       		.byte	0x4
 669 00db 06       		.uleb128 0x6
 670 00dc 04       		.byte	0x4
 671 00dd 3B000000 		.4byte	0x3b
 672 00e1 02       		.uleb128 0x2
 673 00e2 01       		.byte	0x1
 674 00e3 08       		.byte	0x8
 675 00e4 ED060000 		.4byte	.LASF19
 676 00e8 07       		.uleb128 0x7
 677 00e9 B1000000 		.4byte	0xb1
 678 00ed 08       		.uleb128 0x8
 679 00ee 01       		.byte	0x1
 680 00ef 05       		.byte	0x5
 681 00f0 1302     		.2byte	0x213
 682 00f2 03010000 		.4byte	0x103
 683 00f6 09       		.uleb128 0x9
 684 00f7 B7000000 		.4byte	.LASF20
 685 00fb 00       		.sleb128 0
 686 00fc 09       		.uleb128 0x9
 687 00fd D2010000 		.4byte	.LASF21
 688 0101 01       		.sleb128 1
 689 0102 00       		.byte	0
 690 0103 0A       		.uleb128 0xa
 691 0104 EF040000 		.4byte	.LASF22
 692 0108 05       		.byte	0x5
 693 0109 1302     		.2byte	0x213
 694 010b ED000000 		.4byte	0xed
ARM GAS  C:\Users\tom\AppData\Local\Temp\ccvXuUid.s 			page 15


 695 010f 0B       		.uleb128 0xb
 696 0110 14       		.byte	0x14
 697 0111 06       		.byte	0x6
 698 0112 38       		.byte	0x38
 699 0113 6C010000 		.4byte	0x16c
 700 0117 0C       		.uleb128 0xc
 701 0118 F2060000 		.4byte	.LASF23
 702 011c 06       		.byte	0x6
 703 011d 3A       		.byte	0x3a
 704 011e BC000000 		.4byte	0xbc
 705 0122 02       		.byte	0x2
 706 0123 23       		.byte	0x23
 707 0124 00       		.uleb128 0
 708 0125 0C       		.uleb128 0xc
 709 0126 51060000 		.4byte	.LASF24
 710 012a 06       		.byte	0x6
 711 012b 3E       		.byte	0x3e
 712 012c 03010000 		.4byte	0x103
 713 0130 02       		.byte	0x2
 714 0131 23       		.byte	0x23
 715 0132 04       		.uleb128 0x4
 716 0133 0C       		.uleb128 0xc
 717 0134 B2010000 		.4byte	.LASF25
 718 0138 06       		.byte	0x6
 719 0139 42       		.byte	0x42
 720 013a 03010000 		.4byte	0x103
 721 013e 02       		.byte	0x2
 722 013f 23       		.byte	0x23
 723 0140 05       		.uleb128 0x5
 724 0141 0C       		.uleb128 0xc
 725 0142 21000000 		.4byte	.LASF26
 726 0146 06       		.byte	0x6
 727 0147 46       		.byte	0x46
 728 0148 BC000000 		.4byte	0xbc
 729 014c 02       		.byte	0x2
 730 014d 23       		.byte	0x23
 731 014e 08       		.uleb128 0x8
 732 014f 0C       		.uleb128 0xc
 733 0150 20050000 		.4byte	.LASF27
 734 0154 06       		.byte	0x6
 735 0155 4A       		.byte	0x4a
 736 0156 BC000000 		.4byte	0xbc
 737 015a 02       		.byte	0x2
 738 015b 23       		.byte	0x23
 739 015c 0C       		.uleb128 0xc
 740 015d 0C       		.uleb128 0xc
 741 015e 1D070000 		.4byte	.LASF28
 742 0162 06       		.byte	0x6
 743 0163 4D       		.byte	0x4d
 744 0164 9B000000 		.4byte	0x9b
 745 0168 02       		.byte	0x2
 746 0169 23       		.byte	0x23
 747 016a 10       		.uleb128 0x10
 748 016b 00       		.byte	0
 749 016c 03       		.uleb128 0x3
 750 016d 71060000 		.4byte	.LASF29
 751 0171 06       		.byte	0x6
ARM GAS  C:\Users\tom\AppData\Local\Temp\ccvXuUid.s 			page 16


 752 0172 50       		.byte	0x50
 753 0173 0F010000 		.4byte	0x10f
 754 0177 0B       		.uleb128 0xb
 755 0178 10       		.byte	0x10
 756 0179 07       		.byte	0x7
 757 017a 38       		.byte	0x38
 758 017b B8010000 		.4byte	0x1b8
 759 017f 0C       		.uleb128 0xc
 760 0180 7E040000 		.4byte	.LASF30
 761 0184 07       		.byte	0x7
 762 0185 3A       		.byte	0x3a
 763 0186 BC000000 		.4byte	0xbc
 764 018a 02       		.byte	0x2
 765 018b 23       		.byte	0x23
 766 018c 00       		.uleb128 0
 767 018d 0C       		.uleb128 0xc
 768 018e 4C050000 		.4byte	.LASF31
 769 0192 07       		.byte	0x7
 770 0193 3D       		.byte	0x3d
 771 0194 BC000000 		.4byte	0xbc
 772 0198 02       		.byte	0x2
 773 0199 23       		.byte	0x23
 774 019a 04       		.uleb128 0x4
 775 019b 0C       		.uleb128 0xc
 776 019c C4060000 		.4byte	.LASF32
 777 01a0 07       		.byte	0x7
 778 01a1 41       		.byte	0x41
 779 01a2 BC000000 		.4byte	0xbc
 780 01a6 02       		.byte	0x2
 781 01a7 23       		.byte	0x23
 782 01a8 08       		.uleb128 0x8
 783 01a9 0C       		.uleb128 0xc
 784 01aa 73010000 		.4byte	.LASF33
 785 01ae 07       		.byte	0x7
 786 01af 45       		.byte	0x45
 787 01b0 BC000000 		.4byte	0xbc
 788 01b4 02       		.byte	0x2
 789 01b5 23       		.byte	0x23
 790 01b6 0C       		.uleb128 0xc
 791 01b7 00       		.byte	0
 792 01b8 03       		.uleb128 0x3
 793 01b9 F5020000 		.4byte	.LASF34
 794 01bd 07       		.byte	0x7
 795 01be 47       		.byte	0x47
 796 01bf 77010000 		.4byte	0x177
 797 01c3 0B       		.uleb128 0xb
 798 01c4 2C       		.byte	0x2c
 799 01c5 08       		.byte	0x8
 800 01c6 38       		.byte	0x38
 801 01c7 66020000 		.4byte	0x266
 802 01cb 0C       		.uleb128 0xc
 803 01cc 67040000 		.4byte	.LASF35
 804 01d0 08       		.byte	0x8
 805 01d1 3A       		.byte	0x3a
 806 01d2 BC000000 		.4byte	0xbc
 807 01d6 02       		.byte	0x2
 808 01d7 23       		.byte	0x23
ARM GAS  C:\Users\tom\AppData\Local\Temp\ccvXuUid.s 			page 17


 809 01d8 00       		.uleb128 0
 810 01d9 0C       		.uleb128 0xc
 811 01da 8F050000 		.4byte	.LASF36
 812 01de 08       		.byte	0x8
 813 01df 3C       		.byte	0x3c
 814 01e0 BC000000 		.4byte	0xbc
 815 01e4 02       		.byte	0x2
 816 01e5 23       		.byte	0x23
 817 01e6 04       		.uleb128 0x4
 818 01e7 0C       		.uleb128 0xc
 819 01e8 B3040000 		.4byte	.LASF37
 820 01ec 08       		.byte	0x8
 821 01ed 3E       		.byte	0x3e
 822 01ee BC000000 		.4byte	0xbc
 823 01f2 02       		.byte	0x2
 824 01f3 23       		.byte	0x23
 825 01f4 08       		.uleb128 0x8
 826 01f5 0C       		.uleb128 0xc
 827 01f6 10080000 		.4byte	.LASF38
 828 01fa 08       		.byte	0x8
 829 01fb 41       		.byte	0x41
 830 01fc BC000000 		.4byte	0xbc
 831 0200 02       		.byte	0x2
 832 0201 23       		.byte	0x23
 833 0202 0C       		.uleb128 0xc
 834 0203 0C       		.uleb128 0xc
 835 0204 7B000000 		.4byte	.LASF39
 836 0208 08       		.byte	0x8
 837 0209 45       		.byte	0x45
 838 020a BC000000 		.4byte	0xbc
 839 020e 02       		.byte	0x2
 840 020f 23       		.byte	0x23
 841 0210 10       		.uleb128 0x10
 842 0211 0C       		.uleb128 0xc
 843 0212 A9000000 		.4byte	.LASF40
 844 0216 08       		.byte	0x8
 845 0217 48       		.byte	0x48
 846 0218 BC000000 		.4byte	0xbc
 847 021c 02       		.byte	0x2
 848 021d 23       		.byte	0x23
 849 021e 14       		.uleb128 0x14
 850 021f 0C       		.uleb128 0xc
 851 0220 06070000 		.4byte	.LASF41
 852 0224 08       		.byte	0x8
 853 0225 4B       		.byte	0x4b
 854 0226 BC000000 		.4byte	0xbc
 855 022a 02       		.byte	0x2
 856 022b 23       		.byte	0x23
 857 022c 18       		.uleb128 0x18
 858 022d 0C       		.uleb128 0xc
 859 022e 5F050000 		.4byte	.LASF42
 860 0232 08       		.byte	0x8
 861 0233 4E       		.byte	0x4e
 862 0234 BC000000 		.4byte	0xbc
 863 0238 02       		.byte	0x2
 864 0239 23       		.byte	0x23
 865 023a 1C       		.uleb128 0x1c
ARM GAS  C:\Users\tom\AppData\Local\Temp\ccvXuUid.s 			page 18


 866 023b 0C       		.uleb128 0xc
 867 023c D5040000 		.4byte	.LASF43
 868 0240 08       		.byte	0x8
 869 0241 51       		.byte	0x51
 870 0242 BC000000 		.4byte	0xbc
 871 0246 02       		.byte	0x2
 872 0247 23       		.byte	0x23
 873 0248 20       		.uleb128 0x20
 874 0249 0C       		.uleb128 0xc
 875 024a 6E000000 		.4byte	.LASF44
 876 024e 08       		.byte	0x8
 877 024f 56       		.byte	0x56
 878 0250 BC000000 		.4byte	0xbc
 879 0254 02       		.byte	0x2
 880 0255 23       		.byte	0x23
 881 0256 24       		.uleb128 0x24
 882 0257 0C       		.uleb128 0xc
 883 0258 E0030000 		.4byte	.LASF45
 884 025c 08       		.byte	0x8
 885 025d 59       		.byte	0x59
 886 025e BC000000 		.4byte	0xbc
 887 0262 02       		.byte	0x2
 888 0263 23       		.byte	0x23
 889 0264 28       		.uleb128 0x28
 890 0265 00       		.byte	0
 891 0266 03       		.uleb128 0x3
 892 0267 FF040000 		.4byte	.LASF46
 893 026b 08       		.byte	0x8
 894 026c 5B       		.byte	0x5b
 895 026d C3010000 		.4byte	0x1c3
 896 0271 0D       		.uleb128 0xd
 897 0272 01       		.byte	0x1
 898 0273 09       		.byte	0x9
 899 0274 39       		.byte	0x39
 900 0275 86020000 		.4byte	0x286
 901 0279 09       		.uleb128 0x9
 902 027a C1070000 		.4byte	.LASF47
 903 027e 00       		.sleb128 0
 904 027f 09       		.uleb128 0x9
 905 0280 00080000 		.4byte	.LASF48
 906 0284 04       		.sleb128 4
 907 0285 00       		.byte	0
 908 0286 03       		.uleb128 0x3
 909 0287 E5010000 		.4byte	.LASF49
 910 028b 09       		.byte	0x9
 911 028c 3C       		.byte	0x3c
 912 028d 71020000 		.4byte	0x271
 913 0291 0D       		.uleb128 0xd
 914 0292 01       		.byte	0x1
 915 0293 09       		.byte	0x9
 916 0294 45       		.byte	0x45
 917 0295 AC020000 		.4byte	0x2ac
 918 0299 09       		.uleb128 0x9
 919 029a A0070000 		.4byte	.LASF50
 920 029e 08       		.sleb128 8
 921 029f 09       		.uleb128 0x9
 922 02a0 17020000 		.4byte	.LASF51
ARM GAS  C:\Users\tom\AppData\Local\Temp\ccvXuUid.s 			page 19


 923 02a4 0C       		.sleb128 12
 924 02a5 09       		.uleb128 0x9
 925 02a6 8D000000 		.4byte	.LASF52
 926 02aa 10       		.sleb128 16
 927 02ab 00       		.byte	0
 928 02ac 03       		.uleb128 0x3
 929 02ad 5F070000 		.4byte	.LASF53
 930 02b1 09       		.byte	0x9
 931 02b2 49       		.byte	0x49
 932 02b3 91020000 		.4byte	0x291
 933 02b7 0B       		.uleb128 0xb
 934 02b8 08       		.byte	0x8
 935 02b9 09       		.byte	0x9
 936 02ba 52       		.byte	0x52
 937 02bb F8020000 		.4byte	0x2f8
 938 02bf 0C       		.uleb128 0xc
 939 02c0 BB040000 		.4byte	.LASF54
 940 02c4 09       		.byte	0x9
 941 02c5 54       		.byte	0x54
 942 02c6 BC000000 		.4byte	0xbc
 943 02ca 02       		.byte	0x2
 944 02cb 23       		.byte	0x23
 945 02cc 00       		.uleb128 0
 946 02cd 0C       		.uleb128 0xc
 947 02ce 85050000 		.4byte	.LASF55
 948 02d2 09       		.byte	0x9
 949 02d3 57       		.byte	0x57
 950 02d4 86020000 		.4byte	0x286
 951 02d8 02       		.byte	0x2
 952 02d9 23       		.byte	0x23
 953 02da 04       		.uleb128 0x4
 954 02db 0C       		.uleb128 0xc
 955 02dc 3F050000 		.4byte	.LASF56
 956 02e0 09       		.byte	0x9
 957 02e1 5A       		.byte	0x5a
 958 02e2 AC020000 		.4byte	0x2ac
 959 02e6 02       		.byte	0x2
 960 02e7 23       		.byte	0x23
 961 02e8 05       		.uleb128 0x5
 962 02e9 0C       		.uleb128 0xc
 963 02ea 57000000 		.4byte	.LASF57
 964 02ee 09       		.byte	0x9
 965 02ef 5D       		.byte	0x5d
 966 02f0 03010000 		.4byte	0x103
 967 02f4 02       		.byte	0x2
 968 02f5 23       		.byte	0x23
 969 02f6 06       		.uleb128 0x6
 970 02f7 00       		.byte	0
 971 02f8 03       		.uleb128 0x3
 972 02f9 7D070000 		.4byte	.LASF58
 973 02fd 09       		.byte	0x9
 974 02fe 5F       		.byte	0x5f
 975 02ff B7020000 		.4byte	0x2b7
 976 0303 0D       		.uleb128 0xd
 977 0304 01       		.byte	0x1
 978 0305 0A       		.byte	0xa
 979 0306 41       		.byte	0x41
ARM GAS  C:\Users\tom\AppData\Local\Temp\ccvXuUid.s 			page 20


 980 0307 1E030000 		.4byte	0x31e
 981 030b 09       		.uleb128 0x9
 982 030c 46000000 		.4byte	.LASF59
 983 0310 01       		.sleb128 1
 984 0311 09       		.uleb128 0x9
 985 0312 1D060000 		.4byte	.LASF60
 986 0316 02       		.sleb128 2
 987 0317 09       		.uleb128 0x9
 988 0318 2E050000 		.4byte	.LASF61
 989 031c 03       		.sleb128 3
 990 031d 00       		.byte	0
 991 031e 03       		.uleb128 0x3
 992 031f 36030000 		.4byte	.LASF62
 993 0323 0A       		.byte	0xa
 994 0324 45       		.byte	0x45
 995 0325 03030000 		.4byte	0x303
 996 0329 0D       		.uleb128 0xd
 997 032a 01       		.byte	0x1
 998 032b 0A       		.byte	0xa
 999 032c 4E       		.byte	0x4e
 1000 032d 63030000 		.4byte	0x363
 1001 0331 09       		.uleb128 0x9
 1002 0332 43060000 		.4byte	.LASF63
 1003 0336 00       		.sleb128 0
 1004 0337 09       		.uleb128 0x9
 1005 0338 95030000 		.4byte	.LASF64
 1006 033c 04       		.sleb128 4
 1007 033d 09       		.uleb128 0x9
 1008 033e 2A010000 		.4byte	.LASF65
 1009 0342 28       		.sleb128 40
 1010 0343 09       		.uleb128 0x9
 1011 0344 84010000 		.4byte	.LASF66
 1012 0348 C800     		.sleb128 72
 1013 034a 09       		.uleb128 0x9
 1014 034b 92010000 		.4byte	.LASF67
 1015 034f 14       		.sleb128 20
 1016 0350 09       		.uleb128 0x9
 1017 0351 0F050000 		.4byte	.LASF68
 1018 0355 10       		.sleb128 16
 1019 0356 09       		.uleb128 0x9
 1020 0357 B8030000 		.4byte	.LASF69
 1021 035b 1C       		.sleb128 28
 1022 035c 09       		.uleb128 0x9
 1023 035d C5040000 		.4byte	.LASF70
 1024 0361 18       		.sleb128 24
 1025 0362 00       		.byte	0
 1026 0363 03       		.uleb128 0x3
 1027 0364 2E080000 		.4byte	.LASF71
 1028 0368 0A       		.byte	0xa
 1029 0369 56       		.byte	0x56
 1030 036a 29030000 		.4byte	0x329
 1031 036e 0B       		.uleb128 0xb
 1032 036f 04       		.byte	0x4
 1033 0370 0A       		.byte	0xa
 1034 0371 61       		.byte	0x61
 1035 0372 A1030000 		.4byte	0x3a1
 1036 0376 0C       		.uleb128 0xc
ARM GAS  C:\Users\tom\AppData\Local\Temp\ccvXuUid.s 			page 21


 1037 0377 48030000 		.4byte	.LASF72
 1038 037b 0A       		.byte	0xa
 1039 037c 63       		.byte	0x63
 1040 037d A6000000 		.4byte	0xa6
 1041 0381 02       		.byte	0x2
 1042 0382 23       		.byte	0x23
 1043 0383 00       		.uleb128 0
 1044 0384 0C       		.uleb128 0xc
 1045 0385 F3000000 		.4byte	.LASF73
 1046 0389 0A       		.byte	0xa
 1047 038a 66       		.byte	0x66
 1048 038b 1E030000 		.4byte	0x31e
 1049 038f 02       		.byte	0x2
 1050 0390 23       		.byte	0x23
 1051 0391 02       		.uleb128 0x2
 1052 0392 0C       		.uleb128 0xc
 1053 0393 73070000 		.4byte	.LASF74
 1054 0397 0A       		.byte	0xa
 1055 0398 69       		.byte	0x69
 1056 0399 63030000 		.4byte	0x363
 1057 039d 02       		.byte	0x2
 1058 039e 23       		.byte	0x23
 1059 039f 03       		.uleb128 0x3
 1060 03a0 00       		.byte	0
 1061 03a1 03       		.uleb128 0x3
 1062 03a2 DE040000 		.4byte	.LASF75
 1063 03a6 0A       		.byte	0xa
 1064 03a7 6B       		.byte	0x6b
 1065 03a8 6E030000 		.4byte	0x36e
 1066 03ac 0B       		.uleb128 0xb
 1067 03ad 12       		.byte	0x12
 1068 03ae 0B       		.byte	0xb
 1069 03af 38       		.byte	0x38
 1070 03b0 33040000 		.4byte	0x433
 1071 03b4 0C       		.uleb128 0xc
 1072 03b5 E7020000 		.4byte	.LASF76
 1073 03b9 0B       		.byte	0xb
 1074 03ba 3A       		.byte	0x3a
 1075 03bb A6000000 		.4byte	0xa6
 1076 03bf 02       		.byte	0x2
 1077 03c0 23       		.byte	0x23
 1078 03c1 00       		.uleb128 0
 1079 03c2 0C       		.uleb128 0xc
 1080 03c3 BB060000 		.4byte	.LASF77
 1081 03c7 0B       		.byte	0xb
 1082 03c8 3D       		.byte	0x3d
 1083 03c9 A6000000 		.4byte	0xa6
 1084 03cd 02       		.byte	0x2
 1085 03ce 23       		.byte	0x23
 1086 03cf 02       		.uleb128 0x2
 1087 03d0 0C       		.uleb128 0xc
 1088 03d1 D5070000 		.4byte	.LASF78
 1089 03d5 0B       		.byte	0xb
 1090 03d6 40       		.byte	0x40
 1091 03d7 A6000000 		.4byte	0xa6
 1092 03db 02       		.byte	0x2
 1093 03dc 23       		.byte	0x23
ARM GAS  C:\Users\tom\AppData\Local\Temp\ccvXuUid.s 			page 22


 1094 03dd 04       		.uleb128 0x4
 1095 03de 0C       		.uleb128 0xc
 1096 03df B8050000 		.4byte	.LASF79
 1097 03e3 0B       		.byte	0xb
 1098 03e4 43       		.byte	0x43
 1099 03e5 A6000000 		.4byte	0xa6
 1100 03e9 02       		.byte	0x2
 1101 03ea 23       		.byte	0x23
 1102 03eb 06       		.uleb128 0x6
 1103 03ec 0C       		.uleb128 0xc
 1104 03ed 3A060000 		.4byte	.LASF80
 1105 03f1 0B       		.byte	0xb
 1106 03f2 46       		.byte	0x46
 1107 03f3 A6000000 		.4byte	0xa6
 1108 03f7 02       		.byte	0x2
 1109 03f8 23       		.byte	0x23
 1110 03f9 08       		.uleb128 0x8
 1111 03fa 0C       		.uleb128 0xc
 1112 03fb E5060000 		.4byte	.LASF81
 1113 03ff 0B       		.byte	0xb
 1114 0400 49       		.byte	0x49
 1115 0401 A6000000 		.4byte	0xa6
 1116 0405 02       		.byte	0x2
 1117 0406 23       		.byte	0x23
 1118 0407 0A       		.uleb128 0xa
 1119 0408 0C       		.uleb128 0xc
 1120 0409 81060000 		.4byte	.LASF82
 1121 040d 0B       		.byte	0xb
 1122 040e 4D       		.byte	0x4d
 1123 040f A6000000 		.4byte	0xa6
 1124 0413 02       		.byte	0x2
 1125 0414 23       		.byte	0x23
 1126 0415 0C       		.uleb128 0xc
 1127 0416 0C       		.uleb128 0xc
 1128 0417 2D060000 		.4byte	.LASF83
 1129 041b 0B       		.byte	0xb
 1130 041c 53       		.byte	0x53
 1131 041d A6000000 		.4byte	0xa6
 1132 0421 02       		.byte	0x2
 1133 0422 23       		.byte	0x23
 1134 0423 0E       		.uleb128 0xe
 1135 0424 0C       		.uleb128 0xc
 1136 0425 00040000 		.4byte	.LASF84
 1137 0429 0B       		.byte	0xb
 1138 042a 56       		.byte	0x56
 1139 042b A6000000 		.4byte	0xa6
 1140 042f 02       		.byte	0x2
 1141 0430 23       		.byte	0x23
 1142 0431 10       		.uleb128 0x10
 1143 0432 00       		.byte	0
 1144 0433 03       		.uleb128 0x3
 1145 0434 12040000 		.4byte	.LASF85
 1146 0438 0B       		.byte	0xb
 1147 0439 57       		.byte	0x57
 1148 043a AC030000 		.4byte	0x3ac
 1149 043e 0B       		.uleb128 0xb
 1150 043f 0A       		.byte	0xa
ARM GAS  C:\Users\tom\AppData\Local\Temp\ccvXuUid.s 			page 23


 1151 0440 0C       		.byte	0xc
 1152 0441 39       		.byte	0x39
 1153 0442 8D040000 		.4byte	0x48d
 1154 0446 0C       		.uleb128 0xc
 1155 0447 8A040000 		.4byte	.LASF86
 1156 044b 0C       		.byte	0xc
 1157 044c 3B       		.byte	0x3b
 1158 044d A6000000 		.4byte	0xa6
 1159 0451 02       		.byte	0x2
 1160 0452 23       		.byte	0x23
 1161 0453 00       		.uleb128 0
 1162 0454 0C       		.uleb128 0xc
 1163 0455 36000000 		.4byte	.LASF87
 1164 0459 0C       		.byte	0xc
 1165 045a 3E       		.byte	0x3e
 1166 045b A6000000 		.4byte	0xa6
 1167 045f 02       		.byte	0x2
 1168 0460 23       		.byte	0x23
 1169 0461 02       		.uleb128 0x2
 1170 0462 0C       		.uleb128 0xc
 1171 0463 3F070000 		.4byte	.LASF88
 1172 0467 0C       		.byte	0xc
 1173 0468 41       		.byte	0x41
 1174 0469 A6000000 		.4byte	0xa6
 1175 046d 02       		.byte	0x2
 1176 046e 23       		.byte	0x23
 1177 046f 04       		.uleb128 0x4
 1178 0470 0C       		.uleb128 0xc
 1179 0471 71030000 		.4byte	.LASF89
 1180 0475 0C       		.byte	0xc
 1181 0476 45       		.byte	0x45
 1182 0477 A6000000 		.4byte	0xa6
 1183 047b 02       		.byte	0x2
 1184 047c 23       		.byte	0x23
 1185 047d 06       		.uleb128 0x6
 1186 047e 0C       		.uleb128 0xc
 1187 047f EA070000 		.4byte	.LASF90
 1188 0483 0C       		.byte	0xc
 1189 0484 48       		.byte	0x48
 1190 0485 9B000000 		.4byte	0x9b
 1191 0489 02       		.byte	0x2
 1192 048a 23       		.byte	0x23
 1193 048b 08       		.uleb128 0x8
 1194 048c 00       		.byte	0
 1195 048d 03       		.uleb128 0x3
 1196 048e 45080000 		.4byte	.LASF91
 1197 0492 0C       		.byte	0xc
 1198 0493 50       		.byte	0x50
 1199 0494 3E040000 		.4byte	0x43e
 1200 0498 0B       		.uleb128 0xb
 1201 0499 10       		.byte	0x10
 1202 049a 0D       		.byte	0xd
 1203 049b 38       		.byte	0x38
 1204 049c F5040000 		.4byte	0x4f5
 1205 04a0 0C       		.uleb128 0xc
 1206 04a1 A3010000 		.4byte	.LASF92
 1207 04a5 0D       		.byte	0xd
ARM GAS  C:\Users\tom\AppData\Local\Temp\ccvXuUid.s 			page 24


 1208 04a6 3A       		.byte	0x3a
 1209 04a7 BC000000 		.4byte	0xbc
 1210 04ab 02       		.byte	0x2
 1211 04ac 23       		.byte	0x23
 1212 04ad 00       		.uleb128 0
 1213 04ae 0C       		.uleb128 0xc
 1214 04af 2E070000 		.4byte	.LASF93
 1215 04b3 0D       		.byte	0xd
 1216 04b4 3F       		.byte	0x3f
 1217 04b5 A6000000 		.4byte	0xa6
 1218 04b9 02       		.byte	0x2
 1219 04ba 23       		.byte	0x23
 1220 04bb 04       		.uleb128 0x4
 1221 04bc 0C       		.uleb128 0xc
 1222 04bd 05030000 		.4byte	.LASF94
 1223 04c1 0D       		.byte	0xd
 1224 04c2 42       		.byte	0x42
 1225 04c3 A6000000 		.4byte	0xa6
 1226 04c7 02       		.byte	0x2
 1227 04c8 23       		.byte	0x23
 1228 04c9 06       		.uleb128 0x6
 1229 04ca 0C       		.uleb128 0xc
 1230 04cb 38010000 		.4byte	.LASF95
 1231 04cf 0D       		.byte	0xd
 1232 04d0 45       		.byte	0x45
 1233 04d1 A6000000 		.4byte	0xa6
 1234 04d5 02       		.byte	0x2
 1235 04d6 23       		.byte	0x23
 1236 04d7 08       		.uleb128 0x8
 1237 04d8 0C       		.uleb128 0xc
 1238 04d9 68010000 		.4byte	.LASF96
 1239 04dd 0D       		.byte	0xd
 1240 04de 4C       		.byte	0x4c
 1241 04df A6000000 		.4byte	0xa6
 1242 04e3 02       		.byte	0x2
 1243 04e4 23       		.byte	0x23
 1244 04e5 0A       		.uleb128 0xa
 1245 04e6 0C       		.uleb128 0xc
 1246 04e7 2C020000 		.4byte	.LASF97
 1247 04eb 0D       		.byte	0xd
 1248 04ec 4F       		.byte	0x4f
 1249 04ed A6000000 		.4byte	0xa6
 1250 04f1 02       		.byte	0x2
 1251 04f2 23       		.byte	0x23
 1252 04f3 0C       		.uleb128 0xc
 1253 04f4 00       		.byte	0
 1254 04f5 03       		.uleb128 0x3
 1255 04f6 44040000 		.4byte	.LASF98
 1256 04fa 0D       		.byte	0xd
 1257 04fb 52       		.byte	0x52
 1258 04fc 98040000 		.4byte	0x498
 1259 0500 0B       		.uleb128 0xb
 1260 0501 04       		.byte	0x4
 1261 0502 0E       		.byte	0xe
 1262 0503 38       		.byte	0x38
 1263 0504 41050000 		.4byte	0x541
 1264 0508 0C       		.uleb128 0xc
ARM GAS  C:\Users\tom\AppData\Local\Temp\ccvXuUid.s 			page 25


 1265 0509 26030000 		.4byte	.LASF99
 1266 050d 0E       		.byte	0xe
 1267 050e 3A       		.byte	0x3a
 1268 050f 9B000000 		.4byte	0x9b
 1269 0513 02       		.byte	0x2
 1270 0514 23       		.byte	0x23
 1271 0515 00       		.uleb128 0
 1272 0516 0C       		.uleb128 0xc
 1273 0517 22040000 		.4byte	.LASF100
 1274 051b 0E       		.byte	0xe
 1275 051c 3F       		.byte	0x3f
 1276 051d 9B000000 		.4byte	0x9b
 1277 0521 02       		.byte	0x2
 1278 0522 23       		.byte	0x23
 1279 0523 01       		.uleb128 0x1
 1280 0524 0C       		.uleb128 0xc
 1281 0525 A0060000 		.4byte	.LASF101
 1282 0529 0E       		.byte	0xe
 1283 052a 43       		.byte	0x43
 1284 052b 9B000000 		.4byte	0x9b
 1285 052f 02       		.byte	0x2
 1286 0530 23       		.byte	0x23
 1287 0531 02       		.uleb128 0x2
 1288 0532 0C       		.uleb128 0xc
 1289 0533 07000000 		.4byte	.LASF102
 1290 0537 0E       		.byte	0xe
 1291 0538 47       		.byte	0x47
 1292 0539 03010000 		.4byte	0x103
 1293 053d 02       		.byte	0x2
 1294 053e 23       		.byte	0x23
 1295 053f 03       		.uleb128 0x3
 1296 0540 00       		.byte	0
 1297 0541 03       		.uleb128 0x3
 1298 0542 56040000 		.4byte	.LASF103
 1299 0546 0E       		.byte	0xe
 1300 0547 4A       		.byte	0x4a
 1301 0548 00050000 		.4byte	0x500
 1302 054c 0E       		.uleb128 0xe
 1303 054d 1F080000 		.4byte	.LASF126
 1304 0551 01       		.byte	0x1
 1305 0552 47       		.byte	0x47
 1306 0553 01       		.byte	0x1
 1307 0554 C7000000 		.4byte	0xc7
 1308 0558 01       		.byte	0x1
 1309 0559 8A050000 		.4byte	0x58a
 1310 055d 0F       		.uleb128 0xf
 1311 055e 3F080000 		.4byte	.LASF104
 1312 0562 01       		.byte	0x1
 1313 0563 47       		.byte	0x47
 1314 0564 C7000000 		.4byte	0xc7
 1315 0568 10       		.uleb128 0x10
 1316 0569 656E6400 		.ascii	"end\000"
 1317 056d 01       		.byte	0x1
 1318 056e 47       		.byte	0x47
 1319 056f C7000000 		.4byte	0xc7
 1320 0573 11       		.uleb128 0x11
 1321 0574 7000     		.ascii	"p\000"
ARM GAS  C:\Users\tom\AppData\Local\Temp\ccvXuUid.s 			page 26


 1322 0576 01       		.byte	0x1
 1323 0577 49       		.byte	0x49
 1324 0578 DB000000 		.4byte	0xdb
 1325 057c 12       		.uleb128 0x12
 1326 057d 13       		.uleb128 0x13
 1327 057e C8030000 		.4byte	.LASF105
 1328 0582 01       		.byte	0x1
 1329 0583 4B       		.byte	0x4b
 1330 0584 C7000000 		.4byte	0xc7
 1331 0588 00       		.byte	0
 1332 0589 00       		.byte	0
 1333 058a 14       		.uleb128 0x14
 1334 058b 01       		.byte	0x1
 1335 058c D6000000 		.4byte	.LASF106
 1336 0590 01       		.byte	0x1
 1337 0591 28       		.byte	0x28
 1338 0592 01       		.byte	0x1
 1339 0593 00000000 		.4byte	.LFB56
 1340 0597 20000000 		.4byte	.LFE56
 1341 059b 00000000 		.4byte	.LLST0
 1342 059f 01       		.byte	0x1
 1343 05a0 B0050000 		.4byte	0x5b0
 1344 05a4 15       		.uleb128 0x15
 1345 05a5 6E00     		.ascii	"n\000"
 1346 05a7 01       		.byte	0x1
 1347 05a8 28       		.byte	0x28
 1348 05a9 B0050000 		.4byte	0x5b0
 1349 05ad 01       		.byte	0x1
 1350 05ae 50       		.byte	0x50
 1351 05af 00       		.byte	0
 1352 05b0 07       		.uleb128 0x7
 1353 05b1 78000000 		.4byte	0x78
 1354 05b5 14       		.uleb128 0x14
 1355 05b6 01       		.byte	0x1
 1356 05b7 62060000 		.4byte	.LASF107
 1357 05bb 01       		.byte	0x1
 1358 05bc 2F       		.byte	0x2f
 1359 05bd 01       		.byte	0x1
 1360 05be 00000000 		.4byte	.LFB57
 1361 05c2 1C000000 		.4byte	.LFE57
 1362 05c6 2C000000 		.4byte	.LLST1
 1363 05ca 01       		.byte	0x1
 1364 05cb EE050000 		.4byte	0x5ee
 1365 05cf 16       		.uleb128 0x16
 1366 05d0 6E00     		.ascii	"n\000"
 1367 05d2 01       		.byte	0x1
 1368 05d3 2F       		.byte	0x2f
 1369 05d4 B0050000 		.4byte	0x5b0
 1370 05d8 58000000 		.4byte	.LLST2
 1371 05dc 17       		.uleb128 0x17
 1372 05dd 14000000 		.4byte	.LVL3
 1373 05e1 8A050000 		.4byte	0x58a
 1374 05e5 18       		.uleb128 0x18
 1375 05e6 01       		.byte	0x1
 1376 05e7 50       		.byte	0x50
 1377 05e8 03       		.byte	0x3
 1378 05e9 0A       		.byte	0xa
ARM GAS  C:\Users\tom\AppData\Local\Temp\ccvXuUid.s 			page 27


 1379 05ea E803     		.2byte	0x3e8
 1380 05ec 00       		.byte	0
 1381 05ed 00       		.byte	0
 1382 05ee 14       		.uleb128 0x14
 1383 05ef 01       		.byte	0x1
 1384 05f0 A1040000 		.4byte	.LASF108
 1385 05f4 01       		.byte	0x1
 1386 05f5 36       		.byte	0x36
 1387 05f6 01       		.byte	0x1
 1388 05f7 00000000 		.4byte	.LFB58
 1389 05fb 18000000 		.4byte	.LFE58
 1390 05ff 79000000 		.4byte	.LLST3
 1391 0603 01       		.byte	0x1
 1392 0604 16060000 		.4byte	0x616
 1393 0608 15       		.uleb128 0x15
 1394 0609 6E6D7300 		.ascii	"nms\000"
 1395 060d 01       		.byte	0x1
 1396 060e 36       		.byte	0x36
 1397 060f B0050000 		.4byte	0x5b0
 1398 0613 01       		.byte	0x1
 1399 0614 50       		.byte	0x50
 1400 0615 00       		.byte	0
 1401 0616 19       		.uleb128 0x19
 1402 0617 01       		.byte	0x1
 1403 0618 F6010000 		.4byte	.LASF127
 1404 061c 01       		.byte	0x1
 1405 061d 3C       		.byte	0x3c
 1406 061e 01       		.byte	0x1
 1407 061f 00000000 		.4byte	.LFB59
 1408 0623 14000000 		.4byte	.LFE59
 1409 0627 02       		.byte	0x2
 1410 0628 7D       		.byte	0x7d
 1411 0629 00       		.sleb128 0
 1412 062a 01       		.byte	0x1
 1413 062b 1A       		.uleb128 0x1a
 1414 062c 01       		.byte	0x1
 1415 062d D9010000 		.4byte	.LASF109
 1416 0631 01       		.byte	0x1
 1417 0632 42       		.byte	0x42
 1418 0633 01       		.byte	0x1
 1419 0634 3B000000 		.4byte	0x3b
 1420 0638 00000000 		.4byte	.LFB60
 1421 063c 0C000000 		.4byte	.LFE60
 1422 0640 02       		.byte	0x2
 1423 0641 7D       		.byte	0x7d
 1424 0642 00       		.sleb128 0
 1425 0643 01       		.byte	0x1
 1426 0644 56060000 		.4byte	0x656
 1427 0648 16       		.uleb128 0x16
 1428 0649 6300     		.ascii	"c\000"
 1429 064b 01       		.byte	0x1
 1430 064c 42       		.byte	0x42
 1431 064d 3B000000 		.4byte	0x3b
 1432 0651 A5000000 		.4byte	.LLST4
 1433 0655 00       		.byte	0
 1434 0656 1B       		.uleb128 0x1b
 1435 0657 01       		.byte	0x1
ARM GAS  C:\Users\tom\AppData\Local\Temp\ccvXuUid.s 			page 28


 1436 0658 B4070000 		.4byte	.LASF110
 1437 065c 01       		.byte	0x1
 1438 065d 5A       		.byte	0x5a
 1439 065e 01       		.byte	0x1
 1440 065f C7000000 		.4byte	0xc7
 1441 0663 00000000 		.4byte	.LFB62
 1442 0667 2E000000 		.4byte	.LFE62
 1443 066b C6000000 		.4byte	.LLST5
 1444 066f 01       		.byte	0x1
 1445 0670 D6060000 		.4byte	0x6d6
 1446 0674 1C       		.uleb128 0x1c
 1447 0675 4C050000 		.4byte	0x54c
 1448 0679 02000000 		.4byte	.LBB6
 1449 067d 2C000000 		.4byte	.LBE6
 1450 0681 01       		.byte	0x1
 1451 0682 5C       		.byte	0x5c
 1452 0683 1D       		.uleb128 0x1d
 1453 0684 5D050000 		.4byte	0x55d
 1454 0688 E6000000 		.4byte	.LLST6
 1455 068c 1D       		.uleb128 0x1d
 1456 068d 68050000 		.4byte	0x568
 1457 0691 1B010000 		.4byte	.LLST7
 1458 0695 1E       		.uleb128 0x1e
 1459 0696 02000000 		.4byte	.LBB7
 1460 069a 2C000000 		.4byte	.LBE7
 1461 069e 1F       		.uleb128 0x1f
 1462 069f 73050000 		.4byte	0x573
 1463 06a3 3C010000 		.4byte	.LLST8
 1464 06a7 20       		.uleb128 0x20
 1465 06a8 00000000 		.4byte	.Ldebug_ranges0+0
 1466 06ac 1F       		.uleb128 0x1f
 1467 06ad 7D050000 		.4byte	0x57d
 1468 06b1 5A010000 		.4byte	.LLST9
 1469 06b5 21       		.uleb128 0x21
 1470 06b6 1A000000 		.4byte	.LVL11
 1471 06ba BF070000 		.4byte	0x7bf
 1472 06be C9060000 		.4byte	0x6c9
 1473 06c2 18       		.uleb128 0x18
 1474 06c3 01       		.byte	0x1
 1475 06c4 50       		.byte	0x50
 1476 06c5 02       		.byte	0x2
 1477 06c6 74       		.byte	0x74
 1478 06c7 00       		.sleb128 0
 1479 06c8 00       		.byte	0
 1480 06c9 22       		.uleb128 0x22
 1481 06ca 20000000 		.4byte	.LVL12
 1482 06ce D7070000 		.4byte	0x7d7
 1483 06d2 00       		.byte	0
 1484 06d3 00       		.byte	0
 1485 06d4 00       		.byte	0
 1486 06d5 00       		.byte	0
 1487 06d6 23       		.uleb128 0x23
 1488 06d7 FE000000 		.4byte	.LASF111
 1489 06db 0F       		.byte	0xf
 1490 06dc 0606     		.2byte	0x606
 1491 06de E8000000 		.4byte	0xe8
 1492 06e2 01       		.byte	0x1
ARM GAS  C:\Users\tom\AppData\Local\Temp\ccvXuUid.s 			page 29


 1493 06e3 01       		.byte	0x1
 1494 06e4 24       		.uleb128 0x24
 1495 06e5 E0000000 		.4byte	.LASF112
 1496 06e9 01       		.byte	0x1
 1497 06ea 03       		.byte	0x3
 1498 06eb A1030000 		.4byte	0x3a1
 1499 06ef 01       		.byte	0x1
 1500 06f0 05       		.byte	0x5
 1501 06f1 03       		.byte	0x3
 1502 06f2 00000000 		.4byte	GPIO_InitStructure
 1503 06f6 24       		.uleb128 0x24
 1504 06f7 8E070000 		.4byte	.LASF113
 1505 06fb 01       		.byte	0x1
 1506 06fc 04       		.byte	0x4
 1507 06fd 33040000 		.4byte	0x433
 1508 0701 01       		.byte	0x1
 1509 0702 05       		.byte	0x5
 1510 0703 03       		.byte	0x3
 1511 0704 00000000 		.4byte	SPI_InitStructure
 1512 0708 24       		.uleb128 0x24
 1513 0709 56010000 		.4byte	.LASF114
 1514 070d 01       		.byte	0x1
 1515 070e 05       		.byte	0x5
 1516 070f 66020000 		.4byte	0x266
 1517 0713 01       		.byte	0x1
 1518 0714 05       		.byte	0x5
 1519 0715 03       		.byte	0x3
 1520 0716 00000000 		.4byte	DMA_InitStructure
 1521 071a 24       		.uleb128 0x24
 1522 071b 51030000 		.4byte	.LASF115
 1523 071f 01       		.byte	0x1
 1524 0720 06       		.byte	0x6
 1525 0721 41050000 		.4byte	0x541
 1526 0725 01       		.byte	0x1
 1527 0726 05       		.byte	0x5
 1528 0727 03       		.byte	0x3
 1529 0728 00000000 		.4byte	NVIC_InitStructure
 1530 072c 24       		.uleb128 0x24
 1531 072d C1050000 		.4byte	.LASF116
 1532 0731 01       		.byte	0x1
 1533 0732 07       		.byte	0x7
 1534 0733 F5040000 		.4byte	0x4f5
 1535 0737 01       		.byte	0x1
 1536 0738 05       		.byte	0x5
 1537 0739 03       		.byte	0x3
 1538 073a 00000000 		.4byte	USART_InitStructure
 1539 073e 24       		.uleb128 0x24
 1540 073f 72050000 		.4byte	.LASF117
 1541 0743 01       		.byte	0x1
 1542 0744 08       		.byte	0x8
 1543 0745 F8020000 		.4byte	0x2f8
 1544 0749 01       		.byte	0x1
 1545 074a 05       		.byte	0x5
 1546 074b 03       		.byte	0x3
 1547 074c 00000000 		.4byte	EXTI_InitStructure
 1548 0750 24       		.uleb128 0x24
 1549 0751 14030000 		.4byte	.LASF118
ARM GAS  C:\Users\tom\AppData\Local\Temp\ccvXuUid.s 			page 30


 1550 0755 01       		.byte	0x1
 1551 0756 09       		.byte	0x9
 1552 0757 B8010000 		.4byte	0x1b8
 1553 075b 01       		.byte	0x1
 1554 075c 05       		.byte	0x5
 1555 075d 03       		.byte	0x3
 1556 075e 00000000 		.4byte	DAC_InitStructure
 1557 0762 24       		.uleb128 0x24
 1558 0763 E8030000 		.4byte	.LASF119
 1559 0767 01       		.byte	0x1
 1560 0768 0A       		.byte	0xa
 1561 0769 6C010000 		.4byte	0x16c
 1562 076d 01       		.byte	0x1
 1563 076e 05       		.byte	0x5
 1564 076f 03       		.byte	0x3
 1565 0770 00000000 		.4byte	ADC_InitStructure
 1566 0774 24       		.uleb128 0x24
 1567 0775 A2050000 		.4byte	.LASF120
 1568 0779 01       		.byte	0x1
 1569 077a 0B       		.byte	0xb
 1570 077b 8D040000 		.4byte	0x48d
 1571 077f 01       		.byte	0x1
 1572 0780 05       		.byte	0x5
 1573 0781 03       		.byte	0x3
 1574 0782 00000000 		.4byte	TIM_TimeBaseStructure
 1575 0786 25       		.uleb128 0x25
 1576 0787 3B000000 		.4byte	0x3b
 1577 078b 96070000 		.4byte	0x796
 1578 078f 26       		.uleb128 0x26
 1579 0790 D2000000 		.4byte	0xd2
 1580 0794 FF       		.byte	0xff
 1581 0795 00       		.byte	0
 1582 0796 24       		.uleb128 0x24
 1583 0797 45010000 		.4byte	.LASF121
 1584 079b 01       		.byte	0x1
 1585 079c 0D       		.byte	0xd
 1586 079d A8070000 		.4byte	0x7a8
 1587 07a1 01       		.byte	0x1
 1588 07a2 05       		.byte	0x5
 1589 07a3 03       		.byte	0x3
 1590 07a4 00000000 		.4byte	ByteReverseTable
 1591 07a8 27       		.uleb128 0x27
 1592 07a9 86070000 		.4byte	0x786
 1593 07ad 24       		.uleb128 0x24
 1594 07ae FA030000 		.4byte	.LASF122
 1595 07b2 01       		.byte	0x1
 1596 07b3 26       		.byte	0x26
 1597 07b4 B0050000 		.4byte	0x5b0
 1598 07b8 01       		.byte	0x1
 1599 07b9 05       		.byte	0x5
 1600 07ba 03       		.byte	0x3
 1601 07bb 00000000 		.4byte	g_nms
 1602 07bf 28       		.uleb128 0x28
 1603 07c0 01       		.byte	0x1
 1604 07c1 00000000 		.4byte	.LASF128
 1605 07c5 10       		.byte	0x10
 1606 07c6 61       		.byte	0x61
ARM GAS  C:\Users\tom\AppData\Local\Temp\ccvXuUid.s 			page 31


 1607 07c7 01       		.byte	0x1
 1608 07c8 D9000000 		.4byte	0xd9
 1609 07cc 01       		.byte	0x1
 1610 07cd D7070000 		.4byte	0x7d7
 1611 07d1 29       		.uleb128 0x29
 1612 07d2 C7000000 		.4byte	0xc7
 1613 07d6 00       		.byte	0
 1614 07d7 2A       		.uleb128 0x2a
 1615 07d8 01       		.byte	0x1
 1616 07d9 0B010000 		.4byte	.LASF129
 1617 07dd 10       		.byte	0x10
 1618 07de 56       		.byte	0x56
 1619 07df 01       		.byte	0x1
 1620 07e0 01       		.byte	0x1
 1621 07e1 29       		.uleb128 0x29
 1622 07e2 D9000000 		.4byte	0xd9
 1623 07e6 00       		.byte	0
 1624 07e7 00       		.byte	0
 1625              		.section	.debug_abbrev,"",%progbits
 1626              	.Ldebug_abbrev0:
 1627 0000 01       		.uleb128 0x1
 1628 0001 11       		.uleb128 0x11
 1629 0002 01       		.byte	0x1
 1630 0003 25       		.uleb128 0x25
 1631 0004 0E       		.uleb128 0xe
 1632 0005 13       		.uleb128 0x13
 1633 0006 0B       		.uleb128 0xb
 1634 0007 03       		.uleb128 0x3
 1635 0008 0E       		.uleb128 0xe
 1636 0009 1B       		.uleb128 0x1b
 1637 000a 0E       		.uleb128 0xe
 1638 000b 55       		.uleb128 0x55
 1639 000c 06       		.uleb128 0x6
 1640 000d 11       		.uleb128 0x11
 1641 000e 01       		.uleb128 0x1
 1642 000f 52       		.uleb128 0x52
 1643 0010 01       		.uleb128 0x1
 1644 0011 10       		.uleb128 0x10
 1645 0012 06       		.uleb128 0x6
 1646 0013 00       		.byte	0
 1647 0014 00       		.byte	0
 1648 0015 02       		.uleb128 0x2
 1649 0016 24       		.uleb128 0x24
 1650 0017 00       		.byte	0
 1651 0018 0B       		.uleb128 0xb
 1652 0019 0B       		.uleb128 0xb
 1653 001a 3E       		.uleb128 0x3e
 1654 001b 0B       		.uleb128 0xb
 1655 001c 03       		.uleb128 0x3
 1656 001d 0E       		.uleb128 0xe
 1657 001e 00       		.byte	0
 1658 001f 00       		.byte	0
 1659 0020 03       		.uleb128 0x3
 1660 0021 16       		.uleb128 0x16
 1661 0022 00       		.byte	0
 1662 0023 03       		.uleb128 0x3
 1663 0024 0E       		.uleb128 0xe
ARM GAS  C:\Users\tom\AppData\Local\Temp\ccvXuUid.s 			page 32


 1664 0025 3A       		.uleb128 0x3a
 1665 0026 0B       		.uleb128 0xb
 1666 0027 3B       		.uleb128 0x3b
 1667 0028 0B       		.uleb128 0xb
 1668 0029 49       		.uleb128 0x49
 1669 002a 13       		.uleb128 0x13
 1670 002b 00       		.byte	0
 1671 002c 00       		.byte	0
 1672 002d 04       		.uleb128 0x4
 1673 002e 24       		.uleb128 0x24
 1674 002f 00       		.byte	0
 1675 0030 0B       		.uleb128 0xb
 1676 0031 0B       		.uleb128 0xb
 1677 0032 3E       		.uleb128 0x3e
 1678 0033 0B       		.uleb128 0xb
 1679 0034 03       		.uleb128 0x3
 1680 0035 08       		.uleb128 0x8
 1681 0036 00       		.byte	0
 1682 0037 00       		.byte	0
 1683 0038 05       		.uleb128 0x5
 1684 0039 0F       		.uleb128 0xf
 1685 003a 00       		.byte	0
 1686 003b 0B       		.uleb128 0xb
 1687 003c 0B       		.uleb128 0xb
 1688 003d 00       		.byte	0
 1689 003e 00       		.byte	0
 1690 003f 06       		.uleb128 0x6
 1691 0040 0F       		.uleb128 0xf
 1692 0041 00       		.byte	0
 1693 0042 0B       		.uleb128 0xb
 1694 0043 0B       		.uleb128 0xb
 1695 0044 49       		.uleb128 0x49
 1696 0045 13       		.uleb128 0x13
 1697 0046 00       		.byte	0
 1698 0047 00       		.byte	0
 1699 0048 07       		.uleb128 0x7
 1700 0049 35       		.uleb128 0x35
 1701 004a 00       		.byte	0
 1702 004b 49       		.uleb128 0x49
 1703 004c 13       		.uleb128 0x13
 1704 004d 00       		.byte	0
 1705 004e 00       		.byte	0
 1706 004f 08       		.uleb128 0x8
 1707 0050 04       		.uleb128 0x4
 1708 0051 01       		.byte	0x1
 1709 0052 0B       		.uleb128 0xb
 1710 0053 0B       		.uleb128 0xb
 1711 0054 3A       		.uleb128 0x3a
 1712 0055 0B       		.uleb128 0xb
 1713 0056 3B       		.uleb128 0x3b
 1714 0057 05       		.uleb128 0x5
 1715 0058 01       		.uleb128 0x1
 1716 0059 13       		.uleb128 0x13
 1717 005a 00       		.byte	0
 1718 005b 00       		.byte	0
 1719 005c 09       		.uleb128 0x9
 1720 005d 28       		.uleb128 0x28
ARM GAS  C:\Users\tom\AppData\Local\Temp\ccvXuUid.s 			page 33


 1721 005e 00       		.byte	0
 1722 005f 03       		.uleb128 0x3
 1723 0060 0E       		.uleb128 0xe
 1724 0061 1C       		.uleb128 0x1c
 1725 0062 0D       		.uleb128 0xd
 1726 0063 00       		.byte	0
 1727 0064 00       		.byte	0
 1728 0065 0A       		.uleb128 0xa
 1729 0066 16       		.uleb128 0x16
 1730 0067 00       		.byte	0
 1731 0068 03       		.uleb128 0x3
 1732 0069 0E       		.uleb128 0xe
 1733 006a 3A       		.uleb128 0x3a
 1734 006b 0B       		.uleb128 0xb
 1735 006c 3B       		.uleb128 0x3b
 1736 006d 05       		.uleb128 0x5
 1737 006e 49       		.uleb128 0x49
 1738 006f 13       		.uleb128 0x13
 1739 0070 00       		.byte	0
 1740 0071 00       		.byte	0
 1741 0072 0B       		.uleb128 0xb
 1742 0073 13       		.uleb128 0x13
 1743 0074 01       		.byte	0x1
 1744 0075 0B       		.uleb128 0xb
 1745 0076 0B       		.uleb128 0xb
 1746 0077 3A       		.uleb128 0x3a
 1747 0078 0B       		.uleb128 0xb
 1748 0079 3B       		.uleb128 0x3b
 1749 007a 0B       		.uleb128 0xb
 1750 007b 01       		.uleb128 0x1
 1751 007c 13       		.uleb128 0x13
 1752 007d 00       		.byte	0
 1753 007e 00       		.byte	0
 1754 007f 0C       		.uleb128 0xc
 1755 0080 0D       		.uleb128 0xd
 1756 0081 00       		.byte	0
 1757 0082 03       		.uleb128 0x3
 1758 0083 0E       		.uleb128 0xe
 1759 0084 3A       		.uleb128 0x3a
 1760 0085 0B       		.uleb128 0xb
 1761 0086 3B       		.uleb128 0x3b
 1762 0087 0B       		.uleb128 0xb
 1763 0088 49       		.uleb128 0x49
 1764 0089 13       		.uleb128 0x13
 1765 008a 38       		.uleb128 0x38
 1766 008b 0A       		.uleb128 0xa
 1767 008c 00       		.byte	0
 1768 008d 00       		.byte	0
 1769 008e 0D       		.uleb128 0xd
 1770 008f 04       		.uleb128 0x4
 1771 0090 01       		.byte	0x1
 1772 0091 0B       		.uleb128 0xb
 1773 0092 0B       		.uleb128 0xb
 1774 0093 3A       		.uleb128 0x3a
 1775 0094 0B       		.uleb128 0xb
 1776 0095 3B       		.uleb128 0x3b
 1777 0096 0B       		.uleb128 0xb
ARM GAS  C:\Users\tom\AppData\Local\Temp\ccvXuUid.s 			page 34


 1778 0097 01       		.uleb128 0x1
 1779 0098 13       		.uleb128 0x13
 1780 0099 00       		.byte	0
 1781 009a 00       		.byte	0
 1782 009b 0E       		.uleb128 0xe
 1783 009c 2E       		.uleb128 0x2e
 1784 009d 01       		.byte	0x1
 1785 009e 03       		.uleb128 0x3
 1786 009f 0E       		.uleb128 0xe
 1787 00a0 3A       		.uleb128 0x3a
 1788 00a1 0B       		.uleb128 0xb
 1789 00a2 3B       		.uleb128 0x3b
 1790 00a3 0B       		.uleb128 0xb
 1791 00a4 27       		.uleb128 0x27
 1792 00a5 0C       		.uleb128 0xc
 1793 00a6 49       		.uleb128 0x49
 1794 00a7 13       		.uleb128 0x13
 1795 00a8 20       		.uleb128 0x20
 1796 00a9 0B       		.uleb128 0xb
 1797 00aa 01       		.uleb128 0x1
 1798 00ab 13       		.uleb128 0x13
 1799 00ac 00       		.byte	0
 1800 00ad 00       		.byte	0
 1801 00ae 0F       		.uleb128 0xf
 1802 00af 05       		.uleb128 0x5
 1803 00b0 00       		.byte	0
 1804 00b1 03       		.uleb128 0x3
 1805 00b2 0E       		.uleb128 0xe
 1806 00b3 3A       		.uleb128 0x3a
 1807 00b4 0B       		.uleb128 0xb
 1808 00b5 3B       		.uleb128 0x3b
 1809 00b6 0B       		.uleb128 0xb
 1810 00b7 49       		.uleb128 0x49
 1811 00b8 13       		.uleb128 0x13
 1812 00b9 00       		.byte	0
 1813 00ba 00       		.byte	0
 1814 00bb 10       		.uleb128 0x10
 1815 00bc 05       		.uleb128 0x5
 1816 00bd 00       		.byte	0
 1817 00be 03       		.uleb128 0x3
 1818 00bf 08       		.uleb128 0x8
 1819 00c0 3A       		.uleb128 0x3a
 1820 00c1 0B       		.uleb128 0xb
 1821 00c2 3B       		.uleb128 0x3b
 1822 00c3 0B       		.uleb128 0xb
 1823 00c4 49       		.uleb128 0x49
 1824 00c5 13       		.uleb128 0x13
 1825 00c6 00       		.byte	0
 1826 00c7 00       		.byte	0
 1827 00c8 11       		.uleb128 0x11
 1828 00c9 34       		.uleb128 0x34
 1829 00ca 00       		.byte	0
 1830 00cb 03       		.uleb128 0x3
 1831 00cc 08       		.uleb128 0x8
 1832 00cd 3A       		.uleb128 0x3a
 1833 00ce 0B       		.uleb128 0xb
 1834 00cf 3B       		.uleb128 0x3b
ARM GAS  C:\Users\tom\AppData\Local\Temp\ccvXuUid.s 			page 35


 1835 00d0 0B       		.uleb128 0xb
 1836 00d1 49       		.uleb128 0x49
 1837 00d2 13       		.uleb128 0x13
 1838 00d3 00       		.byte	0
 1839 00d4 00       		.byte	0
 1840 00d5 12       		.uleb128 0x12
 1841 00d6 0B       		.uleb128 0xb
 1842 00d7 01       		.byte	0x1
 1843 00d8 00       		.byte	0
 1844 00d9 00       		.byte	0
 1845 00da 13       		.uleb128 0x13
 1846 00db 34       		.uleb128 0x34
 1847 00dc 00       		.byte	0
 1848 00dd 03       		.uleb128 0x3
 1849 00de 0E       		.uleb128 0xe
 1850 00df 3A       		.uleb128 0x3a
 1851 00e0 0B       		.uleb128 0xb
 1852 00e1 3B       		.uleb128 0x3b
 1853 00e2 0B       		.uleb128 0xb
 1854 00e3 49       		.uleb128 0x49
 1855 00e4 13       		.uleb128 0x13
 1856 00e5 00       		.byte	0
 1857 00e6 00       		.byte	0
 1858 00e7 14       		.uleb128 0x14
 1859 00e8 2E       		.uleb128 0x2e
 1860 00e9 01       		.byte	0x1
 1861 00ea 3F       		.uleb128 0x3f
 1862 00eb 0C       		.uleb128 0xc
 1863 00ec 03       		.uleb128 0x3
 1864 00ed 0E       		.uleb128 0xe
 1865 00ee 3A       		.uleb128 0x3a
 1866 00ef 0B       		.uleb128 0xb
 1867 00f0 3B       		.uleb128 0x3b
 1868 00f1 0B       		.uleb128 0xb
 1869 00f2 27       		.uleb128 0x27
 1870 00f3 0C       		.uleb128 0xc
 1871 00f4 11       		.uleb128 0x11
 1872 00f5 01       		.uleb128 0x1
 1873 00f6 12       		.uleb128 0x12
 1874 00f7 01       		.uleb128 0x1
 1875 00f8 40       		.uleb128 0x40
 1876 00f9 06       		.uleb128 0x6
 1877 00fa 9742     		.uleb128 0x2117
 1878 00fc 0C       		.uleb128 0xc
 1879 00fd 01       		.uleb128 0x1
 1880 00fe 13       		.uleb128 0x13
 1881 00ff 00       		.byte	0
 1882 0100 00       		.byte	0
 1883 0101 15       		.uleb128 0x15
 1884 0102 05       		.uleb128 0x5
 1885 0103 00       		.byte	0
 1886 0104 03       		.uleb128 0x3
 1887 0105 08       		.uleb128 0x8
 1888 0106 3A       		.uleb128 0x3a
 1889 0107 0B       		.uleb128 0xb
 1890 0108 3B       		.uleb128 0x3b
 1891 0109 0B       		.uleb128 0xb
ARM GAS  C:\Users\tom\AppData\Local\Temp\ccvXuUid.s 			page 36


 1892 010a 49       		.uleb128 0x49
 1893 010b 13       		.uleb128 0x13
 1894 010c 02       		.uleb128 0x2
 1895 010d 0A       		.uleb128 0xa
 1896 010e 00       		.byte	0
 1897 010f 00       		.byte	0
 1898 0110 16       		.uleb128 0x16
 1899 0111 05       		.uleb128 0x5
 1900 0112 00       		.byte	0
 1901 0113 03       		.uleb128 0x3
 1902 0114 08       		.uleb128 0x8
 1903 0115 3A       		.uleb128 0x3a
 1904 0116 0B       		.uleb128 0xb
 1905 0117 3B       		.uleb128 0x3b
 1906 0118 0B       		.uleb128 0xb
 1907 0119 49       		.uleb128 0x49
 1908 011a 13       		.uleb128 0x13
 1909 011b 02       		.uleb128 0x2
 1910 011c 06       		.uleb128 0x6
 1911 011d 00       		.byte	0
 1912 011e 00       		.byte	0
 1913 011f 17       		.uleb128 0x17
 1914 0120 898201   		.uleb128 0x4109
 1915 0123 01       		.byte	0x1
 1916 0124 11       		.uleb128 0x11
 1917 0125 01       		.uleb128 0x1
 1918 0126 31       		.uleb128 0x31
 1919 0127 13       		.uleb128 0x13
 1920 0128 00       		.byte	0
 1921 0129 00       		.byte	0
 1922 012a 18       		.uleb128 0x18
 1923 012b 8A8201   		.uleb128 0x410a
 1924 012e 00       		.byte	0
 1925 012f 02       		.uleb128 0x2
 1926 0130 0A       		.uleb128 0xa
 1927 0131 9142     		.uleb128 0x2111
 1928 0133 0A       		.uleb128 0xa
 1929 0134 00       		.byte	0
 1930 0135 00       		.byte	0
 1931 0136 19       		.uleb128 0x19
 1932 0137 2E       		.uleb128 0x2e
 1933 0138 00       		.byte	0
 1934 0139 3F       		.uleb128 0x3f
 1935 013a 0C       		.uleb128 0xc
 1936 013b 03       		.uleb128 0x3
 1937 013c 0E       		.uleb128 0xe
 1938 013d 3A       		.uleb128 0x3a
 1939 013e 0B       		.uleb128 0xb
 1940 013f 3B       		.uleb128 0x3b
 1941 0140 0B       		.uleb128 0xb
 1942 0141 27       		.uleb128 0x27
 1943 0142 0C       		.uleb128 0xc
 1944 0143 11       		.uleb128 0x11
 1945 0144 01       		.uleb128 0x1
 1946 0145 12       		.uleb128 0x12
 1947 0146 01       		.uleb128 0x1
 1948 0147 40       		.uleb128 0x40
ARM GAS  C:\Users\tom\AppData\Local\Temp\ccvXuUid.s 			page 37


 1949 0148 0A       		.uleb128 0xa
 1950 0149 9742     		.uleb128 0x2117
 1951 014b 0C       		.uleb128 0xc
 1952 014c 00       		.byte	0
 1953 014d 00       		.byte	0
 1954 014e 1A       		.uleb128 0x1a
 1955 014f 2E       		.uleb128 0x2e
 1956 0150 01       		.byte	0x1
 1957 0151 3F       		.uleb128 0x3f
 1958 0152 0C       		.uleb128 0xc
 1959 0153 03       		.uleb128 0x3
 1960 0154 0E       		.uleb128 0xe
 1961 0155 3A       		.uleb128 0x3a
 1962 0156 0B       		.uleb128 0xb
 1963 0157 3B       		.uleb128 0x3b
 1964 0158 0B       		.uleb128 0xb
 1965 0159 27       		.uleb128 0x27
 1966 015a 0C       		.uleb128 0xc
 1967 015b 49       		.uleb128 0x49
 1968 015c 13       		.uleb128 0x13
 1969 015d 11       		.uleb128 0x11
 1970 015e 01       		.uleb128 0x1
 1971 015f 12       		.uleb128 0x12
 1972 0160 01       		.uleb128 0x1
 1973 0161 40       		.uleb128 0x40
 1974 0162 0A       		.uleb128 0xa
 1975 0163 9742     		.uleb128 0x2117
 1976 0165 0C       		.uleb128 0xc
 1977 0166 01       		.uleb128 0x1
 1978 0167 13       		.uleb128 0x13
 1979 0168 00       		.byte	0
 1980 0169 00       		.byte	0
 1981 016a 1B       		.uleb128 0x1b
 1982 016b 2E       		.uleb128 0x2e
 1983 016c 01       		.byte	0x1
 1984 016d 3F       		.uleb128 0x3f
 1985 016e 0C       		.uleb128 0xc
 1986 016f 03       		.uleb128 0x3
 1987 0170 0E       		.uleb128 0xe
 1988 0171 3A       		.uleb128 0x3a
 1989 0172 0B       		.uleb128 0xb
 1990 0173 3B       		.uleb128 0x3b
 1991 0174 0B       		.uleb128 0xb
 1992 0175 27       		.uleb128 0x27
 1993 0176 0C       		.uleb128 0xc
 1994 0177 49       		.uleb128 0x49
 1995 0178 13       		.uleb128 0x13
 1996 0179 11       		.uleb128 0x11
 1997 017a 01       		.uleb128 0x1
 1998 017b 12       		.uleb128 0x12
 1999 017c 01       		.uleb128 0x1
 2000 017d 40       		.uleb128 0x40
 2001 017e 06       		.uleb128 0x6
 2002 017f 9742     		.uleb128 0x2117
 2003 0181 0C       		.uleb128 0xc
 2004 0182 01       		.uleb128 0x1
 2005 0183 13       		.uleb128 0x13
ARM GAS  C:\Users\tom\AppData\Local\Temp\ccvXuUid.s 			page 38


 2006 0184 00       		.byte	0
 2007 0185 00       		.byte	0
 2008 0186 1C       		.uleb128 0x1c
 2009 0187 1D       		.uleb128 0x1d
 2010 0188 01       		.byte	0x1
 2011 0189 31       		.uleb128 0x31
 2012 018a 13       		.uleb128 0x13
 2013 018b 11       		.uleb128 0x11
 2014 018c 01       		.uleb128 0x1
 2015 018d 12       		.uleb128 0x12
 2016 018e 01       		.uleb128 0x1
 2017 018f 58       		.uleb128 0x58
 2018 0190 0B       		.uleb128 0xb
 2019 0191 59       		.uleb128 0x59
 2020 0192 0B       		.uleb128 0xb
 2021 0193 00       		.byte	0
 2022 0194 00       		.byte	0
 2023 0195 1D       		.uleb128 0x1d
 2024 0196 05       		.uleb128 0x5
 2025 0197 00       		.byte	0
 2026 0198 31       		.uleb128 0x31
 2027 0199 13       		.uleb128 0x13
 2028 019a 02       		.uleb128 0x2
 2029 019b 06       		.uleb128 0x6
 2030 019c 00       		.byte	0
 2031 019d 00       		.byte	0
 2032 019e 1E       		.uleb128 0x1e
 2033 019f 0B       		.uleb128 0xb
 2034 01a0 01       		.byte	0x1
 2035 01a1 11       		.uleb128 0x11
 2036 01a2 01       		.uleb128 0x1
 2037 01a3 12       		.uleb128 0x12
 2038 01a4 01       		.uleb128 0x1
 2039 01a5 00       		.byte	0
 2040 01a6 00       		.byte	0
 2041 01a7 1F       		.uleb128 0x1f
 2042 01a8 34       		.uleb128 0x34
 2043 01a9 00       		.byte	0
 2044 01aa 31       		.uleb128 0x31
 2045 01ab 13       		.uleb128 0x13
 2046 01ac 02       		.uleb128 0x2
 2047 01ad 06       		.uleb128 0x6
 2048 01ae 00       		.byte	0
 2049 01af 00       		.byte	0
 2050 01b0 20       		.uleb128 0x20
 2051 01b1 0B       		.uleb128 0xb
 2052 01b2 01       		.byte	0x1
 2053 01b3 55       		.uleb128 0x55
 2054 01b4 06       		.uleb128 0x6
 2055 01b5 00       		.byte	0
 2056 01b6 00       		.byte	0
 2057 01b7 21       		.uleb128 0x21
 2058 01b8 898201   		.uleb128 0x4109
 2059 01bb 01       		.byte	0x1
 2060 01bc 11       		.uleb128 0x11
 2061 01bd 01       		.uleb128 0x1
 2062 01be 31       		.uleb128 0x31
ARM GAS  C:\Users\tom\AppData\Local\Temp\ccvXuUid.s 			page 39


 2063 01bf 13       		.uleb128 0x13
 2064 01c0 01       		.uleb128 0x1
 2065 01c1 13       		.uleb128 0x13
 2066 01c2 00       		.byte	0
 2067 01c3 00       		.byte	0
 2068 01c4 22       		.uleb128 0x22
 2069 01c5 898201   		.uleb128 0x4109
 2070 01c8 00       		.byte	0
 2071 01c9 11       		.uleb128 0x11
 2072 01ca 01       		.uleb128 0x1
 2073 01cb 31       		.uleb128 0x31
 2074 01cc 13       		.uleb128 0x13
 2075 01cd 00       		.byte	0
 2076 01ce 00       		.byte	0
 2077 01cf 23       		.uleb128 0x23
 2078 01d0 34       		.uleb128 0x34
 2079 01d1 00       		.byte	0
 2080 01d2 03       		.uleb128 0x3
 2081 01d3 0E       		.uleb128 0xe
 2082 01d4 3A       		.uleb128 0x3a
 2083 01d5 0B       		.uleb128 0xb
 2084 01d6 3B       		.uleb128 0x3b
 2085 01d7 05       		.uleb128 0x5
 2086 01d8 49       		.uleb128 0x49
 2087 01d9 13       		.uleb128 0x13
 2088 01da 3F       		.uleb128 0x3f
 2089 01db 0C       		.uleb128 0xc
 2090 01dc 3C       		.uleb128 0x3c
 2091 01dd 0C       		.uleb128 0xc
 2092 01de 00       		.byte	0
 2093 01df 00       		.byte	0
 2094 01e0 24       		.uleb128 0x24
 2095 01e1 34       		.uleb128 0x34
 2096 01e2 00       		.byte	0
 2097 01e3 03       		.uleb128 0x3
 2098 01e4 0E       		.uleb128 0xe
 2099 01e5 3A       		.uleb128 0x3a
 2100 01e6 0B       		.uleb128 0xb
 2101 01e7 3B       		.uleb128 0x3b
 2102 01e8 0B       		.uleb128 0xb
 2103 01e9 49       		.uleb128 0x49
 2104 01ea 13       		.uleb128 0x13
 2105 01eb 3F       		.uleb128 0x3f
 2106 01ec 0C       		.uleb128 0xc
 2107 01ed 02       		.uleb128 0x2
 2108 01ee 0A       		.uleb128 0xa
 2109 01ef 00       		.byte	0
 2110 01f0 00       		.byte	0
 2111 01f1 25       		.uleb128 0x25
 2112 01f2 01       		.uleb128 0x1
 2113 01f3 01       		.byte	0x1
 2114 01f4 49       		.uleb128 0x49
 2115 01f5 13       		.uleb128 0x13
 2116 01f6 01       		.uleb128 0x1
 2117 01f7 13       		.uleb128 0x13
 2118 01f8 00       		.byte	0
 2119 01f9 00       		.byte	0
ARM GAS  C:\Users\tom\AppData\Local\Temp\ccvXuUid.s 			page 40


 2120 01fa 26       		.uleb128 0x26
 2121 01fb 21       		.uleb128 0x21
 2122 01fc 00       		.byte	0
 2123 01fd 49       		.uleb128 0x49
 2124 01fe 13       		.uleb128 0x13
 2125 01ff 2F       		.uleb128 0x2f
 2126 0200 0B       		.uleb128 0xb
 2127 0201 00       		.byte	0
 2128 0202 00       		.byte	0
 2129 0203 27       		.uleb128 0x27
 2130 0204 26       		.uleb128 0x26
 2131 0205 00       		.byte	0
 2132 0206 49       		.uleb128 0x49
 2133 0207 13       		.uleb128 0x13
 2134 0208 00       		.byte	0
 2135 0209 00       		.byte	0
 2136 020a 28       		.uleb128 0x28
 2137 020b 2E       		.uleb128 0x2e
 2138 020c 01       		.byte	0x1
 2139 020d 3F       		.uleb128 0x3f
 2140 020e 0C       		.uleb128 0xc
 2141 020f 03       		.uleb128 0x3
 2142 0210 0E       		.uleb128 0xe
 2143 0211 3A       		.uleb128 0x3a
 2144 0212 0B       		.uleb128 0xb
 2145 0213 3B       		.uleb128 0x3b
 2146 0214 0B       		.uleb128 0xb
 2147 0215 27       		.uleb128 0x27
 2148 0216 0C       		.uleb128 0xc
 2149 0217 49       		.uleb128 0x49
 2150 0218 13       		.uleb128 0x13
 2151 0219 3C       		.uleb128 0x3c
 2152 021a 0C       		.uleb128 0xc
 2153 021b 01       		.uleb128 0x1
 2154 021c 13       		.uleb128 0x13
 2155 021d 00       		.byte	0
 2156 021e 00       		.byte	0
 2157 021f 29       		.uleb128 0x29
 2158 0220 05       		.uleb128 0x5
 2159 0221 00       		.byte	0
 2160 0222 49       		.uleb128 0x49
 2161 0223 13       		.uleb128 0x13
 2162 0224 00       		.byte	0
 2163 0225 00       		.byte	0
 2164 0226 2A       		.uleb128 0x2a
 2165 0227 2E       		.uleb128 0x2e
 2166 0228 01       		.byte	0x1
 2167 0229 3F       		.uleb128 0x3f
 2168 022a 0C       		.uleb128 0xc
 2169 022b 03       		.uleb128 0x3
 2170 022c 0E       		.uleb128 0xe
 2171 022d 3A       		.uleb128 0x3a
 2172 022e 0B       		.uleb128 0xb
 2173 022f 3B       		.uleb128 0x3b
 2174 0230 0B       		.uleb128 0xb
 2175 0231 27       		.uleb128 0x27
 2176 0232 0C       		.uleb128 0xc
ARM GAS  C:\Users\tom\AppData\Local\Temp\ccvXuUid.s 			page 41


 2177 0233 3C       		.uleb128 0x3c
 2178 0234 0C       		.uleb128 0xc
 2179 0235 00       		.byte	0
 2180 0236 00       		.byte	0
 2181 0237 00       		.byte	0
 2182              		.section	.debug_loc,"",%progbits
 2183              	.Ldebug_loc0:
 2184              	.LLST0:
 2185 0000 00000000 		.4byte	.LFB56
 2186 0004 02000000 		.4byte	.LCFI0
 2187 0008 0200     		.2byte	0x2
 2188 000a 7D       		.byte	0x7d
 2189 000b 00       		.sleb128 0
 2190 000c 02000000 		.4byte	.LCFI0
 2191 0010 1E000000 		.4byte	.LCFI1
 2192 0014 0200     		.2byte	0x2
 2193 0016 7D       		.byte	0x7d
 2194 0017 08       		.sleb128 8
 2195 0018 1E000000 		.4byte	.LCFI1
 2196 001c 20000000 		.4byte	.LFE56
 2197 0020 0200     		.2byte	0x2
 2198 0022 7D       		.byte	0x7d
 2199 0023 00       		.sleb128 0
 2200 0024 00000000 		.4byte	0
 2201 0028 00000000 		.4byte	0
 2202              	.LLST1:
 2203 002c 00000000 		.4byte	.LFB57
 2204 0030 02000000 		.4byte	.LCFI2
 2205 0034 0200     		.2byte	0x2
 2206 0036 7D       		.byte	0x7d
 2207 0037 00       		.sleb128 0
 2208 0038 02000000 		.4byte	.LCFI2
 2209 003c 18000000 		.4byte	.LCFI3
 2210 0040 0200     		.2byte	0x2
 2211 0042 7D       		.byte	0x7d
 2212 0043 10       		.sleb128 16
 2213 0044 18000000 		.4byte	.LCFI3
 2214 0048 1C000000 		.4byte	.LFE57
 2215 004c 0200     		.2byte	0x2
 2216 004e 7D       		.byte	0x7d
 2217 004f 04       		.sleb128 4
 2218 0050 00000000 		.4byte	0
 2219 0054 00000000 		.4byte	0
 2220              	.LLST2:
 2221 0058 00000000 		.4byte	.LVL1
 2222 005c 04000000 		.4byte	.LVL2
 2223 0060 0100     		.2byte	0x1
 2224 0062 50       		.byte	0x50
 2225 0063 04000000 		.4byte	.LVL2
 2226 0067 1C000000 		.4byte	.LFE57
 2227 006b 0400     		.2byte	0x4
 2228 006d F3       		.byte	0xf3
 2229 006e 01       		.uleb128 0x1
 2230 006f 50       		.byte	0x50
 2231 0070 9F       		.byte	0x9f
 2232 0071 00000000 		.4byte	0
 2233 0075 00000000 		.4byte	0
ARM GAS  C:\Users\tom\AppData\Local\Temp\ccvXuUid.s 			page 42


 2234              	.LLST3:
 2235 0079 00000000 		.4byte	.LFB58
 2236 007d 02000000 		.4byte	.LCFI4
 2237 0081 0200     		.2byte	0x2
 2238 0083 7D       		.byte	0x7d
 2239 0084 00       		.sleb128 0
 2240 0085 02000000 		.4byte	.LCFI4
 2241 0089 12000000 		.4byte	.LCFI5
 2242 008d 0200     		.2byte	0x2
 2243 008f 7D       		.byte	0x7d
 2244 0090 08       		.sleb128 8
 2245 0091 12000000 		.4byte	.LCFI5
 2246 0095 18000000 		.4byte	.LFE58
 2247 0099 0200     		.2byte	0x2
 2248 009b 7D       		.byte	0x7d
 2249 009c 00       		.sleb128 0
 2250 009d 00000000 		.4byte	0
 2251 00a1 00000000 		.4byte	0
 2252              	.LLST4:
 2253 00a5 00000000 		.4byte	.LVL5
 2254 00a9 04000000 		.4byte	.LVL6
 2255 00ad 0100     		.2byte	0x1
 2256 00af 50       		.byte	0x50
 2257 00b0 04000000 		.4byte	.LVL6
 2258 00b4 0C000000 		.4byte	.LFE60
 2259 00b8 0400     		.2byte	0x4
 2260 00ba F3       		.byte	0xf3
 2261 00bb 01       		.uleb128 0x1
 2262 00bc 50       		.byte	0x50
 2263 00bd 9F       		.byte	0x9f
 2264 00be 00000000 		.4byte	0
 2265 00c2 00000000 		.4byte	0
 2266              	.LLST5:
 2267 00c6 00000000 		.4byte	.LFB62
 2268 00ca 02000000 		.4byte	.LCFI6
 2269 00ce 0200     		.2byte	0x2
 2270 00d0 7D       		.byte	0x7d
 2271 00d1 00       		.sleb128 0
 2272 00d2 02000000 		.4byte	.LCFI6
 2273 00d6 2E000000 		.4byte	.LFE62
 2274 00da 0200     		.2byte	0x2
 2275 00dc 7D       		.byte	0x7d
 2276 00dd 10       		.sleb128 16
 2277 00de 00000000 		.4byte	0
 2278 00e2 00000000 		.4byte	0
 2279              	.LLST6:
 2280 00e6 00000000 		.4byte	.LVL7
 2281 00ea 08000000 		.4byte	.LVL8
 2282 00ee 0200     		.2byte	0x2
 2283 00f0 30       		.byte	0x30
 2284 00f1 9F       		.byte	0x9f
 2285 00f2 08000000 		.4byte	.LVL8
 2286 00f6 20000000 		.4byte	.LVL12
 2287 00fa 0100     		.2byte	0x1
 2288 00fc 55       		.byte	0x55
 2289 00fd 20000000 		.4byte	.LVL12
 2290 0101 24000000 		.4byte	.LVL13
ARM GAS  C:\Users\tom\AppData\Local\Temp\ccvXuUid.s 			page 43


 2291 0105 0100     		.2byte	0x1
 2292 0107 54       		.byte	0x54
 2293 0108 24000000 		.4byte	.LVL13
 2294 010c 2E000000 		.4byte	.LFE62
 2295 0110 0100     		.2byte	0x1
 2296 0112 55       		.byte	0x55
 2297 0113 00000000 		.4byte	0
 2298 0117 00000000 		.4byte	0
 2299              	.LLST7:
 2300 011b 00000000 		.4byte	.LVL7
 2301 011f 08000000 		.4byte	.LVL8
 2302 0123 0400     		.2byte	0x4
 2303 0125 40       		.byte	0x40
 2304 0126 3C       		.byte	0x3c
 2305 0127 24       		.byte	0x24
 2306 0128 9F       		.byte	0x9f
 2307 0129 08000000 		.4byte	.LVL8
 2308 012d 2E000000 		.4byte	.LFE62
 2309 0131 0100     		.2byte	0x1
 2310 0133 56       		.byte	0x56
 2311 0134 00000000 		.4byte	0
 2312 0138 00000000 		.4byte	0
 2313              	.LLST8:
 2314 013c 1A000000 		.4byte	.LVL11
 2315 0140 1F000000 		.4byte	.LVL12-1
 2316 0144 0100     		.2byte	0x1
 2317 0146 50       		.byte	0x50
 2318 0147 24000000 		.4byte	.LVL13
 2319 014b 28000000 		.4byte	.LVL15
 2320 014f 0100     		.2byte	0x1
 2321 0151 50       		.byte	0x50
 2322 0152 00000000 		.4byte	0
 2323 0156 00000000 		.4byte	0
 2324              	.LLST9:
 2325 015a 10000000 		.4byte	.LVL9
 2326 015e 12000000 		.4byte	.LVL10
 2327 0162 0500     		.2byte	0x5
 2328 0164 70       		.byte	0x70
 2329 0165 00       		.sleb128 0
 2330 0166 31       		.byte	0x31
 2331 0167 25       		.byte	0x25
 2332 0168 9F       		.byte	0x9f
 2333 0169 12000000 		.4byte	.LVL10
 2334 016d 28000000 		.4byte	.LVL15
 2335 0171 0100     		.2byte	0x1
 2336 0173 54       		.byte	0x54
 2337 0174 2C000000 		.4byte	.LVL16
 2338 0178 2E000000 		.4byte	.LFE62
 2339 017c 0100     		.2byte	0x1
 2340 017e 50       		.byte	0x50
 2341 017f 00000000 		.4byte	0
 2342 0183 00000000 		.4byte	0
 2343              		.section	.debug_aranges,"",%progbits
 2344 0000 44000000 		.4byte	0x44
 2345 0004 0200     		.2byte	0x2
 2346 0006 00000000 		.4byte	.Ldebug_info0
 2347 000a 04       		.byte	0x4
ARM GAS  C:\Users\tom\AppData\Local\Temp\ccvXuUid.s 			page 44


 2348 000b 00       		.byte	0
 2349 000c 0000     		.2byte	0
 2350 000e 0000     		.2byte	0
 2351 0010 00000000 		.4byte	.LFB56
 2352 0014 20000000 		.4byte	.LFE56-.LFB56
 2353 0018 00000000 		.4byte	.LFB57
 2354 001c 1C000000 		.4byte	.LFE57-.LFB57
 2355 0020 00000000 		.4byte	.LFB58
 2356 0024 18000000 		.4byte	.LFE58-.LFB58
 2357 0028 00000000 		.4byte	.LFB59
 2358 002c 14000000 		.4byte	.LFE59-.LFB59
 2359 0030 00000000 		.4byte	.LFB60
 2360 0034 0C000000 		.4byte	.LFE60-.LFB60
 2361 0038 00000000 		.4byte	.LFB62
 2362 003c 2E000000 		.4byte	.LFE62-.LFB62
 2363 0040 00000000 		.4byte	0
 2364 0044 00000000 		.4byte	0
 2365              		.section	.debug_ranges,"",%progbits
 2366              	.Ldebug_ranges0:
 2367 0000 02000000 		.4byte	.LBB8
 2368 0004 08000000 		.4byte	.LBE8
 2369 0008 0E000000 		.4byte	.LBB9
 2370 000c 28000000 		.4byte	.LBE9
 2371 0010 00000000 		.4byte	0
 2372 0014 00000000 		.4byte	0
 2373 0018 00000000 		.4byte	.LFB56
 2374 001c 20000000 		.4byte	.LFE56
 2375 0020 00000000 		.4byte	.LFB57
 2376 0024 1C000000 		.4byte	.LFE57
 2377 0028 00000000 		.4byte	.LFB58
 2378 002c 18000000 		.4byte	.LFE58
 2379 0030 00000000 		.4byte	.LFB59
 2380 0034 14000000 		.4byte	.LFE59
 2381 0038 00000000 		.4byte	.LFB60
 2382 003c 0C000000 		.4byte	.LFE60
 2383 0040 00000000 		.4byte	.LFB62
 2384 0044 2E000000 		.4byte	.LFE62
 2385 0048 00000000 		.4byte	0
 2386 004c 00000000 		.4byte	0
 2387              		.section	.debug_line,"",%progbits
 2388              	.Ldebug_line0:
 2389 0000 77020000 		.section	.debug_str,"MS",%progbits,1
 2389      0200EA01 
 2389      00000201 
 2389      FB0E0D00 
 2389      01010101 
 2390              	.LASF128:
 2391 0000 6D616C6C 		.ascii	"malloc\000"
 2391      6F6300
 2392              	.LASF102:
 2393 0007 4E564943 		.ascii	"NVIC_IRQChannelCmd\000"
 2393      5F495251 
 2393      4368616E 
 2393      6E656C43 
 2393      6D6400
 2394              	.LASF17:
 2395 001a 73697A65 		.ascii	"size_t\000"
ARM GAS  C:\Users\tom\AppData\Local\Temp\ccvXuUid.s 			page 45


 2395      5F7400
 2396              	.LASF26:
 2397 0021 4144435F 		.ascii	"ADC_ExternalTrigConv\000"
 2397      45787465 
 2397      726E616C 
 2397      54726967 
 2397      436F6E76 
 2398              	.LASF87:
 2399 0036 54494D5F 		.ascii	"TIM_CounterMode\000"
 2399      436F756E 
 2399      7465724D 
 2399      6F646500 
 2400              	.LASF59:
 2401 0046 4750494F 		.ascii	"GPIO_Speed_10MHz\000"
 2401      5F537065 
 2401      65645F31 
 2401      304D487A 
 2401      00
 2402              	.LASF57:
 2403 0057 45585449 		.ascii	"EXTI_LineCmd\000"
 2403      5F4C696E 
 2403      65436D64 
 2403      00
 2404              	.LASF3:
 2405 0064 5F5F7569 		.ascii	"__uint8_t\000"
 2405      6E74385F 
 2405      7400
 2406              	.LASF44:
 2407 006e 444D415F 		.ascii	"DMA_Priority\000"
 2407      5072696F 
 2407      72697479 
 2407      00
 2408              	.LASF39:
 2409 007b 444D415F 		.ascii	"DMA_PeripheralInc\000"
 2409      50657269 
 2409      70686572 
 2409      616C496E 
 2409      6300
 2410              	.LASF52:
 2411 008d 45585449 		.ascii	"EXTI_Trigger_Rising_Falling\000"
 2411      5F547269 
 2411      67676572 
 2411      5F526973 
 2411      696E675F 
 2412              	.LASF40:
 2413 00a9 444D415F 		.ascii	"DMA_MemoryInc\000"
 2413      4D656D6F 
 2413      7279496E 
 2413      6300
 2414              	.LASF20:
 2415 00b7 44495341 		.ascii	"DISABLE\000"
 2415      424C4500 
 2416              	.LASF11:
 2417 00bf 6C6F6E67 		.ascii	"long long unsigned int\000"
 2417      206C6F6E 
 2417      6720756E 
 2417      7369676E 
ARM GAS  C:\Users\tom\AppData\Local\Temp\ccvXuUid.s 			page 46


 2417      65642069 
 2418              	.LASF106:
 2419 00d6 5F64656C 		.ascii	"_delay_us\000"
 2419      61795F75 
 2419      7300
 2420              	.LASF112:
 2421 00e0 4750494F 		.ascii	"GPIO_InitStructure\000"
 2421      5F496E69 
 2421      74537472 
 2421      75637475 
 2421      726500
 2422              	.LASF73:
 2423 00f3 4750494F 		.ascii	"GPIO_Speed\000"
 2423      5F537065 
 2423      656400
 2424              	.LASF111:
 2425 00fe 49544D5F 		.ascii	"ITM_RxBuffer\000"
 2425      52784275 
 2425      66666572 
 2425      00
 2426              	.LASF129:
 2427 010b 66726565 		.ascii	"free\000"
 2427      00
 2428              	.LASF10:
 2429 0110 6C6F6E67 		.ascii	"long long int\000"
 2429      206C6F6E 
 2429      6720696E 
 2429      7400
 2430              	.LASF0:
 2431 011e 7369676E 		.ascii	"signed char\000"
 2431      65642063 
 2431      68617200 
 2432              	.LASF65:
 2433 012a 4750494F 		.ascii	"GPIO_Mode_IPD\000"
 2433      5F4D6F64 
 2433      655F4950 
 2433      4400
 2434              	.LASF95:
 2435 0138 55534152 		.ascii	"USART_Parity\000"
 2435      545F5061 
 2435      72697479 
 2435      00
 2436              	.LASF121:
 2437 0145 42797465 		.ascii	"ByteReverseTable\000"
 2437      52657665 
 2437      72736554 
 2437      61626C65 
 2437      00
 2438              	.LASF114:
 2439 0156 444D415F 		.ascii	"DMA_InitStructure\000"
 2439      496E6974 
 2439      53747275 
 2439      63747572 
 2439      6500
 2440              	.LASF96:
 2441 0168 55534152 		.ascii	"USART_Mode\000"
 2441      545F4D6F 
ARM GAS  C:\Users\tom\AppData\Local\Temp\ccvXuUid.s 			page 47


 2441      646500
 2442              	.LASF33:
 2443 0173 4441435F 		.ascii	"DAC_OutputBuffer\000"
 2443      4F757470 
 2443      75744275 
 2443      66666572 
 2443      00
 2444              	.LASF66:
 2445 0184 4750494F 		.ascii	"GPIO_Mode_IPU\000"
 2445      5F4D6F64 
 2445      655F4950 
 2445      5500
 2446              	.LASF67:
 2447 0192 4750494F 		.ascii	"GPIO_Mode_Out_OD\000"
 2447      5F4D6F64 
 2447      655F4F75 
 2447      745F4F44 
 2447      00
 2448              	.LASF92:
 2449 01a3 55534152 		.ascii	"USART_BaudRate\000"
 2449      545F4261 
 2449      75645261 
 2449      746500
 2450              	.LASF25:
 2451 01b2 4144435F 		.ascii	"ADC_ContinuousConvMode\000"
 2451      436F6E74 
 2451      696E756F 
 2451      7573436F 
 2451      6E764D6F 
 2452              	.LASF7:
 2453 01c9 6C6F6E67 		.ascii	"long int\000"
 2453      20696E74 
 2453      00
 2454              	.LASF21:
 2455 01d2 454E4142 		.ascii	"ENABLE\000"
 2455      4C4500
 2456              	.LASF109:
 2457 01d9 42797465 		.ascii	"ByteReverse\000"
 2457      52657665 
 2457      72736500 
 2458              	.LASF49:
 2459 01e5 45585449 		.ascii	"EXTIMode_TypeDef\000"
 2459      4D6F6465 
 2459      5F547970 
 2459      65446566 
 2459      00
 2460              	.LASF127:
 2461 01f6 5F64656C 		.ascii	"_delay_nms_mm\000"
 2461      61795F6E 
 2461      6D735F6D 
 2461      6D00
 2462              	.LASF2:
 2463 0204 73686F72 		.ascii	"short int\000"
 2463      7420696E 
 2463      7400
 2464              	.LASF14:
 2465 020e 75696E74 		.ascii	"uint16_t\000"
ARM GAS  C:\Users\tom\AppData\Local\Temp\ccvXuUid.s 			page 48


 2465      31365F74 
 2465      00
 2466              	.LASF51:
 2467 0217 45585449 		.ascii	"EXTI_Trigger_Falling\000"
 2467      5F547269 
 2467      67676572 
 2467      5F46616C 
 2467      6C696E67 
 2468              	.LASF97:
 2469 022c 55534152 		.ascii	"USART_HardwareFlowControl\000"
 2469      545F4861 
 2469      72647761 
 2469      7265466C 
 2469      6F77436F 
 2470              	.LASF123:
 2471 0246 474E5520 		.ascii	"GNU C 4.9.3 20150303 (release) [ARM/embedded-4_9-br"
 2471      4320342E 
 2471      392E3320 
 2471      32303135 
 2471      30333033 
 2472 0279 616E6368 		.ascii	"anch revision 221220] -mcpu=cortex-m3 -mthumb -g -g"
 2472      20726576 
 2472      6973696F 
 2472      6E203232 
 2472      31323230 
 2473 02ac 64776172 		.ascii	"dwarf-2 -Os -std=gnu99 -ffunction-sections -fdata-s"
 2473      662D3220 
 2473      2D4F7320 
 2473      2D737464 
 2473      3D676E75 
 2474 02df 65637469 		.ascii	"ections\000"
 2474      6F6E7300 
 2475              	.LASF76:
 2476 02e7 5350495F 		.ascii	"SPI_Direction\000"
 2476      44697265 
 2476      6374696F 
 2476      6E00
 2477              	.LASF34:
 2478 02f5 4441435F 		.ascii	"DAC_InitTypeDef\000"
 2478      496E6974 
 2478      54797065 
 2478      44656600 
 2479              	.LASF94:
 2480 0305 55534152 		.ascii	"USART_StopBits\000"
 2480      545F5374 
 2480      6F704269 
 2480      747300
 2481              	.LASF118:
 2482 0314 4441435F 		.ascii	"DAC_InitStructure\000"
 2482      496E6974 
 2482      53747275 
 2482      63747572 
 2482      6500
 2483              	.LASF99:
 2484 0326 4E564943 		.ascii	"NVIC_IRQChannel\000"
 2484      5F495251 
 2484      4368616E 
ARM GAS  C:\Users\tom\AppData\Local\Temp\ccvXuUid.s 			page 49


 2484      6E656C00 
 2485              	.LASF62:
 2486 0336 4750494F 		.ascii	"GPIOSpeed_TypeDef\000"
 2486      53706565 
 2486      645F5479 
 2486      70654465 
 2486      6600
 2487              	.LASF72:
 2488 0348 4750494F 		.ascii	"GPIO_Pin\000"
 2488      5F50696E 
 2488      00
 2489              	.LASF115:
 2490 0351 4E564943 		.ascii	"NVIC_InitStructure\000"
 2490      5F496E69 
 2490      74537472 
 2490      75637475 
 2490      726500
 2491              	.LASF12:
 2492 0364 756E7369 		.ascii	"unsigned int\000"
 2492      676E6564 
 2492      20696E74 
 2492      00
 2493              	.LASF89:
 2494 0371 54494D5F 		.ascii	"TIM_ClockDivision\000"
 2494      436C6F63 
 2494      6B446976 
 2494      6973696F 
 2494      6E00
 2495              	.LASF9:
 2496 0383 6C6F6E67 		.ascii	"long unsigned int\000"
 2496      20756E73 
 2496      69676E65 
 2496      6420696E 
 2496      7400
 2497              	.LASF64:
 2498 0395 4750494F 		.ascii	"GPIO_Mode_IN_FLOATING\000"
 2498      5F4D6F64 
 2498      655F494E 
 2498      5F464C4F 
 2498      4154494E 
 2499              	.LASF124:
 2500 03ab 5F6C6962 		.ascii	"_libs/misc.c\000"
 2500      732F6D69 
 2500      73632E63 
 2500      00
 2501              	.LASF69:
 2502 03b8 4750494F 		.ascii	"GPIO_Mode_AF_OD\000"
 2502      5F4D6F64 
 2502      655F4146 
 2502      5F4F4400 
 2503              	.LASF105:
 2504 03c8 73697A65 		.ascii	"size\000"
 2504      00
 2505              	.LASF5:
 2506 03cd 73686F72 		.ascii	"short unsigned int\000"
 2506      7420756E 
 2506      7369676E 
ARM GAS  C:\Users\tom\AppData\Local\Temp\ccvXuUid.s 			page 50


 2506      65642069 
 2506      6E7400
 2507              	.LASF45:
 2508 03e0 444D415F 		.ascii	"DMA_M2M\000"
 2508      4D324D00 
 2509              	.LASF119:
 2510 03e8 4144435F 		.ascii	"ADC_InitStructure\000"
 2510      496E6974 
 2510      53747275 
 2510      63747572 
 2510      6500
 2511              	.LASF122:
 2512 03fa 675F6E6D 		.ascii	"g_nms\000"
 2512      7300
 2513              	.LASF84:
 2514 0400 5350495F 		.ascii	"SPI_CRCPolynomial\000"
 2514      43524350 
 2514      6F6C796E 
 2514      6F6D6961 
 2514      6C00
 2515              	.LASF85:
 2516 0412 5350495F 		.ascii	"SPI_InitTypeDef\000"
 2516      496E6974 
 2516      54797065 
 2516      44656600 
 2517              	.LASF100:
 2518 0422 4E564943 		.ascii	"NVIC_IRQChannelPreemptionPriority\000"
 2518      5F495251 
 2518      4368616E 
 2518      6E656C50 
 2518      7265656D 
 2519              	.LASF98:
 2520 0444 55534152 		.ascii	"USART_InitTypeDef\000"
 2520      545F496E 
 2520      69745479 
 2520      70654465 
 2520      6600
 2521              	.LASF103:
 2522 0456 4E564943 		.ascii	"NVIC_InitTypeDef\000"
 2522      5F496E69 
 2522      74547970 
 2522      65446566 
 2522      00
 2523              	.LASF35:
 2524 0467 444D415F 		.ascii	"DMA_PeripheralBaseAddr\000"
 2524      50657269 
 2524      70686572 
 2524      616C4261 
 2524      73654164 
 2525              	.LASF30:
 2526 047e 4441435F 		.ascii	"DAC_Trigger\000"
 2526      54726967 
 2526      67657200 
 2527              	.LASF86:
 2528 048a 54494D5F 		.ascii	"TIM_Prescaler\000"
 2528      50726573 
 2528      63616C65 
ARM GAS  C:\Users\tom\AppData\Local\Temp\ccvXuUid.s 			page 51


 2528      7200
 2529              	.LASF18:
 2530 0498 73697A65 		.ascii	"sizetype\000"
 2530      74797065 
 2530      00
 2531              	.LASF108:
 2532 04a1 5F64656C 		.ascii	"_delay_ms_systick\000"
 2532      61795F6D 
 2532      735F7379 
 2532      73746963 
 2532      6B00
 2533              	.LASF37:
 2534 04b3 444D415F 		.ascii	"DMA_DIR\000"
 2534      44495200 
 2535              	.LASF54:
 2536 04bb 45585449 		.ascii	"EXTI_Line\000"
 2536      5F4C696E 
 2536      6500
 2537              	.LASF70:
 2538 04c5 4750494F 		.ascii	"GPIO_Mode_AF_PP\000"
 2538      5F4D6F64 
 2538      655F4146 
 2538      5F505000 
 2539              	.LASF43:
 2540 04d5 444D415F 		.ascii	"DMA_Mode\000"
 2540      4D6F6465 
 2540      00
 2541              	.LASF75:
 2542 04de 4750494F 		.ascii	"GPIO_InitTypeDef\000"
 2542      5F496E69 
 2542      74547970 
 2542      65446566 
 2542      00
 2543              	.LASF22:
 2544 04ef 46756E63 		.ascii	"FunctionalState\000"
 2544      74696F6E 
 2544      616C5374 
 2544      61746500 
 2545              	.LASF46:
 2546 04ff 444D415F 		.ascii	"DMA_InitTypeDef\000"
 2546      496E6974 
 2546      54797065 
 2546      44656600 
 2547              	.LASF68:
 2548 050f 4750494F 		.ascii	"GPIO_Mode_Out_PP\000"
 2548      5F4D6F64 
 2548      655F4F75 
 2548      745F5050 
 2548      00
 2549              	.LASF27:
 2550 0520 4144435F 		.ascii	"ADC_DataAlign\000"
 2550      44617461 
 2550      416C6967 
 2550      6E00
 2551              	.LASF61:
 2552 052e 4750494F 		.ascii	"GPIO_Speed_50MHz\000"
 2552      5F537065 
ARM GAS  C:\Users\tom\AppData\Local\Temp\ccvXuUid.s 			page 52


 2552      65645F35 
 2552      304D487A 
 2552      00
 2553              	.LASF56:
 2554 053f 45585449 		.ascii	"EXTI_Trigger\000"
 2554      5F547269 
 2554      67676572 
 2554      00
 2555              	.LASF31:
 2556 054c 4441435F 		.ascii	"DAC_WaveGeneration\000"
 2556      57617665 
 2556      47656E65 
 2556      72617469 
 2556      6F6E00
 2557              	.LASF42:
 2558 055f 444D415F 		.ascii	"DMA_MemoryDataSize\000"
 2558      4D656D6F 
 2558      72794461 
 2558      74615369 
 2558      7A6500
 2559              	.LASF117:
 2560 0572 45585449 		.ascii	"EXTI_InitStructure\000"
 2560      5F496E69 
 2560      74537472 
 2560      75637475 
 2560      726500
 2561              	.LASF55:
 2562 0585 45585449 		.ascii	"EXTI_Mode\000"
 2562      5F4D6F64 
 2562      6500
 2563              	.LASF36:
 2564 058f 444D415F 		.ascii	"DMA_MemoryBaseAddr\000"
 2564      4D656D6F 
 2564      72794261 
 2564      73654164 
 2564      647200
 2565              	.LASF120:
 2566 05a2 54494D5F 		.ascii	"TIM_TimeBaseStructure\000"
 2566      54696D65 
 2566      42617365 
 2566      53747275 
 2566      63747572 
 2567              	.LASF79:
 2568 05b8 5350495F 		.ascii	"SPI_CPOL\000"
 2568      43504F4C 
 2568      00
 2569              	.LASF116:
 2570 05c1 55534152 		.ascii	"USART_InitStructure\000"
 2570      545F496E 
 2570      69745374 
 2570      72756374 
 2570      75726500 
 2571              	.LASF15:
 2572 05d5 696E7433 		.ascii	"int32_t\000"
 2572      325F7400 
 2573              	.LASF1:
 2574 05dd 756E7369 		.ascii	"unsigned char\000"
ARM GAS  C:\Users\tom\AppData\Local\Temp\ccvXuUid.s 			page 53


 2574      676E6564 
 2574      20636861 
 2574      7200
 2575              	.LASF125:
 2576 05eb 443A5C77 		.ascii	"D:\\work\\__my_github\\diy\\battery_analyzer\\firmw"
 2576      6F726B5C 
 2576      5F5F6D79 
 2576      5F676974 
 2576      6875625C 
 2577 0619 61726500 		.ascii	"are\000"
 2578              	.LASF60:
 2579 061d 4750494F 		.ascii	"GPIO_Speed_2MHz\000"
 2579      5F537065 
 2579      65645F32 
 2579      4D487A00 
 2580              	.LASF83:
 2581 062d 5350495F 		.ascii	"SPI_FirstBit\000"
 2581      46697273 
 2581      74426974 
 2581      00
 2582              	.LASF80:
 2583 063a 5350495F 		.ascii	"SPI_CPHA\000"
 2583      43504841 
 2583      00
 2584              	.LASF63:
 2585 0643 4750494F 		.ascii	"GPIO_Mode_AIN\000"
 2585      5F4D6F64 
 2585      655F4149 
 2585      4E00
 2586              	.LASF24:
 2587 0651 4144435F 		.ascii	"ADC_ScanConvMode\000"
 2587      5363616E 
 2587      436F6E76 
 2587      4D6F6465 
 2587      00
 2588              	.LASF107:
 2589 0662 5F64656C 		.ascii	"_delay_ms_loop\000"
 2589      61795F6D 
 2589      735F6C6F 
 2589      6F7000
 2590              	.LASF29:
 2591 0671 4144435F 		.ascii	"ADC_InitTypeDef\000"
 2591      496E6974 
 2591      54797065 
 2591      44656600 
 2592              	.LASF82:
 2593 0681 5350495F 		.ascii	"SPI_BaudRatePrescaler\000"
 2593      42617564 
 2593      52617465 
 2593      50726573 
 2593      63616C65 
 2594              	.LASF16:
 2595 0697 75696E74 		.ascii	"uint32_t\000"
 2595      33325F74 
 2595      00
 2596              	.LASF101:
 2597 06a0 4E564943 		.ascii	"NVIC_IRQChannelSubPriority\000"
ARM GAS  C:\Users\tom\AppData\Local\Temp\ccvXuUid.s 			page 54


 2597      5F495251 
 2597      4368616E 
 2597      6E656C53 
 2597      75625072 
 2598              	.LASF77:
 2599 06bb 5350495F 		.ascii	"SPI_Mode\000"
 2599      4D6F6465 
 2599      00
 2600              	.LASF32:
 2601 06c4 4441435F 		.ascii	"DAC_LFSRUnmask_TriangleAmplitude\000"
 2601      4C465352 
 2601      556E6D61 
 2601      736B5F54 
 2601      7269616E 
 2602              	.LASF81:
 2603 06e5 5350495F 		.ascii	"SPI_NSS\000"
 2603      4E535300 
 2604              	.LASF19:
 2605 06ed 63686172 		.ascii	"char\000"
 2605      00
 2606              	.LASF23:
 2607 06f2 4144435F 		.ascii	"ADC_Mode\000"
 2607      4D6F6465 
 2607      00
 2608              	.LASF4:
 2609 06fb 5F5F7569 		.ascii	"__uint16_t\000"
 2609      6E743136 
 2609      5F7400
 2610              	.LASF41:
 2611 0706 444D415F 		.ascii	"DMA_PeripheralDataSize\000"
 2611      50657269 
 2611      70686572 
 2611      616C4461 
 2611      74615369 
 2612              	.LASF28:
 2613 071d 4144435F 		.ascii	"ADC_NbrOfChannel\000"
 2613      4E62724F 
 2613      66436861 
 2613      6E6E656C 
 2613      00
 2614              	.LASF93:
 2615 072e 55534152 		.ascii	"USART_WordLength\000"
 2615      545F576F 
 2615      72644C65 
 2615      6E677468 
 2615      00
 2616              	.LASF88:
 2617 073f 54494D5F 		.ascii	"TIM_Period\000"
 2617      50657269 
 2617      6F6400
 2618              	.LASF6:
 2619 074a 5F5F696E 		.ascii	"__int32_t\000"
 2619      7433325F 
 2619      7400
 2620              	.LASF8:
 2621 0754 5F5F7569 		.ascii	"__uint32_t\000"
 2621      6E743332 
ARM GAS  C:\Users\tom\AppData\Local\Temp\ccvXuUid.s 			page 55


 2621      5F7400
 2622              	.LASF53:
 2623 075f 45585449 		.ascii	"EXTITrigger_TypeDef\000"
 2623      54726967 
 2623      6765725F 
 2623      54797065 
 2623      44656600 
 2624              	.LASF74:
 2625 0773 4750494F 		.ascii	"GPIO_Mode\000"
 2625      5F4D6F64 
 2625      6500
 2626              	.LASF58:
 2627 077d 45585449 		.ascii	"EXTI_InitTypeDef\000"
 2627      5F496E69 
 2627      74547970 
 2627      65446566 
 2627      00
 2628              	.LASF113:
 2629 078e 5350495F 		.ascii	"SPI_InitStructure\000"
 2629      496E6974 
 2629      53747275 
 2629      63747572 
 2629      6500
 2630              	.LASF50:
 2631 07a0 45585449 		.ascii	"EXTI_Trigger_Rising\000"
 2631      5F547269 
 2631      67676572 
 2631      5F526973 
 2631      696E6700 
 2632              	.LASF110:
 2633 07b4 6765745F 		.ascii	"get_free_mem\000"
 2633      66726565 
 2633      5F6D656D 
 2633      00
 2634              	.LASF47:
 2635 07c1 45585449 		.ascii	"EXTI_Mode_Interrupt\000"
 2635      5F4D6F64 
 2635      655F496E 
 2635      74657272 
 2635      75707400 
 2636              	.LASF78:
 2637 07d5 5350495F 		.ascii	"SPI_DataSize\000"
 2637      44617461 
 2637      53697A65 
 2637      00
 2638              	.LASF13:
 2639 07e2 75696E74 		.ascii	"uint8_t\000"
 2639      385F7400 
 2640              	.LASF90:
 2641 07ea 54494D5F 		.ascii	"TIM_RepetitionCounter\000"
 2641      52657065 
 2641      74697469 
 2641      6F6E436F 
 2641      756E7465 
 2642              	.LASF48:
 2643 0800 45585449 		.ascii	"EXTI_Mode_Event\000"
 2643      5F4D6F64 
ARM GAS  C:\Users\tom\AppData\Local\Temp\ccvXuUid.s 			page 56


 2643      655F4576 
 2643      656E7400 
 2644              	.LASF38:
 2645 0810 444D415F 		.ascii	"DMA_BufferSize\000"
 2645      42756666 
 2645      65725369 
 2645      7A6500
 2646              	.LASF126:
 2647 081f 5F5F6765 		.ascii	"__get_free_mem\000"
 2647      745F6672 
 2647      65655F6D 
 2647      656D00
 2648              	.LASF71:
 2649 082e 4750494F 		.ascii	"GPIOMode_TypeDef\000"
 2649      4D6F6465 
 2649      5F547970 
 2649      65446566 
 2649      00
 2650              	.LASF104:
 2651 083f 73746172 		.ascii	"start\000"
 2651      7400
 2652              	.LASF91:
 2653 0845 54494D5F 		.ascii	"TIM_TimeBaseInitTypeDef\000"
 2653      54696D65 
 2653      42617365 
 2653      496E6974 
 2653      54797065 
 2654              		.ident	"GCC: (GNU Tools for ARM Embedded Processors) 4.9.3 20150303 (release) [ARM/embedded-4_9-br
ARM GAS  C:\Users\tom\AppData\Local\Temp\ccvXuUid.s 			page 57


DEFINED SYMBOLS
                            *ABS*:00000000 misc.c
C:\Users\tom\AppData\Local\Temp\ccvXuUid.s:19     .text._delay_us:00000000 $t
C:\Users\tom\AppData\Local\Temp\ccvXuUid.s:24     .text._delay_us:00000000 _delay_us
C:\Users\tom\AppData\Local\Temp\ccvXuUid.s:63     .text._delay_ms_loop:00000000 $t
C:\Users\tom\AppData\Local\Temp\ccvXuUid.s:68     .text._delay_ms_loop:00000000 _delay_ms_loop
C:\Users\tom\AppData\Local\Temp\ccvXuUid.s:103    .text._delay_ms_systick:00000000 $t
C:\Users\tom\AppData\Local\Temp\ccvXuUid.s:108    .text._delay_ms_systick:00000000 _delay_ms_systick
C:\Users\tom\AppData\Local\Temp\ccvXuUid.s:139    .text._delay_ms_systick:00000014 $d
                            *COM*:00000004 g_nms
C:\Users\tom\AppData\Local\Temp\ccvXuUid.s:144    .text._delay_nms_mm:00000000 $t
C:\Users\tom\AppData\Local\Temp\ccvXuUid.s:149    .text._delay_nms_mm:00000000 _delay_nms_mm
C:\Users\tom\AppData\Local\Temp\ccvXuUid.s:169    .text._delay_nms_mm:00000010 $d
C:\Users\tom\AppData\Local\Temp\ccvXuUid.s:174    .text.ByteReverse:00000000 $t
C:\Users\tom\AppData\Local\Temp\ccvXuUid.s:179    .text.ByteReverse:00000000 ByteReverse
C:\Users\tom\AppData\Local\Temp\ccvXuUid.s:195    .text.ByteReverse:00000008 $d
C:\Users\tom\AppData\Local\Temp\ccvXuUid.s:200    .text.get_free_mem:00000000 $t
C:\Users\tom\AppData\Local\Temp\ccvXuUid.s:205    .text.get_free_mem:00000000 get_free_mem
C:\Users\tom\AppData\Local\Temp\ccvXuUid.s:289    FLASH:00000000 ByteReverseTable
                            *COM*:0000000a TIM_TimeBaseStructure
                            *COM*:00000014 ADC_InitStructure
                            *COM*:00000010 DAC_InitStructure
                            *COM*:00000008 EXTI_InitStructure
                            *COM*:00000010 USART_InitStructure
                            *COM*:00000004 NVIC_InitStructure
                            *COM*:0000002c DMA_InitStructure
                            *COM*:00000012 SPI_InitStructure
                            *COM*:00000004 GPIO_InitStructure
                     .debug_frame:00000010 $d

UNDEFINED SYMBOLS
malloc
free
