ARM GAS  C:\Users\tom\AppData\Local\Temp\ccvXuUid.s 			page 1


   1              		.syntax unified
   2              		.cpu cortex-m3
   3              		.fpu softvfp
   4              		.eabi_attribute 20, 1
   5              		.eabi_attribute 21, 1
   6              		.eabi_attribute 23, 3
   7              		.eabi_attribute 24, 1
   8              		.eabi_attribute 25, 1
   9              		.eabi_attribute 26, 1
  10              		.eabi_attribute 30, 4
  11              		.eabi_attribute 34, 1
  12              		.eabi_attribute 18, 4
  13              		.thumb
  14              		.file	"misc.c"
  15              		.text
  16              	.Ltext0:
  17              		.cfi_sections	.debug_frame
  18              		.section	.text._delay_us,"ax",%progbits
  19              		.align	1
  20              		.global	_delay_us
  21              		.thumb
  22              		.thumb_func
  23              		.type	_delay_us, %function
  24              	_delay_us:
  25              	.LFB56:
  26              		.file 1 "_libs/misc.c"
   1:_libs/misc.c  **** #include "misc.h"
   2:_libs/misc.c  **** 
   3:_libs/misc.c  **** GPIO_InitTypeDef    GPIO_InitStructure;
   4:_libs/misc.c  **** SPI_InitTypeDef     SPI_InitStructure;
   5:_libs/misc.c  **** DMA_InitTypeDef     DMA_InitStructure;
   6:_libs/misc.c  **** NVIC_InitTypeDef    NVIC_InitStructure;
   7:_libs/misc.c  **** USART_InitTypeDef   USART_InitStructure;
   8:_libs/misc.c  **** EXTI_InitTypeDef    EXTI_InitStructure;
   9:_libs/misc.c  **** DAC_InitTypeDef     DAC_InitStructure; 
  10:_libs/misc.c  **** ADC_InitTypeDef     ADC_InitStructure; 
  11:_libs/misc.c  **** TIM_TimeBaseInitTypeDef TIM_TimeBaseStructure;
  12:_libs/misc.c  **** 
  13:_libs/misc.c  **** const unsigned char __attribute__ ((section("FLASH"))) ByteReverseTable[256] = {
  14:_libs/misc.c  ****     0x00, 0x80, 0x40, 0xc0, 0x20, 0xa0, 0x60, 0xe0, 0x10, 0x90, 0x50, 0xd0,
  15:_libs/misc.c  ****     0x30, 0xb0, 0x70, 0xf0, 0x08, 0x88, 0x48, 0xc8, 0x28, 0xa8, 0x68, 0xe8,
  16:_libs/misc.c  ****     0x18, 0x98, 0x58, 0xd8, 0x38, 0xb8, 0x78, 0xf8, 0x04, 0x84, 0x44, 0xc4,
  17:_libs/misc.c  ****     0x24, 0xa4, 0x64, 0xe4, 0x14, 0x94, 0x54, 0xd4, 0x34, 0xb4, 0x74, 0xf4,
  18:_libs/misc.c  ****     0x0c, 0x8c, 0x4c, 0xcc, 0x2c, 0xac, 0x6c, 0xec, 0x1c, 0x9c, 0x5c, 0xdc,
  19:_libs/misc.c  ****     0x3c, 0xbc, 0x7c, 0xfc, 0x02, 0x82, 0x42, 0xc2, 0x22, 0xa2, 0x62, 0xe2,
  20:_libs/misc.c  ****     0x12, 0x92, 0x52, 0xd2, 0x32, 0xb2, 0x72, 0xf2, 0x0a, 0x8a, 0x4a, 0xca,
  21:_libs/misc.c  ****     0x2a, 0xaa, 0x6a, 0xea, 0x1a, 0x9a, 0x5a, 0xda, 0x3a, 0xba, 0x7a, 0xfa,
  22:_libs/misc.c  ****     0x06, 0x86, 0x46, 0xc6, 0x26, 0xa6, 0x66, 0xe6, 0x16, 0x96, 0x56, 0xd6,
  23:_libs/misc.c  ****     0x36, 0xb6, 0x76, 0xf6, 0x0e, 0x8e, 0x4e, 0xce, 0x2e, 0xae, 0x6e, 0xee,
  24:_libs/misc.c  ****     0x1e, 0x9e, 0x5e, 0xde, 0x3e, 0xbe, 0x7e, 0xfe, 0x01, 0x81, 0x41, 0xc1,
  25:_libs/misc.c  ****     0x21, 0xa1, 0x61, 0xe1, 0x11, 0x91, 0x51, 0xd1, 0x31, 0xb1, 0x71, 0xf1,
  26:_libs/misc.c  ****     0x09, 0x89, 0x49, 0xc9, 0x29, 0xa9, 0x69, 0xe9, 0x19, 0x99, 0x59, 0xd9,
  27:_libs/misc.c  ****     0x39, 0xb9, 0x79, 0xf9, 0x05, 0x85, 0x45, 0xc5, 0x25, 0xa5, 0x65, 0xe5,
  28:_libs/misc.c  ****     0x15, 0x95, 0x55, 0xd5, 0x35, 0xb5, 0x75, 0xf5, 0x0d, 0x8d, 0x4d, 0xcd,
  29:_libs/misc.c  ****     0x2d, 0xad, 0x6d, 0xed, 0x1d, 0x9d, 0x5d, 0xdd, 0x3d, 0xbd, 0x7d, 0xfd,
  30:_libs/misc.c  ****     0x03, 0x83, 0x43, 0xc3, 0x23, 0xa3, 0x63, 0xe3, 0x13, 0x93, 0x53, 0xd3,
  31:_libs/misc.c  ****     0x33, 0xb3, 0x73, 0xf3, 0x0b, 0x8b, 0x4b, 0xcb, 0x2b, 0xab, 0x6b, 0xeb,
ARM GAS  C:\Users\tom\AppData\Local\Temp\ccvXuUid.s 			page 2


  32:_libs/misc.c  ****     0x1b, 0x9b, 0x5b, 0xdb, 0x3b, 0xbb, 0x7b, 0xfb, 0x07, 0x87, 0x47, 0xc7,
  33:_libs/misc.c  ****     0x27, 0xa7, 0x67, 0xe7, 0x17, 0x97, 0x57, 0xd7, 0x37, 0xb7, 0x77, 0xf7,
  34:_libs/misc.c  ****     0x0f, 0x8f, 0x4f, 0xcf, 0x2f, 0xaf, 0x6f, 0xef, 0x1f, 0x9f, 0x5f, 0xdf,
  35:_libs/misc.c  ****     0x3f, 0xbf, 0x7f, 0xff
  36:_libs/misc.c  **** };
  37:_libs/misc.c  **** 
  38:_libs/misc.c  **** volatile unsigned long g_nms;
  39:_libs/misc.c  **** 
  40:_libs/misc.c  **** void _delay_us(volatile unsigned long n)
  41:_libs/misc.c  **** {
  27              		.loc 1 41 0
  28              		.cfi_startproc
  29              		@ args = 0, pretend = 0, frame = 8
  30              		@ frame_needed = 0, uses_anonymous_args = 0
  31              		@ link register save eliminated.
  32              	.LVL0:
  33 0000 82B0     		sub	sp, sp, #8
  34              	.LCFI0:
  35              		.cfi_def_cfa_offset 8
  36              		.loc 1 41 0
  37 0002 0190     		str	r0, [sp, #4]
  42:_libs/misc.c  ****     n *= 5;
  38              		.loc 1 42 0
  39 0004 019B     		ldr	r3, [sp, #4]
  40 0006 03EB8303 		add	r3, r3, r3, lsl #2
  41 000a 0193     		str	r3, [sp, #4]
  43:_libs/misc.c  ****     n /= 2;
  42              		.loc 1 43 0
  43 000c 019B     		ldr	r3, [sp, #4]
  44 000e 5B08     		lsrs	r3, r3, #1
  45 0010 0193     		str	r3, [sp, #4]
  46              	.L2:
  44:_libs/misc.c  ****     while (n--) ;
  47              		.loc 1 44 0 discriminator 1
  48 0012 019B     		ldr	r3, [sp, #4]
  49 0014 5A1E     		subs	r2, r3, #1
  50 0016 0192     		str	r2, [sp, #4]
  51 0018 002B     		cmp	r3, #0
  52 001a FAD1     		bne	.L2
  45:_libs/misc.c  **** }
  53              		.loc 1 45 0
  54 001c 02B0     		add	sp, sp, #8
  55              	.LCFI1:
  56              		.cfi_def_cfa_offset 0
  57              		@ sp needed
  58 001e 7047     		bx	lr
  59              		.cfi_endproc
  60              	.LFE56:
  61              		.size	_delay_us, .-_delay_us
  62              		.section	.text._delay_ms_loop,"ax",%progbits
  63              		.align	1
  64              		.global	_delay_ms_loop
  65              		.thumb
  66              		.thumb_func
  67              		.type	_delay_ms_loop, %function
  68              	_delay_ms_loop:
  69              	.LFB57:
ARM GAS  C:\Users\tom\AppData\Local\Temp\ccvXuUid.s 			page 3


  46:_libs/misc.c  **** 
  47:_libs/misc.c  **** void _delay_ms_loop(volatile unsigned long n)
  48:_libs/misc.c  **** {
  70              		.loc 1 48 0
  71              		.cfi_startproc
  72              		@ args = 0, pretend = 0, frame = 8
  73              		@ frame_needed = 0, uses_anonymous_args = 0
  74              	.LVL1:
  75 0000 07B5     		push	{r0, r1, r2, lr}
  76              	.LCFI2:
  77              		.cfi_def_cfa_offset 16
  78              		.cfi_offset 14, -4
  79 0002 0190     		str	r0, [sp, #4]
  80              	.LVL2:
  81              	.L6:
  49:_libs/misc.c  ****     while (n--) {
  82              		.loc 1 49 0
  83 0004 019B     		ldr	r3, [sp, #4]
  84 0006 5A1E     		subs	r2, r3, #1
  85 0008 0192     		str	r2, [sp, #4]
  86 000a 23B1     		cbz	r3, .L8
  50:_libs/misc.c  ****         _delay_us(1000);
  87              		.loc 1 50 0
  88 000c 4FF47A70 		mov	r0, #1000
  89 0010 FFF7FEFF 		bl	_delay_us
  90              	.LVL3:
  91 0014 F6E7     		b	.L6
  92              	.L8:
  51:_libs/misc.c  ****     }
  52:_libs/misc.c  **** }
  93              		.loc 1 52 0
  94 0016 03B0     		add	sp, sp, #12
  95              	.LCFI3:
  96              		.cfi_def_cfa_offset 4
  97              		@ sp needed
  98 0018 5DF804FB 		ldr	pc, [sp], #4
  99              		.cfi_endproc
 100              	.LFE57:
 101              		.size	_delay_ms_loop, .-_delay_ms_loop
 102              		.section	.text._delay_ms_systick,"ax",%progbits
 103              		.align	1
 104              		.global	_delay_ms_systick
 105              		.thumb
 106              		.thumb_func
 107              		.type	_delay_ms_systick, %function
 108              	_delay_ms_systick:
 109              	.LFB58:
  53:_libs/misc.c  **** 
  54:_libs/misc.c  **** void _delay_ms_systick(volatile unsigned long nms)
  55:_libs/misc.c  **** {
 110              		.loc 1 55 0
 111              		.cfi_startproc
 112              		@ args = 0, pretend = 0, frame = 8
 113              		@ frame_needed = 0, uses_anonymous_args = 0
 114              		@ link register save eliminated.
 115              	.LVL4:
 116 0000 82B0     		sub	sp, sp, #8
ARM GAS  C:\Users\tom\AppData\Local\Temp\ccvXuUid.s 			page 4


 117              	.LCFI4:
 118              		.cfi_def_cfa_offset 8
 119              		.loc 1 55 0
 120 0002 0190     		str	r0, [sp, #4]
  56:_libs/misc.c  ****     g_nms = nms;
 121              		.loc 1 56 0
 122 0004 019A     		ldr	r2, [sp, #4]
 123 0006 034B     		ldr	r3, .L12
 124 0008 1A60     		str	r2, [r3]
 125              	.L10:
  57:_libs/misc.c  ****     while (g_nms > 0) ;
 126              		.loc 1 57 0 discriminator 1
 127 000a 1A68     		ldr	r2, [r3]
 128 000c 002A     		cmp	r2, #0
 129 000e FCD1     		bne	.L10
  58:_libs/misc.c  **** }
 130              		.loc 1 58 0
 131 0010 02B0     		add	sp, sp, #8
 132              	.LCFI5:
 133              		.cfi_def_cfa_offset 0
 134              		@ sp needed
 135 0012 7047     		bx	lr
 136              	.L13:
 137              		.align	2
 138              	.L12:
 139 0014 00000000 		.word	g_nms
 140              		.cfi_endproc
 141              	.LFE58:
 142              		.size	_delay_ms_systick, .-_delay_ms_systick
 143              		.section	.text._delay_nms_mm,"ax",%progbits
 144              		.align	1
 145              		.global	_delay_nms_mm
 146              		.thumb
 147              		.thumb_func
 148              		.type	_delay_nms_mm, %function
 149              	_delay_nms_mm:
 150              	.LFB59:
  59:_libs/misc.c  **** 
  60:_libs/misc.c  **** void _delay_nms_mm(void)
  61:_libs/misc.c  **** {
 151              		.loc 1 61 0
 152              		.cfi_startproc
 153              		@ args = 0, pretend = 0, frame = 0
 154              		@ frame_needed = 0, uses_anonymous_args = 0
 155              		@ link register save eliminated.
  62:_libs/misc.c  ****     if (g_nms > 0)
 156              		.loc 1 62 0
 157 0000 034B     		ldr	r3, .L19
 158 0002 1A68     		ldr	r2, [r3]
 159 0004 12B1     		cbz	r2, .L14
  63:_libs/misc.c  ****         g_nms--;
 160              		.loc 1 63 0
 161 0006 1A68     		ldr	r2, [r3]
 162 0008 013A     		subs	r2, r2, #1
 163 000a 1A60     		str	r2, [r3]
 164              	.L14:
 165 000c 7047     		bx	lr
ARM GAS  C:\Users\tom\AppData\Local\Temp\ccvXuUid.s 			page 5


 166              	.L20:
 167 000e 00BF     		.align	2
 168              	.L19:
 169 0010 00000000 		.word	g_nms
 170              		.cfi_endproc
 171              	.LFE59:
 172              		.size	_delay_nms_mm, .-_delay_nms_mm
 173              		.section	.text.ByteReverse,"ax",%progbits
 174              		.align	1
 175              		.global	ByteReverse
 176              		.thumb
 177              		.thumb_func
 178              		.type	ByteReverse, %function
 179              	ByteReverse:
 180              	.LFB60:
  64:_libs/misc.c  **** }
  65:_libs/misc.c  **** 
  66:_libs/misc.c  **** unsigned char ByteReverse(unsigned char c)
  67:_libs/misc.c  **** { 
 181              		.loc 1 67 0
 182              		.cfi_startproc
 183              		@ args = 0, pretend = 0, frame = 0
 184              		@ frame_needed = 0, uses_anonymous_args = 0
 185              		@ link register save eliminated.
 186              	.LVL5:
  68:_libs/misc.c  ****     return ByteReverseTable[c];
  69:_libs/misc.c  **** }
 187              		.loc 1 69 0
 188 0000 014B     		ldr	r3, .L22
 189 0002 185C     		ldrb	r0, [r3, r0]	@ zero_extendqisi2
 190              	.LVL6:
 191 0004 7047     		bx	lr
 192              	.L23:
 193 0006 00BF     		.align	2
 194              	.L22:
 195 0008 00000000 		.word	.LANCHOR0
 196              		.cfi_endproc
 197              	.LFE60:
 198              		.size	ByteReverse, .-ByteReverse
 199              		.section	.text.get_free_mem,"ax",%progbits
 200              		.align	1
 201              		.global	get_free_mem
 202              		.thumb
 203              		.thumb_func
 204              		.type	get_free_mem, %function
 205              	get_free_mem:
 206              	.LFB62:
  70:_libs/misc.c  **** 
  71:_libs/misc.c  **** static size_t __get_free_mem(size_t start, size_t end)
  72:_libs/misc.c  **** {
  73:_libs/misc.c  ****     unsigned char *p;
  74:_libs/misc.c  ****     while(start < end - 1) {
  75:_libs/misc.c  ****         size_t size = (start + end) / 2;
  76:_libs/misc.c  ****         if(size == 0)
  77:_libs/misc.c  ****             return 0;
  78:_libs/misc.c  ****        p = malloc(size);
  79:_libs/misc.c  ****         if(p != NULL) {     // malloc succeeded
ARM GAS  C:\Users\tom\AppData\Local\Temp\ccvXuUid.s 			page 6


  80:_libs/misc.c  ****             free(p);
  81:_libs/misc.c  ****             start = size;
  82:_libs/misc.c  ****         }
  83:_libs/misc.c  ****         else {              // malloc failed
  84:_libs/misc.c  ****             end = size - 1;
  85:_libs/misc.c  ****         }
  86:_libs/misc.c  ****     }
  87:_libs/misc.c  ****     return start;
  88:_libs/misc.c  **** }
  89:_libs/misc.c  **** 
  90:_libs/misc.c  **** size_t get_free_mem(void)
  91:_libs/misc.c  **** {
 207              		.loc 1 91 0
 208              		.cfi_startproc
 209              		@ args = 0, pretend = 0, frame = 0
 210              		@ frame_needed = 0, uses_anonymous_args = 0
 211              	.LVL7:
 212 0000 70B5     		push	{r4, r5, r6, lr}
 213              	.LCFI6:
 214              		.cfi_def_cfa_offset 16
 215              		.cfi_offset 4, -16
 216              		.cfi_offset 5, -12
 217              		.cfi_offset 6, -8
 218              		.cfi_offset 14, -4
 219              	.LBB6:
 220              	.LBB7:
 221              	.LBB8:
  80:_libs/misc.c  ****             start = size;
 222              		.loc 1 80 0
 223 0002 4FF48036 		mov	r6, #65536
 224 0006 0025     		movs	r5, #0
 225              	.LVL8:
 226              	.L25:
 227              	.LBE8:
  74:_libs/misc.c  ****         size_t size = (start + end) / 2;
 228              		.loc 1 74 0
 229 0008 731E     		subs	r3, r6, #1
 230 000a 9D42     		cmp	r5, r3
 231 000c 0CD2     		bcs	.L31
 232              	.LBB9:
  75:_libs/misc.c  ****         if(size == 0)
 233              		.loc 1 75 0
 234 000e 7019     		adds	r0, r6, r5
 235              	.LVL9:
  76:_libs/misc.c  ****             return 0;
 236              		.loc 1 76 0
 237 0010 4408     		lsrs	r4, r0, #1
 238              	.LVL10:
  77:_libs/misc.c  ****        p = malloc(size);
 239              		.loc 1 77 0
 240 0012 2046     		mov	r0, r4
  76:_libs/misc.c  ****             return 0;
 241              		.loc 1 76 0
 242 0014 0AD0     		beq	.L30
  78:_libs/misc.c  ****         if(p != NULL) {     // malloc succeeded
 243              		.loc 1 78 0
 244 0016 FFF7FEFF 		bl	malloc
ARM GAS  C:\Users\tom\AppData\Local\Temp\ccvXuUid.s 			page 7


 245              	.LVL11:
  79:_libs/misc.c  ****             free(p);
 246              		.loc 1 79 0
 247 001a 18B1     		cbz	r0, .L27
  80:_libs/misc.c  ****             start = size;
 248              		.loc 1 80 0
 249 001c FFF7FEFF 		bl	free
 250              	.LVL12:
 251 0020 2546     		mov	r5, r4
 252 0022 F1E7     		b	.L25
 253              	.LVL13:
 254              	.L27:
  84:_libs/misc.c  ****         }
 255              		.loc 1 84 0
 256 0024 661E     		subs	r6, r4, #1
 257              	.LVL14:
 258 0026 EFE7     		b	.L25
 259              	.LVL15:
 260              	.L31:
 261              	.LBE9:
  74:_libs/misc.c  ****         size_t size = (start + end) / 2;
 262              		.loc 1 74 0
 263 0028 2846     		mov	r0, r5
 264 002a 70BD     		pop	{r4, r5, r6, pc}
 265              	.LVL16:
 266              	.L30:
 267              	.LBE7:
 268              	.LBE6:
  92:_libs/misc.c  ****     return __get_free_mem(0, 65536UL); 
  93:_libs/misc.c  **** }
 269              		.loc 1 93 0
 270 002c 70BD     		pop	{r4, r5, r6, pc}
 271              		.cfi_endproc
 272              	.LFE62:
 273              		.size	get_free_mem, .-get_free_mem
 274              		.comm	g_nms,4,4
 275              		.global	ByteReverseTable
 276              		.comm	TIM_TimeBaseStructure,10,2
 277              		.comm	ADC_InitStructure,20,4
 278              		.comm	DAC_InitStructure,16,4
 279              		.comm	EXTI_InitStructure,8,4
 280              		.comm	USART_InitStructure,16,4
 281              		.comm	NVIC_InitStructure,4,1
 282              		.comm	DMA_InitStructure,44,4
 283              		.comm	SPI_InitStructure,18,2
 284              		.comm	GPIO_InitStructure,4,2
 285              		.section	FLASH,"a",%progbits
 286              		.set	.LANCHOR0,. + 0
 287              		.type	ByteReverseTable, %object
 288              		.size	ByteReverseTable, 256
 289              	ByteReverseTable:
 290 0000 00       		.byte	0
 291 0001 80       		.byte	-128
 292 0002 40       		.byte	64
 293 0003 C0       		.byte	-64
 294 0004 20       		.byte	32
 295 0005 A0       		.byte	-96
ARM GAS  C:\Users\tom\AppData\Local\Temp\ccvXuUid.s 			page 8


 296 0006 60       		.byte	96
 297 0007 E0       		.byte	-32
 298 0008 10       		.byte	16
 299 0009 90       		.byte	-112
 300 000a 50       		.byte	80
 301 000b D0       		.byte	-48
 302 000c 30       		.byte	48
 303 000d B0       		.byte	-80
 304 000e 70       		.byte	112
 305 000f F0       		.byte	-16
 306 0010 08       		.byte	8
 307 0011 88       		.byte	-120
 308 0012 48       		.byte	72
 309 0013 C8       		.byte	-56
 310 0014 28       		.byte	40
 311 0015 A8       		.byte	-88
 312 0016 68       		.byte	104
 313 0017 E8       		.byte	-24
 314 0018 18       		.byte	24
 315 0019 98       		.byte	-104
 316 001a 58       		.byte	88
 317 001b D8       		.byte	-40
 318 001c 38       		.byte	56
 319 001d B8       		.byte	-72
 320 001e 78       		.byte	120
 321 001f F8       		.byte	-8
 322 0020 04       		.byte	4
 323 0021 84       		.byte	-124
 324 0022 44       		.byte	68
 325 0023 C4       		.byte	-60
 326 0024 24       		.byte	36
 327 0025 A4       		.byte	-92
 328 0026 64       		.byte	100
 329 0027 E4       		.byte	-28
 330 0028 14       		.byte	20
 331 0029 94       		.byte	-108
 332 002a 54       		.byte	84
 333 002b D4       		.byte	-44
 334 002c 34       		.byte	52
 335 002d B4       		.byte	-76
 336 002e 74       		.byte	116
 337 002f F4       		.byte	-12
 338 0030 0C       		.byte	12
 339 0031 8C       		.byte	-116
 340 0032 4C       		.byte	76
 341 0033 CC       		.byte	-52
 342 0034 2C       		.byte	44
 343 0035 AC       		.byte	-84
 344 0036 6C       		.byte	108
 345 0037 EC       		.byte	-20
 346 0038 1C       		.byte	28
 347 0039 9C       		.byte	-100
 348 003a 5C       		.byte	92
 349 003b DC       		.byte	-36
 350 003c 3C       		.byte	60
 351 003d BC       		.byte	-68
 352 003e 7C       		.byte	124
ARM GAS  C:\Users\tom\AppData\Local\Temp\ccvXuUid.s 			page 9


 353 003f FC       		.byte	-4
 354 0040 02       		.byte	2
 355 0041 82       		.byte	-126
 356 0042 42       		.byte	66
 357 0043 C2       		.byte	-62
 358 0044 22       		.byte	34
 359 0045 A2       		.byte	-94
 360 0046 62       		.byte	98
 361 0047 E2       		.byte	-30
 362 0048 12       		.byte	18
 363 0049 92       		.byte	-110
 364 004a 52       		.byte	82
 365 004b D2       		.byte	-46
 366 004c 32       		.byte	50
 367 004d B2       		.byte	-78
 368 004e 72       		.byte	114
 369 004f F2       		.byte	-14
 370 0050 0A       		.byte	10
 371 0051 8A       		.byte	-118
 372 0052 4A       		.byte	74
 373 0053 CA       		.byte	-54
 374 0054 2A       		.byte	42
 375 0055 AA       		.byte	-86
 376 0056 6A       		.byte	106
 377 0057 EA       		.byte	-22
 378 0058 1A       		.byte	26
 379 0059 9A       		.byte	-102
 380 005a 5A       		.byte	90
 381 005b DA       		.byte	-38
 382 005c 3A       		.byte	58
 383 005d BA       		.byte	-70
 384 005e 7A       		.byte	122
 385 005f FA       		.byte	-6
 386 0060 06       		.byte	6
 387 0061 86       		.byte	-122
 388 0062 46       		.byte	70
 389 0063 C6       		.byte	-58
 390 0064 26       		.byte	38
 391 0065 A6       		.byte	-90
 392 0066 66       		.byte	102
 393 0067 E6       		.byte	-26
 394 0068 16       		.byte	22
 395 0069 96       		.byte	-106
 396 006a 56       		.byte	86
 397 006b D6       		.byte	-42
 398 006c 36       		.byte	54
 399 006d B6       		.byte	-74
 400 006e 76       		.byte	118
 401 006f F6       		.byte	-10
 402 0070 0E       		.byte	14
 403 0071 8E       		.byte	-114
 404 0072 4E       		.byte	78
 405 0073 CE       		.byte	-50
 406 0074 2E       		.byte	46
 407 0075 AE       		.byte	-82
 408 0076 6E       		.byte	110
 409 0077 EE       		.byte	-18
ARM GAS  C:\Users\tom\AppData\Local\Temp\ccvXuUid.s 			page 10


 410 0078 1E       		.byte	30
 411 0079 9E       		.byte	-98
 412 007a 5E       		.byte	94
 413 007b DE       		.byte	-34
 414 007c 3E       		.byte	62
 415 007d BE       		.byte	-66
 416 007e 7E       		.byte	126
 417 007f FE       		.byte	-2
 418 0080 01       		.byte	1
 419 0081 81       		.byte	-127
 420 0082 41       		.byte	65
 421 0083 C1       		.byte	-63
 422 0084 21       		.byte	33
 423 0085 A1       		.byte	-95
 424 0086 61       		.byte	97
 425 0087 E1       		.byte	-31
 426 0088 11       		.byte	17
 427 0089 91       		.byte	-111
 428 008a 51       		.byte	81
 429 008b D1       		.byte	-47
 430 008c 31       		.byte	49
 431 008d B1       		.byte	-79
 432 008e 71       		.byte	113
 433 008f F1       		.byte	-15
 434 0090 09       		.byte	9
 435 0091 89       		.byte	-119
 436 0092 49       		.byte	73
 437 0093 C9       		.byte	-55
 438 0094 29       		.byte	41
 439 0095 A9       		.byte	-87
 440 0096 69       		.byte	105
 441 0097 E9       		.byte	-23
 442 0098 19       		.byte	25
 443 0099 99       		.byte	-103
 444 009a 59       		.byte	89
 445 009b D9       		.byte	-39
 446 009c 39       		.byte	57
 447 009d B9       		.byte	-71
 448 009e 79       		.byte	121
 449 009f F9       		.byte	-7
 450 00a0 05       		.byte	5
 451 00a1 85       		.byte	-123
 452 00a2 45       		.byte	69
 453 00a3 C5       		.byte	-59
 454 00a4 25       		.byte	37
 455 00a5 A5       		.byte	-91
 456 00a6 65       		.byte	101
 457 00a7 E5       		.byte	-27
 458 00a8 15       		.byte	21
 459 00a9 95       		.byte	-107
 460 00aa 55       		.byte	85
 461 00ab D5       		.byte	-43
 462 00ac 35       		.byte	53
 463 00ad B5       		.byte	-75
 464 00ae 75       		.byte	117
 465 00af F5       		.byte	-11
 466 00b0 0D       		.byte	13
ARM GAS  C:\Users\tom\AppData\Local\Temp\ccvXuUid.s 			page 11


 467 00b1 8D       		.byte	-115
 468 00b2 4D       		.byte	77
 469 00b3 CD       		.byte	-51
 470 00b4 2D       		.byte	45
 471 00b5 AD       		.byte	-83
 472 00b6 6D       		.byte	109
 473 00b7 ED       		.byte	-19
 474 00b8 1D       		.byte	29
 475 00b9 9D       		.byte	-99
 476 00ba 5D       		.byte	93
 477 00bb DD       		.byte	-35
 478 00bc 3D       		.byte	61
 479 00bd BD       		.byte	-67
 480 00be 7D       		.byte	125
 481 00bf FD       		.byte	-3
 482 00c0 03       		.byte	3
 483 00c1 83       		.byte	-125
 484 00c2 43       		.byte	67
 485 00c3 C3       		.byte	-61
 486 00c4 23       		.byte	35
 487 00c5 A3       		.byte	-93
 488 00c6 63       		.byte	99
 489 00c7 E3       		.byte	-29
 490 00c8 13       		.byte	19
 491 00c9 93       		.byte	-109
 492 00ca 53       		.byte	83
 493 00cb D3       		.byte	-45
 494 00cc 33       		.byte	51
 495 00cd B3       		.byte	-77
 496 00ce 73       		.byte	115
 497 00cf F3       		.byte	-13
 498 00d0 0B       		.byte	11
 499 00d1 8B       		.byte	-117
 500 00d2 4B       		.byte	75
 501 00d3 CB       		.byte	-53
 502 00d4 2B       		.byte	43
 503 00d5 AB       		.byte	-85
 504 00d6 6B       		.byte	107
 505 00d7 EB       		.byte	-21
 506 00d8 1B       		.byte	27
 507 00d9 9B       		.byte	-101
 508 00da 5B       		.byte	91
 509 00db DB       		.byte	-37
 510 00dc 3B       		.byte	59
 511 00dd BB       		.byte	-69
 512 00de 7B       		.byte	123
 513 00df FB       		.byte	-5
 514 00e0 07       		.byte	7
 515 00e1 87       		.byte	-121
 516 00e2 47       		.byte	71
 517 00e3 C7       		.byte	-57
 518 00e4 27       		.byte	39
 519 00e5 A7       		.byte	-89
 520 00e6 67       		.byte	103
 521 00e7 E7       		.byte	-25
 522 00e8 17       		.byte	23
 523 00e9 97       		.byte	-105
ARM GAS  C:\Users\tom\AppData\Local\Temp\ccvXuUid.s 			page 12


 524 00ea 57       		.byte	87
 525 00eb D7       		.byte	-41
 526 00ec 37       		.byte	55
 527 00ed B7       		.byte	-73
 528 00ee 77       		.byte	119
 529 00ef F7       		.byte	-9
 530 00f0 0F       		.byte	15
 531 00f1 8F       		.byte	-113
 532 00f2 4F       		.byte	79
 533 00f3 CF       		.byte	-49
 534 00f4 2F       		.byte	47
 535 00f5 AF       		.byte	-81
 536 00f6 6F       		.byte	111
 537 00f7 EF       		.byte	-17
 538 00f8 1F       		.byte	31
 539 00f9 9F       		.byte	-97
 540 00fa 5F       		.byte	95
 541 00fb DF       		.byte	-33
 542 00fc 3F       		.byte	63
 543 00fd BF       		.byte	-65
 544 00fe 7F       		.byte	127
 545 00ff FF       		.byte	-1
 546              		.text
 547              	.Letext0:
 548              		.file 2 "c:\\yagarto\\arm-none-eabi\\include\\machine\\_default_types.h"
 549              		.file 3 "c:\\yagarto\\arm-none-eabi\\include\\stdint.h"
 550              		.file 4 "c:\\yagarto\\lib\\gcc\\arm-none-eabi\\4.9.3\\include\\stddef.h"
 551              		.file 5 "c:/yagarto/cmsis_cm3_v361/_cmsis/stm32f10x.h"
 552              		.file 6 "c:/yagarto/cmsis_cm3_v361/_f10x_stdperiph_drv/inc/stm32f10x_adc.h"
 553              		.file 7 "c:/yagarto/cmsis_cm3_v361/_f10x_stdperiph_drv/inc/stm32f10x_dac.h"
 554              		.file 8 "c:/yagarto/cmsis_cm3_v361/_f10x_stdperiph_drv/inc/stm32f10x_dma.h"
 555              		.file 9 "c:/yagarto/cmsis_cm3_v361/_f10x_stdperiph_drv/inc/stm32f10x_exti.h"
 556              		.file 10 "c:/yagarto/cmsis_cm3_v361/_f10x_stdperiph_drv/inc/stm32f10x_gpio.h"
 557              		.file 11 "c:/yagarto/cmsis_cm3_v361/_f10x_stdperiph_drv/inc/stm32f10x_spi.h"
 558              		.file 12 "c:/yagarto/cmsis_cm3_v361/_f10x_stdperiph_drv/inc/stm32f10x_tim.h"
 559              		.file 13 "c:/yagarto/cmsis_cm3_v361/_f10x_stdperiph_drv/inc/stm32f10x_usart.h"
 560              		.file 14 "c:/yagarto/cmsis_cm3_v361/_f10x_stdperiph_drv/inc/misc.h"
 561              		.file 15 "c:/yagarto/cmsis_cm3_v361/_cmsis/core_cm3.h"
 562              		.file 16 "c:\\yagarto\\arm-none-eabi\\include\\stdlib.h"