ARM GAS  C:\Users\tom\AppData\Local\Temp\cc1RnbFl.s 			page 1


   1              		.syntax unified
   2              		.cpu cortex-m3
   3              		.fpu softvfp
   4              		.eabi_attribute 20, 1
   5              		.eabi_attribute 21, 1
   6              		.eabi_attribute 23, 3
   7              		.eabi_attribute 24, 1
   8              		.eabi_attribute 25, 1
   9              		.eabi_attribute 26, 1
  10              		.eabi_attribute 30, 4
  11              		.eabi_attribute 34, 1
  12              		.eabi_attribute 18, 4
  13              		.thumb
  14              		.file	"syscall.c"
  15              		.text
  16              	.Ltext0:
  17              		.cfi_sections	.debug_frame
  18              		.section	.text._sbrk,"ax",%progbits
  19              		.align	1
  20              		.global	_sbrk
  21              		.thumb
  22              		.thumb_func
  23              		.type	_sbrk, %function
  24              	_sbrk:
  25              	.LFB56:
  26              		.file 1 "_libs/syscall.c"
   1:_libs/syscall.c **** #include <stdio.h>
   2:_libs/syscall.c **** #include <stdarg.h>
   3:_libs/syscall.c **** #include <stdarg.h>
   4:_libs/syscall.c **** #include <stdlib.h> 
   5:_libs/syscall.c **** #include <sys/types.h>
   6:_libs/syscall.c **** #include <sys/stat.h>
   7:_libs/syscall.c **** #include "misc.h"
   8:_libs/syscall.c **** #include "usart_f1.h"
   9:_libs/syscall.c **** 
  10:_libs/syscall.c **** #undef errno
  11:_libs/syscall.c **** extern int errno;
  12:_libs/syscall.c **** extern int _end;
  13:_libs/syscall.c **** 
  14:_libs/syscall.c **** caddr_t _sbrk(int incr)
  15:_libs/syscall.c **** {
  27              		.loc 1 15 0
  28              		.cfi_startproc
  29              		@ args = 0, pretend = 0, frame = 0
  30              		@ frame_needed = 0, uses_anonymous_args = 0
  31              		@ link register save eliminated.
  32              	.LVL0:
  16:_libs/syscall.c ****     register unsigned char *pStack asm("sp");
  17:_libs/syscall.c ****     static unsigned char *s_pHeapEnd; 
  18:_libs/syscall.c **** 
  19:_libs/syscall.c ****     if (!s_pHeapEnd) 
  33              		.loc 1 19 0
  34 0000 074B     		ldr	r3, .L6
  35 0002 1A68     		ldr	r2, [r3]
  36 0004 0AB9     		cbnz	r2, .L2
  20:_libs/syscall.c ****         s_pHeapEnd = (unsigned char *)&_end; 
  37              		.loc 1 20 0
ARM GAS  C:\Users\tom\AppData\Local\Temp\cc1RnbFl.s 			page 2


  38 0006 074A     		ldr	r2, .L6+4
  39 0008 1A60     		str	r2, [r3]
  40              	.L2:
  21:_libs/syscall.c ****     if (s_pHeapEnd + incr > pStack) {    // conflict, failed to alloc
  41              		.loc 1 21 0
  42 000a 6A46     		mov	r2, sp
  43 000c 1B68     		ldr	r3, [r3]
  44 000e 1844     		add	r0, r0, r3
  45              	.LVL1:
  46 0010 9042     		cmp	r0, r2
  47              	.LVL2:
  22:_libs/syscall.c ****         return (caddr_t) - 1; 
  23:_libs/syscall.c ****     }
  24:_libs/syscall.c ****     unsigned char *pOldHeapEnd = s_pHeapEnd; 
  25:_libs/syscall.c ****     s_pHeapEnd += incr; 
  48              		.loc 1 25 0
  49 0012 9DBF     		ittte	ls
  50 0014 024A     		ldrls	r2, .L6
  51 0016 1060     		strls	r0, [r2]
  26:_libs/syscall.c ****     return (caddr_t)pOldHeapEnd; 
  52              		.loc 1 26 0
  53 0018 1846     		movls	r0, r3
  22:_libs/syscall.c ****         return (caddr_t) - 1; 
  54              		.loc 1 22 0
  55 001a 4FF0FF30 		movhi	r0, #-1
  27:_libs/syscall.c **** }
  56              		.loc 1 27 0
  57 001e 7047     		bx	lr
  58              	.L7:
  59              		.align	2
  60              	.L6:
  61 0020 00000000 		.word	.LANCHOR0
  62 0024 00000000 		.word	_end
  63              		.cfi_endproc
  64              	.LFE56:
  65              		.size	_sbrk, .-_sbrk
  66              		.section	.text.link,"ax",%progbits
  67              		.align	1
  68              		.global	link
  69              		.thumb
  70              		.thumb_func
  71              		.type	link, %function
  72              	link:
  73              	.LFB57:
  28:_libs/syscall.c **** 
  29:_libs/syscall.c **** int link(char *old, char *new)
  30:_libs/syscall.c **** {
  74              		.loc 1 30 0
  75              		.cfi_startproc
  76              		@ args = 0, pretend = 0, frame = 0
  77              		@ frame_needed = 0, uses_anonymous_args = 0
  78              		@ link register save eliminated.
  79              	.LVL3:
  31:_libs/syscall.c ****     return -1;
  32:_libs/syscall.c **** }
  80              		.loc 1 32 0
  81 0000 4FF0FF30 		mov	r0, #-1
ARM GAS  C:\Users\tom\AppData\Local\Temp\cc1RnbFl.s 			page 3


  82              	.LVL4:
  83 0004 7047     		bx	lr
  84              		.cfi_endproc
  85              	.LFE57:
  86              		.size	link, .-link
  87              		.section	.text._close,"ax",%progbits
  88              		.align	1
  89              		.global	_close
  90              		.thumb
  91              		.thumb_func
  92              		.type	_close, %function
  93              	_close:
  94              	.LFB58:
  33:_libs/syscall.c **** 
  34:_libs/syscall.c **** int _close(int file)
  35:_libs/syscall.c **** {
  95              		.loc 1 35 0
  96              		.cfi_startproc
  97              		@ args = 0, pretend = 0, frame = 0
  98              		@ frame_needed = 0, uses_anonymous_args = 0
  99              		@ link register save eliminated.
 100              	.LVL5:
  36:_libs/syscall.c ****     return -1;
  37:_libs/syscall.c **** }
 101              		.loc 1 37 0
 102 0000 4FF0FF30 		mov	r0, #-1
 103              	.LVL6:
 104 0004 7047     		bx	lr
 105              		.cfi_endproc
 106              	.LFE58:
 107              		.size	_close, .-_close
 108              		.section	.text._fstat,"ax",%progbits
 109              		.align	1
 110              		.global	_fstat
 111              		.thumb
 112              		.thumb_func
 113              		.type	_fstat, %function
 114              	_fstat:
 115              	.LFB59:
  38:_libs/syscall.c **** 
  39:_libs/syscall.c **** int _fstat(int file, struct stat *st)
  40:_libs/syscall.c **** {
 116              		.loc 1 40 0
 117              		.cfi_startproc
 118              		@ args = 0, pretend = 0, frame = 0
 119              		@ frame_needed = 0, uses_anonymous_args = 0
 120              		@ link register save eliminated.
 121              	.LVL7:
  41:_libs/syscall.c ****     st->st_mode = S_IFCHR;
 122              		.loc 1 41 0
 123 0000 4FF40053 		mov	r3, #8192
 124 0004 4B60     		str	r3, [r1, #4]
  42:_libs/syscall.c ****     return 0;
  43:_libs/syscall.c **** }
 125              		.loc 1 43 0
 126 0006 0020     		movs	r0, #0
 127              	.LVL8:
ARM GAS  C:\Users\tom\AppData\Local\Temp\cc1RnbFl.s 			page 4


 128 0008 7047     		bx	lr
 129              		.cfi_endproc
 130              	.LFE59:
 131              		.size	_fstat, .-_fstat
 132              		.section	.text._isatty,"ax",%progbits
 133              		.align	1
 134              		.global	_isatty
 135              		.thumb
 136              		.thumb_func
 137              		.type	_isatty, %function
 138              	_isatty:
 139              	.LFB60:
  44:_libs/syscall.c **** 
  45:_libs/syscall.c **** int _isatty(int file)
  46:_libs/syscall.c **** {
 140              		.loc 1 46 0
 141              		.cfi_startproc
 142              		@ args = 0, pretend = 0, frame = 0
 143              		@ frame_needed = 0, uses_anonymous_args = 0
 144              		@ link register save eliminated.
 145              	.LVL9:
  47:_libs/syscall.c ****     return 1;
  48:_libs/syscall.c **** }
 146              		.loc 1 48 0
 147 0000 0120     		movs	r0, #1
 148              	.LVL10:
 149 0002 7047     		bx	lr
 150              		.cfi_endproc
 151              	.LFE60:
 152              		.size	_isatty, .-_isatty
 153              		.section	.text._lseek,"ax",%progbits
 154              		.align	1
 155              		.global	_lseek
 156              		.thumb
 157              		.thumb_func
 158              		.type	_lseek, %function
 159              	_lseek:
 160              	.LFB61:
  49:_libs/syscall.c **** 
  50:_libs/syscall.c **** int _lseek(int file, int ptr, int dir)
  51:_libs/syscall.c **** {
 161              		.loc 1 51 0
 162              		.cfi_startproc
 163              		@ args = 0, pretend = 0, frame = 0
 164              		@ frame_needed = 0, uses_anonymous_args = 0
 165              		@ link register save eliminated.
 166              	.LVL11:
  52:_libs/syscall.c ****     return 0;
  53:_libs/syscall.c **** }
 167              		.loc 1 53 0
 168 0000 0020     		movs	r0, #0
 169              	.LVL12:
 170 0002 7047     		bx	lr
 171              		.cfi_endproc
 172              	.LFE61:
 173              		.size	_lseek, .-_lseek
 174              		.section	.text._read,"ax",%progbits
ARM GAS  C:\Users\tom\AppData\Local\Temp\cc1RnbFl.s 			page 5


 175              		.align	1
 176              		.global	_read
 177              		.thumb
 178              		.thumb_func
 179              		.type	_read, %function
 180              	_read:
 181              	.LFB62:
  54:_libs/syscall.c **** 
  55:_libs/syscall.c **** int _read(int file, char *ptr, int len)
  56:_libs/syscall.c **** {
 182              		.loc 1 56 0
 183              		.cfi_startproc
 184              		@ args = 0, pretend = 0, frame = 0
 185              		@ frame_needed = 0, uses_anonymous_args = 0
 186              		@ link register save eliminated.
 187              	.LVL13:
  57:_libs/syscall.c ****     return 0;
  58:_libs/syscall.c **** }
 188              		.loc 1 58 0
 189 0000 0020     		movs	r0, #0
 190              	.LVL14:
 191 0002 7047     		bx	lr
 192              		.cfi_endproc
 193              	.LFE62:
 194              		.size	_read, .-_read
 195              		.section	.text.abort,"ax",%progbits
 196              		.align	1
 197              		.global	abort
 198              		.thumb
 199              		.thumb_func
 200              		.type	abort, %function
 201              	abort:
 202              	.LFB63:
  59:_libs/syscall.c **** 
  60:_libs/syscall.c **** void abort(void)
  61:_libs/syscall.c **** {
 203              		.loc 1 61 0
 204              		.cfi_startproc
 205              		@ Volatile: function does not return.
 206              		@ args = 0, pretend = 0, frame = 0
 207              		@ frame_needed = 0, uses_anonymous_args = 0
 208              		@ link register save eliminated.
 209              	.L15:
  62:_libs/syscall.c ****     while (1) ; /* Abort called */
 210              		.loc 1 62 0 discriminator 1
 211 0000 FEE7     		b	.L15
 212              		.cfi_endproc
 213              	.LFE63:
 214              		.size	abort, .-abort
 215              		.section	.text._write,"ax",%progbits
 216              		.align	1
 217              		.global	_write
 218              		.thumb
 219              		.thumb_func
 220              		.type	_write, %function
 221              	_write:
 222              	.LFB64:
ARM GAS  C:\Users\tom\AppData\Local\Temp\cc1RnbFl.s 			page 6


  63:_libs/syscall.c **** }
  64:_libs/syscall.c **** 
  65:_libs/syscall.c **** int _write(int file, char *ptr, int len)
  66:_libs/syscall.c **** {
 223              		.loc 1 66 0
 224              		.cfi_startproc
 225              		@ args = 0, pretend = 0, frame = 0
 226              		@ frame_needed = 0, uses_anonymous_args = 0
 227              	.LVL15:
 228 0000 70B5     		push	{r4, r5, r6, lr}
 229              	.LCFI0:
 230              		.cfi_def_cfa_offset 16
 231              		.cfi_offset 4, -16
 232              		.cfi_offset 5, -12
 233              		.cfi_offset 6, -8
 234              		.cfi_offset 14, -4
 235              		.loc 1 66 0
 236 0002 0E46     		mov	r6, r1
 237 0004 1546     		mov	r5, r2
  67:_libs/syscall.c ****     unsigned short todo;
  68:_libs/syscall.c ****     for (todo = 0; todo < len; todo++) {
 238              		.loc 1 68 0
 239 0006 0C46     		mov	r4, r1
 240              	.LVL16:
 241              	.L17:
 242 0008 A31B     		subs	r3, r4, r6
 243              		.loc 1 68 0 is_stmt 0 discriminator 1
 244 000a 9BB2     		uxth	r3, r3
 245 000c AB42     		cmp	r3, r5
 246 000e 0BDA     		bge	.L22
  69:_libs/syscall.c ****         USART_SendData(USART1, *ptr++);
 247              		.loc 1 69 0 is_stmt 1
 248 0010 0648     		ldr	r0, .L23
 249 0012 14F8011B 		ldrb	r1, [r4], #1	@ zero_extendqisi2
 250              	.LVL17:
 251 0016 FFF7FEFF 		bl	USART_SendData
 252              	.LVL18:
 253              	.L18:
  70:_libs/syscall.c ****         while(USART_GetFlagStatus(USART1, USART_FLAG_TC) == RESET); 
 254              		.loc 1 70 0 discriminator 1
 255 001a 0448     		ldr	r0, .L23
 256 001c 4021     		movs	r1, #64
 257 001e FFF7FEFF 		bl	USART_GetFlagStatus
 258              	.LVL19:
 259 0022 0028     		cmp	r0, #0
 260 0024 F9D0     		beq	.L18
 261 0026 EFE7     		b	.L17
 262              	.LVL20:
 263              	.L22:
  71:_libs/syscall.c ****     } 
  72:_libs/syscall.c ****     return len;
  73:_libs/syscall.c **** }
 264              		.loc 1 73 0
 265 0028 2846     		mov	r0, r5
 266 002a 70BD     		pop	{r4, r5, r6, pc}
 267              	.LVL21:
 268              	.L24:
ARM GAS  C:\Users\tom\AppData\Local\Temp\cc1RnbFl.s 			page 7


 269              		.align	2
 270              	.L23:
 271 002c 00380140 		.word	1073821696
 272              		.cfi_endproc
 273              	.LFE64:
 274              		.size	_write, .-_write
 275              		.section	.bss.s_pHeapEnd.8188,"aw",%nobits
 276              		.align	2
 277              		.set	.LANCHOR0,. + 0
 278              		.type	s_pHeapEnd.8188, %object
 279              		.size	s_pHeapEnd.8188, 4
 280              	s_pHeapEnd.8188:
 281 0000 00000000 		.space	4
 282              		.text
 283              	.Letext0:
 284              		.file 2 "c:\\yagarto\\arm-none-eabi\\include\\machine\\_default_types.h"
 285              		.file 3 "c:\\yagarto\\arm-none-eabi\\include\\sys\\_types.h"
 286              		.file 4 "c:\\yagarto\\arm-none-eabi\\include\\sys\\types.h"
 287              		.file 5 "c:\\yagarto\\arm-none-eabi\\include\\sys\\stat.h"
 288              		.file 6 "c:\\yagarto\\arm-none-eabi\\include\\stdint.h"
 289              		.file 7 "c:/yagarto/cmsis_cm3_v361/_cmsis/stm32f10x.h"
 290              		.file 8 "c:/yagarto/cmsis_cm3_v361/_cmsis/core_cm3.h"
 291              		.file 9 "c:/yagarto/cmsis_cm3_v361/_f10x_stdperiph_drv/inc/stm32f10x_usart.h"
 292              		.file 10 "c:\\yagarto\\arm-none-eabi\\include\\stdlib.h"