ARM GAS  C:\Users\tom\AppData\Local\Temp\cc1RnbFl.s 			page 1


   1              		.syntax unified
   2              		.cpu cortex-m3
   3              		.fpu softvfp
   4              		.eabi_attribute 20, 1
   5              		.eabi_attribute 21, 1
   6              		.eabi_attribute 23, 3
   7              		.eabi_attribute 24, 1
   8              		.eabi_attribute 25, 1
   9              		.eabi_attribute 26, 1
  10              		.eabi_attribute 30, 4
  11              		.eabi_attribute 34, 1
  12              		.eabi_attribute 18, 4
  13              		.thumb
  14              		.file	"syscall.c"
  15              		.text
  16              	.Ltext0:
  17              		.cfi_sections	.debug_frame
  18              		.section	.text._sbrk,"ax",%progbits
  19              		.align	1
  20              		.global	_sbrk
  21              		.thumb
  22              		.thumb_func
  23              		.type	_sbrk, %function
  24              	_sbrk:
  25              	.LFB56:
  26              		.file 1 "_libs/syscall.c"
   1:_libs/syscall.c **** #include <stdio.h>
   2:_libs/syscall.c **** #include <stdarg.h>
   3:_libs/syscall.c **** #include <stdarg.h>
   4:_libs/syscall.c **** #include <stdlib.h> 
   5:_libs/syscall.c **** #include <sys/types.h>
   6:_libs/syscall.c **** #include <sys/stat.h>
   7:_libs/syscall.c **** #include "misc.h"
   8:_libs/syscall.c **** #include "usart_f1.h"
   9:_libs/syscall.c **** 
  10:_libs/syscall.c **** #undef errno
  11:_libs/syscall.c **** extern int errno;
  12:_libs/syscall.c **** extern int _end;
  13:_libs/syscall.c **** 
  14:_libs/syscall.c **** caddr_t _sbrk(int incr)
  15:_libs/syscall.c **** {
  27              		.loc 1 15 0
  28              		.cfi_startproc
  29              		@ args = 0, pretend = 0, frame = 0
  30              		@ frame_needed = 0, uses_anonymous_args = 0
  31              		@ link register save eliminated.
  32              	.LVL0:
  16:_libs/syscall.c ****     register unsigned char *pStack asm("sp");
  17:_libs/syscall.c ****     static unsigned char *s_pHeapEnd; 
  18:_libs/syscall.c **** 
  19:_libs/syscall.c ****     if (!s_pHeapEnd) 
  33              		.loc 1 19 0
  34 0000 074B     		ldr	r3, .L6
  35 0002 1A68     		ldr	r2, [r3]
  36 0004 0AB9     		cbnz	r2, .L2
  20:_libs/syscall.c ****         s_pHeapEnd = (unsigned char *)&_end; 
  37              		.loc 1 20 0
ARM GAS  C:\Users\tom\AppData\Local\Temp\cc1RnbFl.s 			page 2


  38 0006 074A     		ldr	r2, .L6+4
  39 0008 1A60     		str	r2, [r3]
  40              	.L2:
  21:_libs/syscall.c ****     if (s_pHeapEnd + incr > pStack) {    // conflict, failed to alloc
  41              		.loc 1 21 0
  42 000a 6A46     		mov	r2, sp
  43 000c 1B68     		ldr	r3, [r3]
  44 000e 1844     		add	r0, r0, r3
  45              	.LVL1:
  46 0010 9042     		cmp	r0, r2
  47              	.LVL2:
  22:_libs/syscall.c ****         return (caddr_t) - 1; 
  23:_libs/syscall.c ****     }
  24:_libs/syscall.c ****     unsigned char *pOldHeapEnd = s_pHeapEnd; 
  25:_libs/syscall.c ****     s_pHeapEnd += incr; 
  48              		.loc 1 25 0
  49 0012 9DBF     		ittte	ls
  50 0014 024A     		ldrls	r2, .L6
  51 0016 1060     		strls	r0, [r2]
  26:_libs/syscall.c ****     return (caddr_t)pOldHeapEnd; 
  52              		.loc 1 26 0
  53 0018 1846     		movls	r0, r3
  22:_libs/syscall.c ****         return (caddr_t) - 1; 
  54              		.loc 1 22 0
  55 001a 4FF0FF30 		movhi	r0, #-1
  27:_libs/syscall.c **** }
  56              		.loc 1 27 0
  57 001e 7047     		bx	lr
  58              	.L7:
  59              		.align	2
  60              	.L6:
  61 0020 00000000 		.word	.LANCHOR0
  62 0024 00000000 		.word	_end
  63              		.cfi_endproc
  64              	.LFE56:
  65              		.size	_sbrk, .-_sbrk
  66              		.section	.text.link,"ax",%progbits
  67              		.align	1
  68              		.global	link
  69              		.thumb
  70              		.thumb_func
  71              		.type	link, %function
  72              	link:
  73              	.LFB57:
  28:_libs/syscall.c **** 
  29:_libs/syscall.c **** int link(char *old, char *new)
  30:_libs/syscall.c **** {
  74              		.loc 1 30 0
  75              		.cfi_startproc
  76              		@ args = 0, pretend = 0, frame = 0
  77              		@ frame_needed = 0, uses_anonymous_args = 0
  78              		@ link register save eliminated.
  79              	.LVL3:
  31:_libs/syscall.c ****     return -1;
  32:_libs/syscall.c **** }
  80              		.loc 1 32 0
  81 0000 4FF0FF30 		mov	r0, #-1
ARM GAS  C:\Users\tom\AppData\Local\Temp\cc1RnbFl.s 			page 3


  82              	.LVL4:
  83 0004 7047     		bx	lr
  84              		.cfi_endproc
  85              	.LFE57:
  86              		.size	link, .-link
  87              		.section	.text._close,"ax",%progbits
  88              		.align	1
  89              		.global	_close
  90              		.thumb
  91              		.thumb_func
  92              		.type	_close, %function
  93              	_close:
  94              	.LFB58:
  33:_libs/syscall.c **** 
  34:_libs/syscall.c **** int _close(int file)
  35:_libs/syscall.c **** {
  95              		.loc 1 35 0
  96              		.cfi_startproc
  97              		@ args = 0, pretend = 0, frame = 0
  98              		@ frame_needed = 0, uses_anonymous_args = 0
  99              		@ link register save eliminated.
 100              	.LVL5:
  36:_libs/syscall.c ****     return -1;
  37:_libs/syscall.c **** }
 101              		.loc 1 37 0
 102 0000 4FF0FF30 		mov	r0, #-1
 103              	.LVL6:
 104 0004 7047     		bx	lr
 105              		.cfi_endproc
 106              	.LFE58:
 107              		.size	_close, .-_close
 108              		.section	.text._fstat,"ax",%progbits
 109              		.align	1
 110              		.global	_fstat
 111              		.thumb
 112              		.thumb_func
 113              		.type	_fstat, %function
 114              	_fstat:
 115              	.LFB59:
  38:_libs/syscall.c **** 
  39:_libs/syscall.c **** int _fstat(int file, struct stat *st)
  40:_libs/syscall.c **** {
 116              		.loc 1 40 0
 117              		.cfi_startproc
 118              		@ args = 0, pretend = 0, frame = 0
 119              		@ frame_needed = 0, uses_anonymous_args = 0
 120              		@ link register save eliminated.
 121              	.LVL7:
  41:_libs/syscall.c ****     st->st_mode = S_IFCHR;
 122              		.loc 1 41 0
 123 0000 4FF40053 		mov	r3, #8192
 124 0004 4B60     		str	r3, [r1, #4]
  42:_libs/syscall.c ****     return 0;
  43:_libs/syscall.c **** }
 125              		.loc 1 43 0
 126 0006 0020     		movs	r0, #0
 127              	.LVL8:
ARM GAS  C:\Users\tom\AppData\Local\Temp\cc1RnbFl.s 			page 4


 128 0008 7047     		bx	lr
 129              		.cfi_endproc
 130              	.LFE59:
 131              		.size	_fstat, .-_fstat
 132              		.section	.text._isatty,"ax",%progbits
 133              		.align	1
 134              		.global	_isatty
 135              		.thumb
 136              		.thumb_func
 137              		.type	_isatty, %function
 138              	_isatty:
 139              	.LFB60:
  44:_libs/syscall.c **** 
  45:_libs/syscall.c **** int _isatty(int file)
  46:_libs/syscall.c **** {
 140              		.loc 1 46 0
 141              		.cfi_startproc
 142              		@ args = 0, pretend = 0, frame = 0
 143              		@ frame_needed = 0, uses_anonymous_args = 0
 144              		@ link register save eliminated.
 145              	.LVL9:
  47:_libs/syscall.c ****     return 1;
  48:_libs/syscall.c **** }
 146              		.loc 1 48 0
 147 0000 0120     		movs	r0, #1
 148              	.LVL10:
 149 0002 7047     		bx	lr
 150              		.cfi_endproc
 151              	.LFE60:
 152              		.size	_isatty, .-_isatty
 153              		.section	.text._lseek,"ax",%progbits
 154              		.align	1
 155              		.global	_lseek
 156              		.thumb
 157              		.thumb_func
 158              		.type	_lseek, %function
 159              	_lseek:
 160              	.LFB61:
  49:_libs/syscall.c **** 
  50:_libs/syscall.c **** int _lseek(int file, int ptr, int dir)
  51:_libs/syscall.c **** {
 161              		.loc 1 51 0
 162              		.cfi_startproc
 163              		@ args = 0, pretend = 0, frame = 0
 164              		@ frame_needed = 0, uses_anonymous_args = 0
 165              		@ link register save eliminated.
 166              	.LVL11:
  52:_libs/syscall.c ****     return 0;
  53:_libs/syscall.c **** }
 167              		.loc 1 53 0
 168 0000 0020     		movs	r0, #0
 169              	.LVL12:
 170 0002 7047     		bx	lr
 171              		.cfi_endproc
 172              	.LFE61:
 173              		.size	_lseek, .-_lseek
 174              		.section	.text._read,"ax",%progbits
ARM GAS  C:\Users\tom\AppData\Local\Temp\cc1RnbFl.s 			page 5


 175              		.align	1
 176              		.global	_read
 177              		.thumb
 178              		.thumb_func
 179              		.type	_read, %function
 180              	_read:
 181              	.LFB62:
  54:_libs/syscall.c **** 
  55:_libs/syscall.c **** int _read(int file, char *ptr, int len)
  56:_libs/syscall.c **** {
 182              		.loc 1 56 0
 183              		.cfi_startproc
 184              		@ args = 0, pretend = 0, frame = 0
 185              		@ frame_needed = 0, uses_anonymous_args = 0
 186              		@ link register save eliminated.
 187              	.LVL13:
  57:_libs/syscall.c ****     return 0;
  58:_libs/syscall.c **** }
 188              		.loc 1 58 0
 189 0000 0020     		movs	r0, #0
 190              	.LVL14:
 191 0002 7047     		bx	lr
 192              		.cfi_endproc
 193              	.LFE62:
 194              		.size	_read, .-_read
 195              		.section	.text.abort,"ax",%progbits
 196              		.align	1
 197              		.global	abort
 198              		.thumb
 199              		.thumb_func
 200              		.type	abort, %function
 201              	abort:
 202              	.LFB63:
  59:_libs/syscall.c **** 
  60:_libs/syscall.c **** void abort(void)
  61:_libs/syscall.c **** {
 203              		.loc 1 61 0
 204              		.cfi_startproc
 205              		@ Volatile: function does not return.
 206              		@ args = 0, pretend = 0, frame = 0
 207              		@ frame_needed = 0, uses_anonymous_args = 0
 208              		@ link register save eliminated.
 209              	.L15:
  62:_libs/syscall.c ****     while (1) ; /* Abort called */
 210              		.loc 1 62 0 discriminator 1
 211 0000 FEE7     		b	.L15
 212              		.cfi_endproc
 213              	.LFE63:
 214              		.size	abort, .-abort
 215              		.section	.text._write,"ax",%progbits
 216              		.align	1
 217              		.global	_write
 218              		.thumb
 219              		.thumb_func
 220              		.type	_write, %function
 221              	_write:
 222              	.LFB64:
ARM GAS  C:\Users\tom\AppData\Local\Temp\cc1RnbFl.s 			page 6


  63:_libs/syscall.c **** }
  64:_libs/syscall.c **** 
  65:_libs/syscall.c **** int _write(int file, char *ptr, int len)
  66:_libs/syscall.c **** {
 223              		.loc 1 66 0
 224              		.cfi_startproc
 225              		@ args = 0, pretend = 0, frame = 0
 226              		@ frame_needed = 0, uses_anonymous_args = 0
 227              	.LVL15:
 228 0000 70B5     		push	{r4, r5, r6, lr}
 229              	.LCFI0:
 230              		.cfi_def_cfa_offset 16
 231              		.cfi_offset 4, -16
 232              		.cfi_offset 5, -12
 233              		.cfi_offset 6, -8
 234              		.cfi_offset 14, -4
 235              		.loc 1 66 0
 236 0002 0E46     		mov	r6, r1
 237 0004 1546     		mov	r5, r2
  67:_libs/syscall.c ****     unsigned short todo;
  68:_libs/syscall.c ****     for (todo = 0; todo < len; todo++) {
 238              		.loc 1 68 0
 239 0006 0C46     		mov	r4, r1
 240              	.LVL16:
 241              	.L17:
 242 0008 A31B     		subs	r3, r4, r6
 243              		.loc 1 68 0 is_stmt 0 discriminator 1
 244 000a 9BB2     		uxth	r3, r3
 245 000c AB42     		cmp	r3, r5
 246 000e 0BDA     		bge	.L22
  69:_libs/syscall.c ****         USART_SendData(USART1, *ptr++);
 247              		.loc 1 69 0 is_stmt 1
 248 0010 0648     		ldr	r0, .L23
 249 0012 14F8011B 		ldrb	r1, [r4], #1	@ zero_extendqisi2
 250              	.LVL17:
 251 0016 FFF7FEFF 		bl	USART_SendData
 252              	.LVL18:
 253              	.L18:
  70:_libs/syscall.c ****         while(USART_GetFlagStatus(USART1, USART_FLAG_TC) == RESET); 
 254              		.loc 1 70 0 discriminator 1
 255 001a 0448     		ldr	r0, .L23
 256 001c 4021     		movs	r1, #64
 257 001e FFF7FEFF 		bl	USART_GetFlagStatus
 258              	.LVL19:
 259 0022 0028     		cmp	r0, #0
 260 0024 F9D0     		beq	.L18
 261 0026 EFE7     		b	.L17
 262              	.LVL20:
 263              	.L22:
  71:_libs/syscall.c ****     } 
  72:_libs/syscall.c ****     return len;
  73:_libs/syscall.c **** }
 264              		.loc 1 73 0
 265 0028 2846     		mov	r0, r5
 266 002a 70BD     		pop	{r4, r5, r6, pc}
 267              	.LVL21:
 268              	.L24:
ARM GAS  C:\Users\tom\AppData\Local\Temp\cc1RnbFl.s 			page 7


 269              		.align	2
 270              	.L23:
 271 002c 00380140 		.word	1073821696
 272              		.cfi_endproc
 273              	.LFE64:
 274              		.size	_write, .-_write
 275              		.section	.bss.s_pHeapEnd.8188,"aw",%nobits
 276              		.align	2
 277              		.set	.LANCHOR0,. + 0
 278              		.type	s_pHeapEnd.8188, %object
 279              		.size	s_pHeapEnd.8188, 4
 280              	s_pHeapEnd.8188:
 281 0000 00000000 		.space	4
 282              		.text
 283              	.Letext0:
 284              		.file 2 "c:\\yagarto\\arm-none-eabi\\include\\machine\\_default_types.h"
 285              		.file 3 "c:\\yagarto\\arm-none-eabi\\include\\sys\\_types.h"
 286              		.file 4 "c:\\yagarto\\arm-none-eabi\\include\\sys\\types.h"
 287              		.file 5 "c:\\yagarto\\arm-none-eabi\\include\\sys\\stat.h"
 288              		.file 6 "c:\\yagarto\\arm-none-eabi\\include\\stdint.h"
 289              		.file 7 "c:/yagarto/cmsis_cm3_v361/_cmsis/stm32f10x.h"
 290              		.file 8 "c:/yagarto/cmsis_cm3_v361/_cmsis/core_cm3.h"
 291              		.file 9 "c:/yagarto/cmsis_cm3_v361/_f10x_stdperiph_drv/inc/stm32f10x_usart.h"
 292              		.file 10 "c:\\yagarto\\arm-none-eabi\\include\\stdlib.h"
 293              		.section	.debug_info,"",%progbits
 294              	.Ldebug_info0:
 295 0000 22060000 		.4byte	0x622
 296 0004 0200     		.2byte	0x2
 297 0006 00000000 		.4byte	.Ldebug_abbrev0
 298 000a 04       		.byte	0x4
 299 000b 01       		.uleb128 0x1
 300 000c EF010000 		.4byte	.LASF76
 301 0010 01       		.byte	0x1
 302 0011 73010000 		.4byte	.LASF77
 303 0015 70000000 		.4byte	.LASF78
 304 0019 00000000 		.4byte	.Ldebug_ranges0+0
 305 001d 00000000 		.4byte	0
 306 0021 00000000 		.4byte	0
 307 0025 00000000 		.4byte	.Ldebug_line0
 308 0029 02       		.uleb128 0x2
 309 002a 01       		.byte	0x1
 310 002b 06       		.byte	0x6
 311 002c D3000000 		.4byte	.LASF0
 312 0030 02       		.uleb128 0x2
 313 0031 01       		.byte	0x1
 314 0032 08       		.byte	0x8
 315 0033 41010000 		.4byte	.LASF1
 316 0037 02       		.uleb128 0x2
 317 0038 02       		.byte	0x2
 318 0039 05       		.byte	0x5
 319 003a B0000000 		.4byte	.LASF2
 320 003e 03       		.uleb128 0x3
 321 003f 50000000 		.4byte	.LASF4
 322 0043 02       		.byte	0x2
 323 0044 2B       		.byte	0x2b
 324 0045 49000000 		.4byte	0x49
 325 0049 02       		.uleb128 0x2
ARM GAS  C:\Users\tom\AppData\Local\Temp\cc1RnbFl.s 			page 8


 326 004a 02       		.byte	0x2
 327 004b 07       		.byte	0x7
 328 004c BD010000 		.4byte	.LASF3
 329 0050 03       		.uleb128 0x3
 330 0051 4C030000 		.4byte	.LASF5
 331 0055 02       		.byte	0x2
 332 0056 3F       		.byte	0x3f
 333 0057 5B000000 		.4byte	0x5b
 334 005b 02       		.uleb128 0x2
 335 005c 04       		.byte	0x4
 336 005d 05       		.byte	0x5
 337 005e 0B010000 		.4byte	.LASF6
 338 0062 03       		.uleb128 0x3
 339 0063 25030000 		.4byte	.LASF7
 340 0067 02       		.byte	0x2
 341 0068 41       		.byte	0x41
 342 0069 6D000000 		.4byte	0x6d
 343 006d 02       		.uleb128 0x2
 344 006e 04       		.byte	0x4
 345 006f 07       		.byte	0x7
 346 0070 AB010000 		.4byte	.LASF8
 347 0074 02       		.uleb128 0x2
 348 0075 08       		.byte	0x8
 349 0076 05       		.byte	0x5
 350 0077 89030000 		.4byte	.LASF9
 351 007b 02       		.uleb128 0x2
 352 007c 08       		.byte	0x8
 353 007d 07       		.byte	0x7
 354 007e 39000000 		.4byte	.LASF10
 355 0082 04       		.uleb128 0x4
 356 0083 04       		.byte	0x4
 357 0084 05       		.byte	0x5
 358 0085 696E7400 		.ascii	"int\000"
 359 0089 02       		.uleb128 0x2
 360 008a 04       		.byte	0x4
 361 008b 07       		.byte	0x7
 362 008c 8C010000 		.4byte	.LASF11
 363 0090 03       		.uleb128 0x3
 364 0091 1A000000 		.4byte	.LASF12
 365 0095 03       		.byte	0x3
 366 0096 10       		.byte	0x10
 367 0097 5B000000 		.4byte	0x5b
 368 009b 03       		.uleb128 0x3
 369 009c 44030000 		.4byte	.LASF13
 370 00a0 03       		.byte	0x3
 371 00a1 14       		.byte	0x14
 372 00a2 37000000 		.4byte	0x37
 373 00a6 03       		.uleb128 0x3
 374 00a7 5C030000 		.4byte	.LASF14
 375 00ab 03       		.byte	0x3
 376 00ac 18       		.byte	0x18
 377 00ad 49000000 		.4byte	0x49
 378 00b1 03       		.uleb128 0x3
 379 00b2 97030000 		.4byte	.LASF15
 380 00b6 03       		.byte	0x3
 381 00b7 1B       		.byte	0x1b
 382 00b8 49000000 		.4byte	0x49
ARM GAS  C:\Users\tom\AppData\Local\Temp\cc1RnbFl.s 			page 9


 383 00bc 02       		.uleb128 0x2
 384 00bd 04       		.byte	0x4
 385 00be 07       		.byte	0x7
 386 00bf 30000000 		.4byte	.LASF16
 387 00c3 05       		.uleb128 0x5
 388 00c4 04       		.byte	0x4
 389 00c5 30000000 		.4byte	0x30
 390 00c9 05       		.uleb128 0x5
 391 00ca 04       		.byte	0x4
 392 00cb CF000000 		.4byte	0xcf
 393 00cf 02       		.uleb128 0x2
 394 00d0 01       		.byte	0x1
 395 00d1 08       		.byte	0x8
 396 00d2 EA010000 		.4byte	.LASF17
 397 00d6 03       		.uleb128 0x3
 398 00d7 54010000 		.4byte	.LASF18
 399 00db 04       		.byte	0x4
 400 00dc 7A       		.byte	0x7a
 401 00dd 5B000000 		.4byte	0x5b
 402 00e1 03       		.uleb128 0x3
 403 00e2 9E020000 		.4byte	.LASF19
 404 00e6 04       		.byte	0x4
 405 00e7 92       		.byte	0x92
 406 00e8 C9000000 		.4byte	0xc9
 407 00ec 03       		.uleb128 0x3
 408 00ed 00010000 		.4byte	.LASF20
 409 00f1 04       		.byte	0x4
 410 00f2 9B       		.byte	0x9b
 411 00f3 49000000 		.4byte	0x49
 412 00f7 03       		.uleb128 0x3
 413 00f8 1D010000 		.4byte	.LASF21
 414 00fc 04       		.byte	0x4
 415 00fd B8       		.byte	0xb8
 416 00fe 90000000 		.4byte	0x90
 417 0102 03       		.uleb128 0x3
 418 0103 31010000 		.4byte	.LASF22
 419 0107 04       		.byte	0x4
 420 0108 B9       		.byte	0xb9
 421 0109 9B000000 		.4byte	0x9b
 422 010d 03       		.uleb128 0x3
 423 010e 0D000000 		.4byte	.LASF23
 424 0112 04       		.byte	0x4
 425 0113 BA       		.byte	0xba
 426 0114 A6000000 		.4byte	0xa6
 427 0118 03       		.uleb128 0x3
 428 0119 2B010000 		.4byte	.LASF24
 429 011d 04       		.byte	0x4
 430 011e BB       		.byte	0xbb
 431 011f B1000000 		.4byte	0xb1
 432 0123 03       		.uleb128 0x3
 433 0124 13000000 		.4byte	.LASF25
 434 0128 04       		.byte	0x4
 435 0129 D9       		.byte	0xd9
 436 012a 89000000 		.4byte	0x89
 437 012e 03       		.uleb128 0x3
 438 012f B0020000 		.4byte	.LASF26
 439 0133 04       		.byte	0x4
ARM GAS  C:\Users\tom\AppData\Local\Temp\cc1RnbFl.s 			page 10


 440 0134 DE       		.byte	0xde
 441 0135 49000000 		.4byte	0x49
 442 0139 06       		.uleb128 0x6
 443 013a 64030000 		.4byte	.LASF79
 444 013e 3C       		.byte	0x3c
 445 013f 05       		.byte	0x5
 446 0140 1A       		.byte	0x1a
 447 0141 34020000 		.4byte	0x234
 448 0145 07       		.uleb128 0x7
 449 0146 62000000 		.4byte	.LASF27
 450 014a 05       		.byte	0x5
 451 014b 1C       		.byte	0x1c
 452 014c 02010000 		.4byte	0x102
 453 0150 02       		.byte	0x2
 454 0151 23       		.byte	0x23
 455 0152 00       		.uleb128 0
 456 0153 07       		.uleb128 0x7
 457 0154 6C010000 		.4byte	.LASF28
 458 0158 05       		.byte	0x5
 459 0159 1D       		.byte	0x1d
 460 015a EC000000 		.4byte	0xec
 461 015e 02       		.byte	0x2
 462 015f 23       		.byte	0x23
 463 0160 02       		.uleb128 0x2
 464 0161 07       		.uleb128 0x7
 465 0162 69030000 		.4byte	.LASF29
 466 0166 05       		.byte	0x5
 467 0167 1E       		.byte	0x1e
 468 0168 23010000 		.4byte	0x123
 469 016c 02       		.byte	0x2
 470 016d 23       		.byte	0x23
 471 016e 04       		.uleb128 0x4
 472 016f 07       		.uleb128 0x7
 473 0170 99010000 		.4byte	.LASF30
 474 0174 05       		.byte	0x5
 475 0175 1F       		.byte	0x1f
 476 0176 2E010000 		.4byte	0x12e
 477 017a 02       		.byte	0x2
 478 017b 23       		.byte	0x23
 479 017c 08       		.uleb128 0x8
 480 017d 07       		.uleb128 0x7
 481 017e BD020000 		.4byte	.LASF31
 482 0182 05       		.byte	0x5
 483 0183 20       		.byte	0x20
 484 0184 0D010000 		.4byte	0x10d
 485 0188 02       		.byte	0x2
 486 0189 23       		.byte	0x23
 487 018a 0A       		.uleb128 0xa
 488 018b 07       		.uleb128 0x7
 489 018c F9000000 		.4byte	.LASF32
 490 0190 05       		.byte	0x5
 491 0191 21       		.byte	0x21
 492 0192 18010000 		.4byte	0x118
 493 0196 02       		.byte	0x2
 494 0197 23       		.byte	0x23
 495 0198 0C       		.uleb128 0xc
 496 0199 07       		.uleb128 0x7
ARM GAS  C:\Users\tom\AppData\Local\Temp\cc1RnbFl.s 			page 11


 497 019a 00000000 		.4byte	.LASF33
 498 019e 05       		.byte	0x5
 499 019f 22       		.byte	0x22
 500 01a0 02010000 		.4byte	0x102
 501 01a4 02       		.byte	0x2
 502 01a5 23       		.byte	0x23
 503 01a6 0E       		.uleb128 0xe
 504 01a7 07       		.uleb128 0x7
 505 01a8 23010000 		.4byte	.LASF34
 506 01ac 05       		.byte	0x5
 507 01ad 23       		.byte	0x23
 508 01ae F7000000 		.4byte	0xf7
 509 01b2 02       		.byte	0x2
 510 01b3 23       		.byte	0x23
 511 01b4 10       		.uleb128 0x10
 512 01b5 07       		.uleb128 0x7
 513 01b6 14010000 		.4byte	.LASF35
 514 01ba 05       		.byte	0x5
 515 01bb 31       		.byte	0x31
 516 01bc D6000000 		.4byte	0xd6
 517 01c0 02       		.byte	0x2
 518 01c1 23       		.byte	0x23
 519 01c2 14       		.uleb128 0x14
 520 01c3 07       		.uleb128 0x7
 521 01c4 F6020000 		.4byte	.LASF36
 522 01c8 05       		.byte	0x5
 523 01c9 32       		.byte	0x32
 524 01ca 5B000000 		.4byte	0x5b
 525 01ce 02       		.byte	0x2
 526 01cf 23       		.byte	0x23
 527 01d0 18       		.uleb128 0x18
 528 01d1 07       		.uleb128 0x7
 529 01d2 D0010000 		.4byte	.LASF37
 530 01d6 05       		.byte	0x5
 531 01d7 33       		.byte	0x33
 532 01d8 D6000000 		.4byte	0xd6
 533 01dc 02       		.byte	0x2
 534 01dd 23       		.byte	0x23
 535 01de 1C       		.uleb128 0x1c
 536 01df 07       		.uleb128 0x7
 537 01e0 D9010000 		.4byte	.LASF38
 538 01e4 05       		.byte	0x5
 539 01e5 34       		.byte	0x34
 540 01e6 5B000000 		.4byte	0x5b
 541 01ea 02       		.byte	0x2
 542 01eb 23       		.byte	0x23
 543 01ec 20       		.uleb128 0x20
 544 01ed 07       		.uleb128 0x7
 545 01ee 27000000 		.4byte	.LASF39
 546 01f2 05       		.byte	0x5
 547 01f3 35       		.byte	0x35
 548 01f4 D6000000 		.4byte	0xd6
 549 01f8 02       		.byte	0x2
 550 01f9 23       		.byte	0x23
 551 01fa 24       		.uleb128 0x24
 552 01fb 07       		.uleb128 0x7
 553 01fc 0A030000 		.4byte	.LASF40
ARM GAS  C:\Users\tom\AppData\Local\Temp\cc1RnbFl.s 			page 12


 554 0200 05       		.byte	0x5
 555 0201 36       		.byte	0x36
 556 0202 5B000000 		.4byte	0x5b
 557 0206 02       		.byte	0x2
 558 0207 23       		.byte	0x23
 559 0208 28       		.uleb128 0x28
 560 0209 07       		.uleb128 0x7
 561 020a E6000000 		.4byte	.LASF41
 562 020e 05       		.byte	0x5
 563 020f 37       		.byte	0x37
 564 0210 5B000000 		.4byte	0x5b
 565 0214 02       		.byte	0x2
 566 0215 23       		.byte	0x23
 567 0216 2C       		.uleb128 0x2c
 568 0217 07       		.uleb128 0x7
 569 0218 A6020000 		.4byte	.LASF42
 570 021c 05       		.byte	0x5
 571 021d 38       		.byte	0x38
 572 021e 5B000000 		.4byte	0x5b
 573 0222 02       		.byte	0x2
 574 0223 23       		.byte	0x23
 575 0224 30       		.uleb128 0x30
 576 0225 07       		.uleb128 0x7
 577 0226 14030000 		.4byte	.LASF43
 578 022a 05       		.byte	0x5
 579 022b 39       		.byte	0x39
 580 022c 34020000 		.4byte	0x234
 581 0230 02       		.byte	0x2
 582 0231 23       		.byte	0x23
 583 0232 34       		.uleb128 0x34
 584 0233 00       		.byte	0
 585 0234 08       		.uleb128 0x8
 586 0235 5B000000 		.4byte	0x5b
 587 0239 44020000 		.4byte	0x244
 588 023d 09       		.uleb128 0x9
 589 023e BC000000 		.4byte	0xbc
 590 0242 01       		.byte	0x1
 591 0243 00       		.byte	0
 592 0244 03       		.uleb128 0x3
 593 0245 A2010000 		.4byte	.LASF44
 594 0249 06       		.byte	0x6
 595 024a 21       		.byte	0x21
 596 024b 3E000000 		.4byte	0x3e
 597 024f 03       		.uleb128 0x3
 598 0250 90020000 		.4byte	.LASF45
 599 0254 06       		.byte	0x6
 600 0255 2C       		.byte	0x2c
 601 0256 50000000 		.4byte	0x50
 602 025a 03       		.uleb128 0x3
 603 025b 83010000 		.4byte	.LASF46
 604 025f 06       		.byte	0x6
 605 0260 2D       		.byte	0x2d
 606 0261 62000000 		.4byte	0x62
 607 0265 0A       		.uleb128 0xa
 608 0266 44020000 		.4byte	0x244
 609 026a 0A       		.uleb128 0xa
 610 026b 4F020000 		.4byte	0x24f
ARM GAS  C:\Users\tom\AppData\Local\Temp\cc1RnbFl.s 			page 13


 611 026f 0B       		.uleb128 0xb
 612 0270 01       		.byte	0x1
 613 0271 07       		.byte	0x7
 614 0272 1102     		.2byte	0x211
 615 0274 85020000 		.4byte	0x285
 616 0278 0C       		.uleb128 0xc
 617 0279 56030000 		.4byte	.LASF47
 618 027d 00       		.sleb128 0
 619 027e 0D       		.uleb128 0xd
 620 027f 53455400 		.ascii	"SET\000"
 621 0283 01       		.sleb128 1
 622 0284 00       		.byte	0
 623 0285 0E       		.uleb128 0xe
 624 0286 7E030000 		.4byte	.LASF48
 625 028a 07       		.byte	0x7
 626 028b 1102     		.2byte	0x211
 627 028d 6F020000 		.4byte	0x26f
 628 0291 0F       		.uleb128 0xf
 629 0292 1C       		.byte	0x1c
 630 0293 07       		.byte	0x7
 631 0294 DC04     		.2byte	0x4dc
 632 0296 6B030000 		.4byte	0x36b
 633 029a 10       		.uleb128 0x10
 634 029b 535200   		.ascii	"SR\000"
 635 029e 07       		.byte	0x7
 636 029f DE04     		.2byte	0x4de
 637 02a1 65020000 		.4byte	0x265
 638 02a5 02       		.byte	0x2
 639 02a6 23       		.byte	0x23
 640 02a7 00       		.uleb128 0
 641 02a8 11       		.uleb128 0x11
 642 02a9 C4020000 		.4byte	.LASF49
 643 02ad 07       		.byte	0x7
 644 02ae DF04     		.2byte	0x4df
 645 02b0 44020000 		.4byte	0x244
 646 02b4 02       		.byte	0x2
 647 02b5 23       		.byte	0x23
 648 02b6 02       		.uleb128 0x2
 649 02b7 10       		.uleb128 0x10
 650 02b8 445200   		.ascii	"DR\000"
 651 02bb 07       		.byte	0x7
 652 02bc E004     		.2byte	0x4e0
 653 02be 65020000 		.4byte	0x265
 654 02c2 02       		.byte	0x2
 655 02c3 23       		.byte	0x23
 656 02c4 04       		.uleb128 0x4
 657 02c5 11       		.uleb128 0x11
 658 02c6 CE020000 		.4byte	.LASF50
 659 02ca 07       		.byte	0x7
 660 02cb E104     		.2byte	0x4e1
 661 02cd 44020000 		.4byte	0x244
 662 02d1 02       		.byte	0x2
 663 02d2 23       		.byte	0x23
 664 02d3 06       		.uleb128 0x6
 665 02d4 10       		.uleb128 0x10
 666 02d5 42525200 		.ascii	"BRR\000"
 667 02d9 07       		.byte	0x7
ARM GAS  C:\Users\tom\AppData\Local\Temp\cc1RnbFl.s 			page 14


 668 02da E204     		.2byte	0x4e2
 669 02dc 65020000 		.4byte	0x265
 670 02e0 02       		.byte	0x2
 671 02e1 23       		.byte	0x23
 672 02e2 08       		.uleb128 0x8
 673 02e3 11       		.uleb128 0x11
 674 02e4 D8020000 		.4byte	.LASF51
 675 02e8 07       		.byte	0x7
 676 02e9 E304     		.2byte	0x4e3
 677 02eb 44020000 		.4byte	0x244
 678 02ef 02       		.byte	0x2
 679 02f0 23       		.byte	0x23
 680 02f1 0A       		.uleb128 0xa
 681 02f2 10       		.uleb128 0x10
 682 02f3 43523100 		.ascii	"CR1\000"
 683 02f7 07       		.byte	0x7
 684 02f8 E404     		.2byte	0x4e4
 685 02fa 65020000 		.4byte	0x265
 686 02fe 02       		.byte	0x2
 687 02ff 23       		.byte	0x23
 688 0300 0C       		.uleb128 0xc
 689 0301 11       		.uleb128 0x11
 690 0302 E2020000 		.4byte	.LASF52
 691 0306 07       		.byte	0x7
 692 0307 E504     		.2byte	0x4e5
 693 0309 44020000 		.4byte	0x244
 694 030d 02       		.byte	0x2
 695 030e 23       		.byte	0x23
 696 030f 0E       		.uleb128 0xe
 697 0310 10       		.uleb128 0x10
 698 0311 43523200 		.ascii	"CR2\000"
 699 0315 07       		.byte	0x7
 700 0316 E604     		.2byte	0x4e6
 701 0318 65020000 		.4byte	0x265
 702 031c 02       		.byte	0x2
 703 031d 23       		.byte	0x23
 704 031e 10       		.uleb128 0x10
 705 031f 11       		.uleb128 0x11
 706 0320 EC020000 		.4byte	.LASF53
 707 0324 07       		.byte	0x7
 708 0325 E704     		.2byte	0x4e7
 709 0327 44020000 		.4byte	0x244
 710 032b 02       		.byte	0x2
 711 032c 23       		.byte	0x23
 712 032d 12       		.uleb128 0x12
 713 032e 10       		.uleb128 0x10
 714 032f 43523300 		.ascii	"CR3\000"
 715 0333 07       		.byte	0x7
 716 0334 E804     		.2byte	0x4e8
 717 0336 65020000 		.4byte	0x265
 718 033a 02       		.byte	0x2
 719 033b 23       		.byte	0x23
 720 033c 14       		.uleb128 0x14
 721 033d 11       		.uleb128 0x11
 722 033e C9000000 		.4byte	.LASF54
 723 0342 07       		.byte	0x7
 724 0343 E904     		.2byte	0x4e9
ARM GAS  C:\Users\tom\AppData\Local\Temp\cc1RnbFl.s 			page 15


 725 0345 44020000 		.4byte	0x244
 726 0349 02       		.byte	0x2
 727 034a 23       		.byte	0x23
 728 034b 16       		.uleb128 0x16
 729 034c 11       		.uleb128 0x11
 730 034d 08000000 		.4byte	.LASF55
 731 0351 07       		.byte	0x7
 732 0352 EA04     		.2byte	0x4ea
 733 0354 65020000 		.4byte	0x265
 734 0358 02       		.byte	0x2
 735 0359 23       		.byte	0x23
 736 035a 18       		.uleb128 0x18
 737 035b 11       		.uleb128 0x11
 738 035c 00030000 		.4byte	.LASF56
 739 0360 07       		.byte	0x7
 740 0361 EB04     		.2byte	0x4eb
 741 0363 44020000 		.4byte	0x244
 742 0367 02       		.byte	0x2
 743 0368 23       		.byte	0x23
 744 0369 1A       		.uleb128 0x1a
 745 036a 00       		.byte	0
 746 036b 0E       		.uleb128 0xe
 747 036c A2000000 		.4byte	.LASF57
 748 0370 07       		.byte	0x7
 749 0371 EC04     		.2byte	0x4ec
 750 0373 91020000 		.4byte	0x291
 751 0377 12       		.uleb128 0x12
 752 0378 01       		.byte	0x1
 753 0379 98020000 		.4byte	.LASF61
 754 037d 01       		.byte	0x1
 755 037e 0E       		.byte	0xe
 756 037f 01       		.byte	0x1
 757 0380 E1000000 		.4byte	0xe1
 758 0384 00000000 		.4byte	.LFB56
 759 0388 28000000 		.4byte	.LFE56
 760 038c 02       		.byte	0x2
 761 038d 7D       		.byte	0x7d
 762 038e 00       		.sleb128 0
 763 038f 01       		.byte	0x1
 764 0390 CF030000 		.4byte	0x3cf
 765 0394 13       		.uleb128 0x13
 766 0395 3C010000 		.4byte	.LASF63
 767 0399 01       		.byte	0x1
 768 039a 0E       		.byte	0xe
 769 039b 82000000 		.4byte	0x82
 770 039f 00000000 		.4byte	.LLST0
 771 03a3 14       		.uleb128 0x14
 772 03a4 DF000000 		.4byte	.LASF58
 773 03a8 01       		.byte	0x1
 774 03a9 10       		.byte	0x10
 775 03aa C3000000 		.4byte	0xc3
 776 03ae 01       		.byte	0x1
 777 03af 5D       		.byte	0x5d
 778 03b0 14       		.uleb128 0x14
 779 03b1 61010000 		.4byte	.LASF59
 780 03b5 01       		.byte	0x1
 781 03b6 11       		.byte	0x11
ARM GAS  C:\Users\tom\AppData\Local\Temp\cc1RnbFl.s 			page 16


 782 03b7 C3000000 		.4byte	0xc3
 783 03bb 05       		.byte	0x5
 784 03bc 03       		.byte	0x3
 785 03bd 00000000 		.4byte	s_pHeapEnd.8188
 786 03c1 14       		.uleb128 0x14
 787 03c2 9F030000 		.4byte	.LASF60
 788 03c6 01       		.byte	0x1
 789 03c7 18       		.byte	0x18
 790 03c8 C3000000 		.4byte	0xc3
 791 03cc 01       		.byte	0x1
 792 03cd 53       		.byte	0x53
 793 03ce 00       		.byte	0
 794 03cf 12       		.uleb128 0x12
 795 03d0 01       		.byte	0x1
 796 03d1 37010000 		.4byte	.LASF62
 797 03d5 01       		.byte	0x1
 798 03d6 1D       		.byte	0x1d
 799 03d7 01       		.byte	0x1
 800 03d8 82000000 		.4byte	0x82
 801 03dc 00000000 		.4byte	.LFB57
 802 03e0 06000000 		.4byte	.LFE57
 803 03e4 02       		.byte	0x2
 804 03e5 7D       		.byte	0x7d
 805 03e6 00       		.sleb128 0
 806 03e7 01       		.byte	0x1
 807 03e8 09040000 		.4byte	0x409
 808 03ec 15       		.uleb128 0x15
 809 03ed 6F6C6400 		.ascii	"old\000"
 810 03f1 01       		.byte	0x1
 811 03f2 1D       		.byte	0x1d
 812 03f3 C9000000 		.4byte	0xc9
 813 03f7 21000000 		.4byte	.LLST1
 814 03fb 16       		.uleb128 0x16
 815 03fc 6E657700 		.ascii	"new\000"
 816 0400 01       		.byte	0x1
 817 0401 1D       		.byte	0x1d
 818 0402 C9000000 		.4byte	0xc9
 819 0406 01       		.byte	0x1
 820 0407 51       		.byte	0x51
 821 0408 00       		.byte	0
 822 0409 12       		.uleb128 0x12
 823 040a 01       		.byte	0x1
 824 040b E3010000 		.4byte	.LASF64
 825 040f 01       		.byte	0x1
 826 0410 22       		.byte	0x22
 827 0411 01       		.byte	0x1
 828 0412 82000000 		.4byte	0x82
 829 0416 00000000 		.4byte	.LFB58
 830 041a 06000000 		.4byte	.LFE58
 831 041e 02       		.byte	0x2
 832 041f 7D       		.byte	0x7d
 833 0420 00       		.sleb128 0
 834 0421 01       		.byte	0x1
 835 0422 36040000 		.4byte	0x436
 836 0426 13       		.uleb128 0x13
 837 0427 4F010000 		.4byte	.LASF65
 838 042b 01       		.byte	0x1
ARM GAS  C:\Users\tom\AppData\Local\Temp\cc1RnbFl.s 			page 17


 839 042c 22       		.byte	0x22
 840 042d 82000000 		.4byte	0x82
 841 0431 42000000 		.4byte	.LLST2
 842 0435 00       		.byte	0
 843 0436 12       		.uleb128 0x12
 844 0437 01       		.byte	0x1
 845 0438 69000000 		.4byte	.LASF66
 846 043c 01       		.byte	0x1
 847 043d 27       		.byte	0x27
 848 043e 01       		.byte	0x1
 849 043f 82000000 		.4byte	0x82
 850 0443 00000000 		.4byte	.LFB59
 851 0447 0A000000 		.4byte	.LFE59
 852 044b 02       		.byte	0x2
 853 044c 7D       		.byte	0x7d
 854 044d 00       		.sleb128 0
 855 044e 01       		.byte	0x1
 856 044f 6F040000 		.4byte	0x46f
 857 0453 13       		.uleb128 0x13
 858 0454 4F010000 		.4byte	.LASF65
 859 0458 01       		.byte	0x1
 860 0459 27       		.byte	0x27
 861 045a 82000000 		.4byte	0x82
 862 045e 63000000 		.4byte	.LLST3
 863 0462 16       		.uleb128 0x16
 864 0463 737400   		.ascii	"st\000"
 865 0466 01       		.byte	0x1
 866 0467 27       		.byte	0x27
 867 0468 6F040000 		.4byte	0x46f
 868 046c 01       		.byte	0x1
 869 046d 51       		.byte	0x51
 870 046e 00       		.byte	0
 871 046f 05       		.uleb128 0x5
 872 0470 04       		.byte	0x4
 873 0471 39010000 		.4byte	0x139
 874 0475 12       		.uleb128 0x12
 875 0476 01       		.byte	0x1
 876 0477 F1000000 		.4byte	.LASF67
 877 047b 01       		.byte	0x1
 878 047c 2D       		.byte	0x2d
 879 047d 01       		.byte	0x1
 880 047e 82000000 		.4byte	0x82
 881 0482 00000000 		.4byte	.LFB60
 882 0486 04000000 		.4byte	.LFE60
 883 048a 02       		.byte	0x2
 884 048b 7D       		.byte	0x7d
 885 048c 00       		.sleb128 0
 886 048d 01       		.byte	0x1
 887 048e A2040000 		.4byte	0x4a2
 888 0492 13       		.uleb128 0x13
 889 0493 4F010000 		.4byte	.LASF65
 890 0497 01       		.byte	0x1
 891 0498 2D       		.byte	0x2d
 892 0499 82000000 		.4byte	0x82
 893 049d 84000000 		.4byte	.LLST4
 894 04a1 00       		.byte	0
 895 04a2 12       		.uleb128 0x12
ARM GAS  C:\Users\tom\AppData\Local\Temp\cc1RnbFl.s 			page 18


 896 04a3 01       		.byte	0x1
 897 04a4 1E030000 		.4byte	.LASF68
 898 04a8 01       		.byte	0x1
 899 04a9 32       		.byte	0x32
 900 04aa 01       		.byte	0x1
 901 04ab 82000000 		.4byte	0x82
 902 04af 00000000 		.4byte	.LFB61
 903 04b3 04000000 		.4byte	.LFE61
 904 04b7 02       		.byte	0x2
 905 04b8 7D       		.byte	0x7d
 906 04b9 00       		.sleb128 0
 907 04ba 01       		.byte	0x1
 908 04bb E9040000 		.4byte	0x4e9
 909 04bf 13       		.uleb128 0x13
 910 04c0 4F010000 		.4byte	.LASF65
 911 04c4 01       		.byte	0x1
 912 04c5 32       		.byte	0x32
 913 04c6 82000000 		.4byte	0x82
 914 04ca A5000000 		.4byte	.LLST5
 915 04ce 16       		.uleb128 0x16
 916 04cf 70747200 		.ascii	"ptr\000"
 917 04d3 01       		.byte	0x1
 918 04d4 32       		.byte	0x32
 919 04d5 82000000 		.4byte	0x82
 920 04d9 01       		.byte	0x1
 921 04da 51       		.byte	0x51
 922 04db 16       		.uleb128 0x16
 923 04dc 64697200 		.ascii	"dir\000"
 924 04e0 01       		.byte	0x1
 925 04e1 32       		.byte	0x32
 926 04e2 82000000 		.4byte	0x82
 927 04e6 01       		.byte	0x1
 928 04e7 52       		.byte	0x52
 929 04e8 00       		.byte	0
 930 04e9 12       		.uleb128 0x12
 931 04ea 01       		.byte	0x1
 932 04eb 21000000 		.4byte	.LASF69
 933 04ef 01       		.byte	0x1
 934 04f0 37       		.byte	0x37
 935 04f1 01       		.byte	0x1
 936 04f2 82000000 		.4byte	0x82
 937 04f6 00000000 		.4byte	.LFB62
 938 04fa 04000000 		.4byte	.LFE62
 939 04fe 02       		.byte	0x2
 940 04ff 7D       		.byte	0x7d
 941 0500 00       		.sleb128 0
 942 0501 01       		.byte	0x1
 943 0502 30050000 		.4byte	0x530
 944 0506 13       		.uleb128 0x13
 945 0507 4F010000 		.4byte	.LASF65
 946 050b 01       		.byte	0x1
 947 050c 37       		.byte	0x37
 948 050d 82000000 		.4byte	0x82
 949 0511 C6000000 		.4byte	.LLST6
 950 0515 16       		.uleb128 0x16
 951 0516 70747200 		.ascii	"ptr\000"
 952 051a 01       		.byte	0x1
ARM GAS  C:\Users\tom\AppData\Local\Temp\cc1RnbFl.s 			page 19


 953 051b 37       		.byte	0x37
 954 051c C9000000 		.4byte	0xc9
 955 0520 01       		.byte	0x1
 956 0521 51       		.byte	0x51
 957 0522 16       		.uleb128 0x16
 958 0523 6C656E00 		.ascii	"len\000"
 959 0527 01       		.byte	0x1
 960 0528 37       		.byte	0x37
 961 0529 82000000 		.4byte	0x82
 962 052d 01       		.byte	0x1
 963 052e 52       		.byte	0x52
 964 052f 00       		.byte	0
 965 0530 17       		.uleb128 0x17
 966 0531 01       		.byte	0x1
 967 0532 5B010000 		.4byte	.LASF80
 968 0536 0A       		.byte	0xa
 969 0537 43       		.byte	0x43
 970 0538 01       		.byte	0x1
 971 0539 00000000 		.4byte	.LFB63
 972 053d 02000000 		.4byte	.LFE63
 973 0541 02       		.byte	0x2
 974 0542 7D       		.byte	0x7d
 975 0543 00       		.sleb128 0
 976 0544 01       		.byte	0x1
 977 0545 18       		.uleb128 0x18
 978 0546 01       		.byte	0x1
 979 0547 5B000000 		.4byte	.LASF70
 980 054b 01       		.byte	0x1
 981 054c 41       		.byte	0x41
 982 054d 01       		.byte	0x1
 983 054e 82000000 		.4byte	0x82
 984 0552 00000000 		.4byte	.LFB64
 985 0556 30000000 		.4byte	.LFE64
 986 055a E7000000 		.4byte	.LLST7
 987 055e 01       		.byte	0x1
 988 055f D0050000 		.4byte	0x5d0
 989 0563 13       		.uleb128 0x13
 990 0564 4F010000 		.4byte	.LASF65
 991 0568 01       		.byte	0x1
 992 0569 41       		.byte	0x41
 993 056a 82000000 		.4byte	0x82
 994 056e 07010000 		.4byte	.LLST8
 995 0572 15       		.uleb128 0x15
 996 0573 70747200 		.ascii	"ptr\000"
 997 0577 01       		.byte	0x1
 998 0578 41       		.byte	0x41
 999 0579 C9000000 		.4byte	0xc9
 1000 057d 28010000 		.4byte	.LLST9
 1001 0581 15       		.uleb128 0x15
 1002 0582 6C656E00 		.ascii	"len\000"
 1003 0586 01       		.byte	0x1
 1004 0587 41       		.byte	0x41
 1005 0588 82000000 		.4byte	0x82
 1006 058c 5E010000 		.4byte	.LLST10
 1007 0590 19       		.uleb128 0x19
 1008 0591 B8020000 		.4byte	.LASF71
 1009 0595 01       		.byte	0x1
ARM GAS  C:\Users\tom\AppData\Local\Temp\cc1RnbFl.s 			page 20


 1010 0596 43       		.byte	0x43
 1011 0597 49000000 		.4byte	0x49
 1012 059b 87010000 		.4byte	.LLST11
 1013 059f 1A       		.uleb128 0x1a
 1014 05a0 1A000000 		.4byte	.LVL18
 1015 05a4 EB050000 		.4byte	0x5eb
 1016 05a8 B6050000 		.4byte	0x5b6
 1017 05ac 1B       		.uleb128 0x1b
 1018 05ad 01       		.byte	0x1
 1019 05ae 50       		.byte	0x50
 1020 05af 05       		.byte	0x5
 1021 05b0 0C       		.byte	0xc
 1022 05b1 00380140 		.4byte	0x40013800
 1023 05b5 00       		.byte	0
 1024 05b6 1C       		.uleb128 0x1c
 1025 05b7 22000000 		.4byte	.LVL19
 1026 05bb 0B060000 		.4byte	0x60b
 1027 05bf 1B       		.uleb128 0x1b
 1028 05c0 01       		.byte	0x1
 1029 05c1 51       		.byte	0x51
 1030 05c2 02       		.byte	0x2
 1031 05c3 08       		.byte	0x8
 1032 05c4 40       		.byte	0x40
 1033 05c5 1B       		.uleb128 0x1b
 1034 05c6 01       		.byte	0x1
 1035 05c7 50       		.byte	0x50
 1036 05c8 05       		.byte	0x5
 1037 05c9 0C       		.byte	0xc
 1038 05ca 00380140 		.4byte	0x40013800
 1039 05ce 00       		.byte	0
 1040 05cf 00       		.byte	0
 1041 05d0 1D       		.uleb128 0x1d
 1042 05d1 71030000 		.4byte	.LASF72
 1043 05d5 08       		.byte	0x8
 1044 05d6 0606     		.2byte	0x606
 1045 05d8 6A020000 		.4byte	0x26a
 1046 05dc 01       		.byte	0x1
 1047 05dd 01       		.byte	0x1
 1048 05de 1E       		.uleb128 0x1e
 1049 05df 06010000 		.4byte	.LASF73
 1050 05e3 01       		.byte	0x1
 1051 05e4 0C       		.byte	0xc
 1052 05e5 82000000 		.4byte	0x82
 1053 05e9 01       		.byte	0x1
 1054 05ea 01       		.byte	0x1
 1055 05eb 1F       		.uleb128 0x1f
 1056 05ec 01       		.byte	0x1
 1057 05ed BA000000 		.4byte	.LASF74
 1058 05f1 09       		.byte	0x9
 1059 05f2 8B01     		.2byte	0x18b
 1060 05f4 01       		.byte	0x1
 1061 05f5 01       		.byte	0x1
 1062 05f6 05060000 		.4byte	0x605
 1063 05fa 20       		.uleb128 0x20
 1064 05fb 05060000 		.4byte	0x605
 1065 05ff 20       		.uleb128 0x20
 1066 0600 44020000 		.4byte	0x244
ARM GAS  C:\Users\tom\AppData\Local\Temp\cc1RnbFl.s 			page 21


 1067 0604 00       		.byte	0
 1068 0605 05       		.uleb128 0x5
 1069 0606 04       		.byte	0x4
 1070 0607 6B030000 		.4byte	0x36b
 1071 060b 21       		.uleb128 0x21
 1072 060c 01       		.byte	0x1
 1073 060d 30030000 		.4byte	.LASF75
 1074 0611 09       		.byte	0x9
 1075 0612 9701     		.2byte	0x197
 1076 0614 01       		.byte	0x1
 1077 0615 85020000 		.4byte	0x285
 1078 0619 01       		.byte	0x1
 1079 061a 20       		.uleb128 0x20
 1080 061b 05060000 		.4byte	0x605
 1081 061f 20       		.uleb128 0x20
 1082 0620 44020000 		.4byte	0x244
 1083 0624 00       		.byte	0
 1084 0625 00       		.byte	0
 1085              		.section	.debug_abbrev,"",%progbits
 1086              	.Ldebug_abbrev0:
 1087 0000 01       		.uleb128 0x1
 1088 0001 11       		.uleb128 0x11
 1089 0002 01       		.byte	0x1
 1090 0003 25       		.uleb128 0x25
 1091 0004 0E       		.uleb128 0xe
 1092 0005 13       		.uleb128 0x13
 1093 0006 0B       		.uleb128 0xb
 1094 0007 03       		.uleb128 0x3
 1095 0008 0E       		.uleb128 0xe
 1096 0009 1B       		.uleb128 0x1b
 1097 000a 0E       		.uleb128 0xe
 1098 000b 55       		.uleb128 0x55
 1099 000c 06       		.uleb128 0x6
 1100 000d 11       		.uleb128 0x11
 1101 000e 01       		.uleb128 0x1
 1102 000f 52       		.uleb128 0x52
 1103 0010 01       		.uleb128 0x1
 1104 0011 10       		.uleb128 0x10
 1105 0012 06       		.uleb128 0x6
 1106 0013 00       		.byte	0
 1107 0014 00       		.byte	0
 1108 0015 02       		.uleb128 0x2
 1109 0016 24       		.uleb128 0x24
 1110 0017 00       		.byte	0
 1111 0018 0B       		.uleb128 0xb
 1112 0019 0B       		.uleb128 0xb
 1113 001a 3E       		.uleb128 0x3e
 1114 001b 0B       		.uleb128 0xb
 1115 001c 03       		.uleb128 0x3
 1116 001d 0E       		.uleb128 0xe
 1117 001e 00       		.byte	0
 1118 001f 00       		.byte	0
 1119 0020 03       		.uleb128 0x3
 1120 0021 16       		.uleb128 0x16
 1121 0022 00       		.byte	0
 1122 0023 03       		.uleb128 0x3
 1123 0024 0E       		.uleb128 0xe
ARM GAS  C:\Users\tom\AppData\Local\Temp\cc1RnbFl.s 			page 22


 1124 0025 3A       		.uleb128 0x3a
 1125 0026 0B       		.uleb128 0xb
 1126 0027 3B       		.uleb128 0x3b
 1127 0028 0B       		.uleb128 0xb
 1128 0029 49       		.uleb128 0x49
 1129 002a 13       		.uleb128 0x13
 1130 002b 00       		.byte	0
 1131 002c 00       		.byte	0
 1132 002d 04       		.uleb128 0x4
 1133 002e 24       		.uleb128 0x24
 1134 002f 00       		.byte	0
 1135 0030 0B       		.uleb128 0xb
 1136 0031 0B       		.uleb128 0xb
 1137 0032 3E       		.uleb128 0x3e
 1138 0033 0B       		.uleb128 0xb
 1139 0034 03       		.uleb128 0x3
 1140 0035 08       		.uleb128 0x8
 1141 0036 00       		.byte	0
 1142 0037 00       		.byte	0
 1143 0038 05       		.uleb128 0x5
 1144 0039 0F       		.uleb128 0xf
 1145 003a 00       		.byte	0
 1146 003b 0B       		.uleb128 0xb
 1147 003c 0B       		.uleb128 0xb
 1148 003d 49       		.uleb128 0x49
 1149 003e 13       		.uleb128 0x13
 1150 003f 00       		.byte	0
 1151 0040 00       		.byte	0
 1152 0041 06       		.uleb128 0x6
 1153 0042 13       		.uleb128 0x13
 1154 0043 01       		.byte	0x1
 1155 0044 03       		.uleb128 0x3
 1156 0045 0E       		.uleb128 0xe
 1157 0046 0B       		.uleb128 0xb
 1158 0047 0B       		.uleb128 0xb
 1159 0048 3A       		.uleb128 0x3a
 1160 0049 0B       		.uleb128 0xb
 1161 004a 3B       		.uleb128 0x3b
 1162 004b 0B       		.uleb128 0xb
 1163 004c 01       		.uleb128 0x1
 1164 004d 13       		.uleb128 0x13
 1165 004e 00       		.byte	0
 1166 004f 00       		.byte	0
 1167 0050 07       		.uleb128 0x7
 1168 0051 0D       		.uleb128 0xd
 1169 0052 00       		.byte	0
 1170 0053 03       		.uleb128 0x3
 1171 0054 0E       		.uleb128 0xe
 1172 0055 3A       		.uleb128 0x3a
 1173 0056 0B       		.uleb128 0xb
 1174 0057 3B       		.uleb128 0x3b
 1175 0058 0B       		.uleb128 0xb
 1176 0059 49       		.uleb128 0x49
 1177 005a 13       		.uleb128 0x13
 1178 005b 38       		.uleb128 0x38
 1179 005c 0A       		.uleb128 0xa
 1180 005d 00       		.byte	0
ARM GAS  C:\Users\tom\AppData\Local\Temp\cc1RnbFl.s 			page 23


 1181 005e 00       		.byte	0
 1182 005f 08       		.uleb128 0x8
 1183 0060 01       		.uleb128 0x1
 1184 0061 01       		.byte	0x1
 1185 0062 49       		.uleb128 0x49
 1186 0063 13       		.uleb128 0x13
 1187 0064 01       		.uleb128 0x1
 1188 0065 13       		.uleb128 0x13
 1189 0066 00       		.byte	0
 1190 0067 00       		.byte	0
 1191 0068 09       		.uleb128 0x9
 1192 0069 21       		.uleb128 0x21
 1193 006a 00       		.byte	0
 1194 006b 49       		.uleb128 0x49
 1195 006c 13       		.uleb128 0x13
 1196 006d 2F       		.uleb128 0x2f
 1197 006e 0B       		.uleb128 0xb
 1198 006f 00       		.byte	0
 1199 0070 00       		.byte	0
 1200 0071 0A       		.uleb128 0xa
 1201 0072 35       		.uleb128 0x35
 1202 0073 00       		.byte	0
 1203 0074 49       		.uleb128 0x49
 1204 0075 13       		.uleb128 0x13
 1205 0076 00       		.byte	0
 1206 0077 00       		.byte	0
 1207 0078 0B       		.uleb128 0xb
 1208 0079 04       		.uleb128 0x4
 1209 007a 01       		.byte	0x1
 1210 007b 0B       		.uleb128 0xb
 1211 007c 0B       		.uleb128 0xb
 1212 007d 3A       		.uleb128 0x3a
 1213 007e 0B       		.uleb128 0xb
 1214 007f 3B       		.uleb128 0x3b
 1215 0080 05       		.uleb128 0x5
 1216 0081 01       		.uleb128 0x1
 1217 0082 13       		.uleb128 0x13
 1218 0083 00       		.byte	0
 1219 0084 00       		.byte	0
 1220 0085 0C       		.uleb128 0xc
 1221 0086 28       		.uleb128 0x28
 1222 0087 00       		.byte	0
 1223 0088 03       		.uleb128 0x3
 1224 0089 0E       		.uleb128 0xe
 1225 008a 1C       		.uleb128 0x1c
 1226 008b 0D       		.uleb128 0xd
 1227 008c 00       		.byte	0
 1228 008d 00       		.byte	0
 1229 008e 0D       		.uleb128 0xd
 1230 008f 28       		.uleb128 0x28
 1231 0090 00       		.byte	0
 1232 0091 03       		.uleb128 0x3
 1233 0092 08       		.uleb128 0x8
 1234 0093 1C       		.uleb128 0x1c
 1235 0094 0D       		.uleb128 0xd
 1236 0095 00       		.byte	0
 1237 0096 00       		.byte	0
ARM GAS  C:\Users\tom\AppData\Local\Temp\cc1RnbFl.s 			page 24


 1238 0097 0E       		.uleb128 0xe
 1239 0098 16       		.uleb128 0x16
 1240 0099 00       		.byte	0
 1241 009a 03       		.uleb128 0x3
 1242 009b 0E       		.uleb128 0xe
 1243 009c 3A       		.uleb128 0x3a
 1244 009d 0B       		.uleb128 0xb
 1245 009e 3B       		.uleb128 0x3b
 1246 009f 05       		.uleb128 0x5
 1247 00a0 49       		.uleb128 0x49
 1248 00a1 13       		.uleb128 0x13
 1249 00a2 00       		.byte	0
 1250 00a3 00       		.byte	0
 1251 00a4 0F       		.uleb128 0xf
 1252 00a5 13       		.uleb128 0x13
 1253 00a6 01       		.byte	0x1
 1254 00a7 0B       		.uleb128 0xb
 1255 00a8 0B       		.uleb128 0xb
 1256 00a9 3A       		.uleb128 0x3a
 1257 00aa 0B       		.uleb128 0xb
 1258 00ab 3B       		.uleb128 0x3b
 1259 00ac 05       		.uleb128 0x5
 1260 00ad 01       		.uleb128 0x1
 1261 00ae 13       		.uleb128 0x13
 1262 00af 00       		.byte	0
 1263 00b0 00       		.byte	0
 1264 00b1 10       		.uleb128 0x10
 1265 00b2 0D       		.uleb128 0xd
 1266 00b3 00       		.byte	0
 1267 00b4 03       		.uleb128 0x3
 1268 00b5 08       		.uleb128 0x8
 1269 00b6 3A       		.uleb128 0x3a
 1270 00b7 0B       		.uleb128 0xb
 1271 00b8 3B       		.uleb128 0x3b
 1272 00b9 05       		.uleb128 0x5
 1273 00ba 49       		.uleb128 0x49
 1274 00bb 13       		.uleb128 0x13
 1275 00bc 38       		.uleb128 0x38
 1276 00bd 0A       		.uleb128 0xa
 1277 00be 00       		.byte	0
 1278 00bf 00       		.byte	0
 1279 00c0 11       		.uleb128 0x11
 1280 00c1 0D       		.uleb128 0xd
 1281 00c2 00       		.byte	0
 1282 00c3 03       		.uleb128 0x3
 1283 00c4 0E       		.uleb128 0xe
 1284 00c5 3A       		.uleb128 0x3a
 1285 00c6 0B       		.uleb128 0xb
 1286 00c7 3B       		.uleb128 0x3b
 1287 00c8 05       		.uleb128 0x5
 1288 00c9 49       		.uleb128 0x49
 1289 00ca 13       		.uleb128 0x13
 1290 00cb 38       		.uleb128 0x38
 1291 00cc 0A       		.uleb128 0xa
 1292 00cd 00       		.byte	0
 1293 00ce 00       		.byte	0
 1294 00cf 12       		.uleb128 0x12
ARM GAS  C:\Users\tom\AppData\Local\Temp\cc1RnbFl.s 			page 25


 1295 00d0 2E       		.uleb128 0x2e
 1296 00d1 01       		.byte	0x1
 1297 00d2 3F       		.uleb128 0x3f
 1298 00d3 0C       		.uleb128 0xc
 1299 00d4 03       		.uleb128 0x3
 1300 00d5 0E       		.uleb128 0xe
 1301 00d6 3A       		.uleb128 0x3a
 1302 00d7 0B       		.uleb128 0xb
 1303 00d8 3B       		.uleb128 0x3b
 1304 00d9 0B       		.uleb128 0xb
 1305 00da 27       		.uleb128 0x27
 1306 00db 0C       		.uleb128 0xc
 1307 00dc 49       		.uleb128 0x49
 1308 00dd 13       		.uleb128 0x13
 1309 00de 11       		.uleb128 0x11
 1310 00df 01       		.uleb128 0x1
 1311 00e0 12       		.uleb128 0x12
 1312 00e1 01       		.uleb128 0x1
 1313 00e2 40       		.uleb128 0x40
 1314 00e3 0A       		.uleb128 0xa
 1315 00e4 9742     		.uleb128 0x2117
 1316 00e6 0C       		.uleb128 0xc
 1317 00e7 01       		.uleb128 0x1
 1318 00e8 13       		.uleb128 0x13
 1319 00e9 00       		.byte	0
 1320 00ea 00       		.byte	0
 1321 00eb 13       		.uleb128 0x13
 1322 00ec 05       		.uleb128 0x5
 1323 00ed 00       		.byte	0
 1324 00ee 03       		.uleb128 0x3
 1325 00ef 0E       		.uleb128 0xe
 1326 00f0 3A       		.uleb128 0x3a
 1327 00f1 0B       		.uleb128 0xb
 1328 00f2 3B       		.uleb128 0x3b
 1329 00f3 0B       		.uleb128 0xb
 1330 00f4 49       		.uleb128 0x49
 1331 00f5 13       		.uleb128 0x13
 1332 00f6 02       		.uleb128 0x2
 1333 00f7 06       		.uleb128 0x6
 1334 00f8 00       		.byte	0
 1335 00f9 00       		.byte	0
 1336 00fa 14       		.uleb128 0x14
 1337 00fb 34       		.uleb128 0x34
 1338 00fc 00       		.byte	0
 1339 00fd 03       		.uleb128 0x3
 1340 00fe 0E       		.uleb128 0xe
 1341 00ff 3A       		.uleb128 0x3a
 1342 0100 0B       		.uleb128 0xb
 1343 0101 3B       		.uleb128 0x3b
 1344 0102 0B       		.uleb128 0xb
 1345 0103 49       		.uleb128 0x49
 1346 0104 13       		.uleb128 0x13
 1347 0105 02       		.uleb128 0x2
 1348 0106 0A       		.uleb128 0xa
 1349 0107 00       		.byte	0
 1350 0108 00       		.byte	0
 1351 0109 15       		.uleb128 0x15
ARM GAS  C:\Users\tom\AppData\Local\Temp\cc1RnbFl.s 			page 26


 1352 010a 05       		.uleb128 0x5
 1353 010b 00       		.byte	0
 1354 010c 03       		.uleb128 0x3
 1355 010d 08       		.uleb128 0x8
 1356 010e 3A       		.uleb128 0x3a
 1357 010f 0B       		.uleb128 0xb
 1358 0110 3B       		.uleb128 0x3b
 1359 0111 0B       		.uleb128 0xb
 1360 0112 49       		.uleb128 0x49
 1361 0113 13       		.uleb128 0x13
 1362 0114 02       		.uleb128 0x2
 1363 0115 06       		.uleb128 0x6
 1364 0116 00       		.byte	0
 1365 0117 00       		.byte	0
 1366 0118 16       		.uleb128 0x16
 1367 0119 05       		.uleb128 0x5
 1368 011a 00       		.byte	0
 1369 011b 03       		.uleb128 0x3
 1370 011c 08       		.uleb128 0x8
 1371 011d 3A       		.uleb128 0x3a
 1372 011e 0B       		.uleb128 0xb
 1373 011f 3B       		.uleb128 0x3b
 1374 0120 0B       		.uleb128 0xb
 1375 0121 49       		.uleb128 0x49
 1376 0122 13       		.uleb128 0x13
 1377 0123 02       		.uleb128 0x2
 1378 0124 0A       		.uleb128 0xa
 1379 0125 00       		.byte	0
 1380 0126 00       		.byte	0
 1381 0127 17       		.uleb128 0x17
 1382 0128 2E       		.uleb128 0x2e
 1383 0129 00       		.byte	0
 1384 012a 3F       		.uleb128 0x3f
 1385 012b 0C       		.uleb128 0xc
 1386 012c 03       		.uleb128 0x3
 1387 012d 0E       		.uleb128 0xe
 1388 012e 3A       		.uleb128 0x3a
 1389 012f 0B       		.uleb128 0xb
 1390 0130 3B       		.uleb128 0x3b
 1391 0131 0B       		.uleb128 0xb
 1392 0132 27       		.uleb128 0x27
 1393 0133 0C       		.uleb128 0xc
 1394 0134 11       		.uleb128 0x11
 1395 0135 01       		.uleb128 0x1
 1396 0136 12       		.uleb128 0x12
 1397 0137 01       		.uleb128 0x1
 1398 0138 40       		.uleb128 0x40
 1399 0139 0A       		.uleb128 0xa
 1400 013a 9742     		.uleb128 0x2117
 1401 013c 0C       		.uleb128 0xc
 1402 013d 00       		.byte	0
 1403 013e 00       		.byte	0
 1404 013f 18       		.uleb128 0x18
 1405 0140 2E       		.uleb128 0x2e
 1406 0141 01       		.byte	0x1
 1407 0142 3F       		.uleb128 0x3f
 1408 0143 0C       		.uleb128 0xc
ARM GAS  C:\Users\tom\AppData\Local\Temp\cc1RnbFl.s 			page 27


 1409 0144 03       		.uleb128 0x3
 1410 0145 0E       		.uleb128 0xe
 1411 0146 3A       		.uleb128 0x3a
 1412 0147 0B       		.uleb128 0xb
 1413 0148 3B       		.uleb128 0x3b
 1414 0149 0B       		.uleb128 0xb
 1415 014a 27       		.uleb128 0x27
 1416 014b 0C       		.uleb128 0xc
 1417 014c 49       		.uleb128 0x49
 1418 014d 13       		.uleb128 0x13
 1419 014e 11       		.uleb128 0x11
 1420 014f 01       		.uleb128 0x1
 1421 0150 12       		.uleb128 0x12
 1422 0151 01       		.uleb128 0x1
 1423 0152 40       		.uleb128 0x40
 1424 0153 06       		.uleb128 0x6
 1425 0154 9742     		.uleb128 0x2117
 1426 0156 0C       		.uleb128 0xc
 1427 0157 01       		.uleb128 0x1
 1428 0158 13       		.uleb128 0x13
 1429 0159 00       		.byte	0
 1430 015a 00       		.byte	0
 1431 015b 19       		.uleb128 0x19
 1432 015c 34       		.uleb128 0x34
 1433 015d 00       		.byte	0
 1434 015e 03       		.uleb128 0x3
 1435 015f 0E       		.uleb128 0xe
 1436 0160 3A       		.uleb128 0x3a
 1437 0161 0B       		.uleb128 0xb
 1438 0162 3B       		.uleb128 0x3b
 1439 0163 0B       		.uleb128 0xb
 1440 0164 49       		.uleb128 0x49
 1441 0165 13       		.uleb128 0x13
 1442 0166 02       		.uleb128 0x2
 1443 0167 06       		.uleb128 0x6
 1444 0168 00       		.byte	0
 1445 0169 00       		.byte	0
 1446 016a 1A       		.uleb128 0x1a
 1447 016b 898201   		.uleb128 0x4109
 1448 016e 01       		.byte	0x1
 1449 016f 11       		.uleb128 0x11
 1450 0170 01       		.uleb128 0x1
 1451 0171 31       		.uleb128 0x31
 1452 0172 13       		.uleb128 0x13
 1453 0173 01       		.uleb128 0x1
 1454 0174 13       		.uleb128 0x13
 1455 0175 00       		.byte	0
 1456 0176 00       		.byte	0
 1457 0177 1B       		.uleb128 0x1b
 1458 0178 8A8201   		.uleb128 0x410a
 1459 017b 00       		.byte	0
 1460 017c 02       		.uleb128 0x2
 1461 017d 0A       		.uleb128 0xa
 1462 017e 9142     		.uleb128 0x2111
 1463 0180 0A       		.uleb128 0xa
 1464 0181 00       		.byte	0
 1465 0182 00       		.byte	0
ARM GAS  C:\Users\tom\AppData\Local\Temp\cc1RnbFl.s 			page 28


 1466 0183 1C       		.uleb128 0x1c
 1467 0184 898201   		.uleb128 0x4109
 1468 0187 01       		.byte	0x1
 1469 0188 11       		.uleb128 0x11
 1470 0189 01       		.uleb128 0x1
 1471 018a 31       		.uleb128 0x31
 1472 018b 13       		.uleb128 0x13
 1473 018c 00       		.byte	0
 1474 018d 00       		.byte	0
 1475 018e 1D       		.uleb128 0x1d
 1476 018f 34       		.uleb128 0x34
 1477 0190 00       		.byte	0
 1478 0191 03       		.uleb128 0x3
 1479 0192 0E       		.uleb128 0xe
 1480 0193 3A       		.uleb128 0x3a
 1481 0194 0B       		.uleb128 0xb
 1482 0195 3B       		.uleb128 0x3b
 1483 0196 05       		.uleb128 0x5
 1484 0197 49       		.uleb128 0x49
 1485 0198 13       		.uleb128 0x13
 1486 0199 3F       		.uleb128 0x3f
 1487 019a 0C       		.uleb128 0xc
 1488 019b 3C       		.uleb128 0x3c
 1489 019c 0C       		.uleb128 0xc
 1490 019d 00       		.byte	0
 1491 019e 00       		.byte	0
 1492 019f 1E       		.uleb128 0x1e
 1493 01a0 34       		.uleb128 0x34
 1494 01a1 00       		.byte	0
 1495 01a2 03       		.uleb128 0x3
 1496 01a3 0E       		.uleb128 0xe
 1497 01a4 3A       		.uleb128 0x3a
 1498 01a5 0B       		.uleb128 0xb
 1499 01a6 3B       		.uleb128 0x3b
 1500 01a7 0B       		.uleb128 0xb
 1501 01a8 49       		.uleb128 0x49
 1502 01a9 13       		.uleb128 0x13
 1503 01aa 3F       		.uleb128 0x3f
 1504 01ab 0C       		.uleb128 0xc
 1505 01ac 3C       		.uleb128 0x3c
 1506 01ad 0C       		.uleb128 0xc
 1507 01ae 00       		.byte	0
 1508 01af 00       		.byte	0
 1509 01b0 1F       		.uleb128 0x1f
 1510 01b1 2E       		.uleb128 0x2e
 1511 01b2 01       		.byte	0x1
 1512 01b3 3F       		.uleb128 0x3f
 1513 01b4 0C       		.uleb128 0xc
 1514 01b5 03       		.uleb128 0x3
 1515 01b6 0E       		.uleb128 0xe
 1516 01b7 3A       		.uleb128 0x3a
 1517 01b8 0B       		.uleb128 0xb
 1518 01b9 3B       		.uleb128 0x3b
 1519 01ba 05       		.uleb128 0x5
 1520 01bb 27       		.uleb128 0x27
 1521 01bc 0C       		.uleb128 0xc
 1522 01bd 3C       		.uleb128 0x3c
ARM GAS  C:\Users\tom\AppData\Local\Temp\cc1RnbFl.s 			page 29


 1523 01be 0C       		.uleb128 0xc
 1524 01bf 01       		.uleb128 0x1
 1525 01c0 13       		.uleb128 0x13
 1526 01c1 00       		.byte	0
 1527 01c2 00       		.byte	0
 1528 01c3 20       		.uleb128 0x20
 1529 01c4 05       		.uleb128 0x5
 1530 01c5 00       		.byte	0
 1531 01c6 49       		.uleb128 0x49
 1532 01c7 13       		.uleb128 0x13
 1533 01c8 00       		.byte	0
 1534 01c9 00       		.byte	0
 1535 01ca 21       		.uleb128 0x21
 1536 01cb 2E       		.uleb128 0x2e
 1537 01cc 01       		.byte	0x1
 1538 01cd 3F       		.uleb128 0x3f
 1539 01ce 0C       		.uleb128 0xc
 1540 01cf 03       		.uleb128 0x3
 1541 01d0 0E       		.uleb128 0xe
 1542 01d1 3A       		.uleb128 0x3a
 1543 01d2 0B       		.uleb128 0xb
 1544 01d3 3B       		.uleb128 0x3b
 1545 01d4 05       		.uleb128 0x5
 1546 01d5 27       		.uleb128 0x27
 1547 01d6 0C       		.uleb128 0xc
 1548 01d7 49       		.uleb128 0x49
 1549 01d8 13       		.uleb128 0x13
 1550 01d9 3C       		.uleb128 0x3c
 1551 01da 0C       		.uleb128 0xc
 1552 01db 00       		.byte	0
 1553 01dc 00       		.byte	0
 1554 01dd 00       		.byte	0
 1555              		.section	.debug_loc,"",%progbits
 1556              	.Ldebug_loc0:
 1557              	.LLST0:
 1558 0000 00000000 		.4byte	.LVL0
 1559 0004 10000000 		.4byte	.LVL1
 1560 0008 0100     		.2byte	0x1
 1561 000a 50       		.byte	0x50
 1562 000b 10000000 		.4byte	.LVL1
 1563 000f 28000000 		.4byte	.LFE56
 1564 0013 0400     		.2byte	0x4
 1565 0015 F3       		.byte	0xf3
 1566 0016 01       		.uleb128 0x1
 1567 0017 50       		.byte	0x50
 1568 0018 9F       		.byte	0x9f
 1569 0019 00000000 		.4byte	0
 1570 001d 00000000 		.4byte	0
 1571              	.LLST1:
 1572 0021 00000000 		.4byte	.LVL3
 1573 0025 04000000 		.4byte	.LVL4
 1574 0029 0100     		.2byte	0x1
 1575 002b 50       		.byte	0x50
 1576 002c 04000000 		.4byte	.LVL4
 1577 0030 06000000 		.4byte	.LFE57
 1578 0034 0400     		.2byte	0x4
 1579 0036 F3       		.byte	0xf3
ARM GAS  C:\Users\tom\AppData\Local\Temp\cc1RnbFl.s 			page 30


 1580 0037 01       		.uleb128 0x1
 1581 0038 50       		.byte	0x50
 1582 0039 9F       		.byte	0x9f
 1583 003a 00000000 		.4byte	0
 1584 003e 00000000 		.4byte	0
 1585              	.LLST2:
 1586 0042 00000000 		.4byte	.LVL5
 1587 0046 04000000 		.4byte	.LVL6
 1588 004a 0100     		.2byte	0x1
 1589 004c 50       		.byte	0x50
 1590 004d 04000000 		.4byte	.LVL6
 1591 0051 06000000 		.4byte	.LFE58
 1592 0055 0400     		.2byte	0x4
 1593 0057 F3       		.byte	0xf3
 1594 0058 01       		.uleb128 0x1
 1595 0059 50       		.byte	0x50
 1596 005a 9F       		.byte	0x9f
 1597 005b 00000000 		.4byte	0
 1598 005f 00000000 		.4byte	0
 1599              	.LLST3:
 1600 0063 00000000 		.4byte	.LVL7
 1601 0067 08000000 		.4byte	.LVL8
 1602 006b 0100     		.2byte	0x1
 1603 006d 50       		.byte	0x50
 1604 006e 08000000 		.4byte	.LVL8
 1605 0072 0A000000 		.4byte	.LFE59
 1606 0076 0400     		.2byte	0x4
 1607 0078 F3       		.byte	0xf3
 1608 0079 01       		.uleb128 0x1
 1609 007a 50       		.byte	0x50
 1610 007b 9F       		.byte	0x9f
 1611 007c 00000000 		.4byte	0
 1612 0080 00000000 		.4byte	0
 1613              	.LLST4:
 1614 0084 00000000 		.4byte	.LVL9
 1615 0088 02000000 		.4byte	.LVL10
 1616 008c 0100     		.2byte	0x1
 1617 008e 50       		.byte	0x50
 1618 008f 02000000 		.4byte	.LVL10
 1619 0093 04000000 		.4byte	.LFE60
 1620 0097 0400     		.2byte	0x4
 1621 0099 F3       		.byte	0xf3
 1622 009a 01       		.uleb128 0x1
 1623 009b 50       		.byte	0x50
 1624 009c 9F       		.byte	0x9f
 1625 009d 00000000 		.4byte	0
 1626 00a1 00000000 		.4byte	0
 1627              	.LLST5:
 1628 00a5 00000000 		.4byte	.LVL11
 1629 00a9 02000000 		.4byte	.LVL12
 1630 00ad 0100     		.2byte	0x1
 1631 00af 50       		.byte	0x50
 1632 00b0 02000000 		.4byte	.LVL12
 1633 00b4 04000000 		.4byte	.LFE61
 1634 00b8 0400     		.2byte	0x4
 1635 00ba F3       		.byte	0xf3
 1636 00bb 01       		.uleb128 0x1
ARM GAS  C:\Users\tom\AppData\Local\Temp\cc1RnbFl.s 			page 31


 1637 00bc 50       		.byte	0x50
 1638 00bd 9F       		.byte	0x9f
 1639 00be 00000000 		.4byte	0
 1640 00c2 00000000 		.4byte	0
 1641              	.LLST6:
 1642 00c6 00000000 		.4byte	.LVL13
 1643 00ca 02000000 		.4byte	.LVL14
 1644 00ce 0100     		.2byte	0x1
 1645 00d0 50       		.byte	0x50
 1646 00d1 02000000 		.4byte	.LVL14
 1647 00d5 04000000 		.4byte	.LFE62
 1648 00d9 0400     		.2byte	0x4
 1649 00db F3       		.byte	0xf3
 1650 00dc 01       		.uleb128 0x1
 1651 00dd 50       		.byte	0x50
 1652 00de 9F       		.byte	0x9f
 1653 00df 00000000 		.4byte	0
 1654 00e3 00000000 		.4byte	0
 1655              	.LLST7:
 1656 00e7 00000000 		.4byte	.LFB64
 1657 00eb 02000000 		.4byte	.LCFI0
 1658 00ef 0200     		.2byte	0x2
 1659 00f1 7D       		.byte	0x7d
 1660 00f2 00       		.sleb128 0
 1661 00f3 02000000 		.4byte	.LCFI0
 1662 00f7 30000000 		.4byte	.LFE64
 1663 00fb 0200     		.2byte	0x2
 1664 00fd 7D       		.byte	0x7d
 1665 00fe 10       		.sleb128 16
 1666 00ff 00000000 		.4byte	0
 1667 0103 00000000 		.4byte	0
 1668              	.LLST8:
 1669 0107 00000000 		.4byte	.LVL15
 1670 010b 08000000 		.4byte	.LVL16
 1671 010f 0100     		.2byte	0x1
 1672 0111 50       		.byte	0x50
 1673 0112 08000000 		.4byte	.LVL16
 1674 0116 30000000 		.4byte	.LFE64
 1675 011a 0400     		.2byte	0x4
 1676 011c F3       		.byte	0xf3
 1677 011d 01       		.uleb128 0x1
 1678 011e 50       		.byte	0x50
 1679 011f 9F       		.byte	0x9f
 1680 0120 00000000 		.4byte	0
 1681 0124 00000000 		.4byte	0
 1682              	.LLST9:
 1683 0128 00000000 		.4byte	.LVL15
 1684 012c 08000000 		.4byte	.LVL16
 1685 0130 0100     		.2byte	0x1
 1686 0132 51       		.byte	0x51
 1687 0133 08000000 		.4byte	.LVL16
 1688 0137 16000000 		.4byte	.LVL17
 1689 013b 0100     		.2byte	0x1
 1690 013d 54       		.byte	0x54
 1691 013e 16000000 		.4byte	.LVL17
 1692 0142 28000000 		.4byte	.LVL20
 1693 0146 0300     		.2byte	0x3
ARM GAS  C:\Users\tom\AppData\Local\Temp\cc1RnbFl.s 			page 32


 1694 0148 74       		.byte	0x74
 1695 0149 7F       		.sleb128 -1
 1696 014a 9F       		.byte	0x9f
 1697 014b 28000000 		.4byte	.LVL20
 1698 014f 2C000000 		.4byte	.LVL21
 1699 0153 0100     		.2byte	0x1
 1700 0155 54       		.byte	0x54
 1701 0156 00000000 		.4byte	0
 1702 015a 00000000 		.4byte	0
 1703              	.LLST10:
 1704 015e 00000000 		.4byte	.LVL15
 1705 0162 08000000 		.4byte	.LVL16
 1706 0166 0100     		.2byte	0x1
 1707 0168 52       		.byte	0x52
 1708 0169 08000000 		.4byte	.LVL16
 1709 016d 2C000000 		.4byte	.LVL21
 1710 0171 0100     		.2byte	0x1
 1711 0173 55       		.byte	0x55
 1712 0174 2C000000 		.4byte	.LVL21
 1713 0178 30000000 		.4byte	.LFE64
 1714 017c 0100     		.2byte	0x1
 1715 017e 50       		.byte	0x50
 1716 017f 00000000 		.4byte	0
 1717 0183 00000000 		.4byte	0
 1718              	.LLST11:
 1719 0187 00000000 		.4byte	.LVL15
 1720 018b 08000000 		.4byte	.LVL16
 1721 018f 0200     		.2byte	0x2
 1722 0191 30       		.byte	0x30
 1723 0192 9F       		.byte	0x9f
 1724 0193 08000000 		.4byte	.LVL16
 1725 0197 16000000 		.4byte	.LVL17
 1726 019b 0600     		.2byte	0x6
 1727 019d 74       		.byte	0x74
 1728 019e 00       		.sleb128 0
 1729 019f 76       		.byte	0x76
 1730 01a0 00       		.sleb128 0
 1731 01a1 1C       		.byte	0x1c
 1732 01a2 9F       		.byte	0x9f
 1733 01a3 28000000 		.4byte	.LVL20
 1734 01a7 2C000000 		.4byte	.LVL21
 1735 01ab 0600     		.2byte	0x6
 1736 01ad 74       		.byte	0x74
 1737 01ae 00       		.sleb128 0
 1738 01af 76       		.byte	0x76
 1739 01b0 00       		.sleb128 0
 1740 01b1 1C       		.byte	0x1c
 1741 01b2 9F       		.byte	0x9f
 1742 01b3 00000000 		.4byte	0
 1743 01b7 00000000 		.4byte	0
 1744              		.section	.debug_aranges,"",%progbits
 1745 0000 5C000000 		.4byte	0x5c
 1746 0004 0200     		.2byte	0x2
 1747 0006 00000000 		.4byte	.Ldebug_info0
 1748 000a 04       		.byte	0x4
 1749 000b 00       		.byte	0
 1750 000c 0000     		.2byte	0
ARM GAS  C:\Users\tom\AppData\Local\Temp\cc1RnbFl.s 			page 33


 1751 000e 0000     		.2byte	0
 1752 0010 00000000 		.4byte	.LFB56
 1753 0014 28000000 		.4byte	.LFE56-.LFB56
 1754 0018 00000000 		.4byte	.LFB57
 1755 001c 06000000 		.4byte	.LFE57-.LFB57
 1756 0020 00000000 		.4byte	.LFB58
 1757 0024 06000000 		.4byte	.LFE58-.LFB58
 1758 0028 00000000 		.4byte	.LFB59
 1759 002c 0A000000 		.4byte	.LFE59-.LFB59
 1760 0030 00000000 		.4byte	.LFB60
 1761 0034 04000000 		.4byte	.LFE60-.LFB60
 1762 0038 00000000 		.4byte	.LFB61
 1763 003c 04000000 		.4byte	.LFE61-.LFB61
 1764 0040 00000000 		.4byte	.LFB62
 1765 0044 04000000 		.4byte	.LFE62-.LFB62
 1766 0048 00000000 		.4byte	.LFB63
 1767 004c 02000000 		.4byte	.LFE63-.LFB63
 1768 0050 00000000 		.4byte	.LFB64
 1769 0054 30000000 		.4byte	.LFE64-.LFB64
 1770 0058 00000000 		.4byte	0
 1771 005c 00000000 		.4byte	0
 1772              		.section	.debug_ranges,"",%progbits
 1773              	.Ldebug_ranges0:
 1774 0000 00000000 		.4byte	.LFB56
 1775 0004 28000000 		.4byte	.LFE56
 1776 0008 00000000 		.4byte	.LFB57
 1777 000c 06000000 		.4byte	.LFE57
 1778 0010 00000000 		.4byte	.LFB58
 1779 0014 06000000 		.4byte	.LFE58
 1780 0018 00000000 		.4byte	.LFB59
 1781 001c 0A000000 		.4byte	.LFE59
 1782 0020 00000000 		.4byte	.LFB60
 1783 0024 04000000 		.4byte	.LFE60
 1784 0028 00000000 		.4byte	.LFB61
 1785 002c 04000000 		.4byte	.LFE61
 1786 0030 00000000 		.4byte	.LFB62
 1787 0034 04000000 		.4byte	.LFE62
 1788 0038 00000000 		.4byte	.LFB63
 1789 003c 02000000 		.4byte	.LFE63
 1790 0040 00000000 		.4byte	.LFB64
 1791 0044 30000000 		.4byte	.LFE64
 1792 0048 00000000 		.4byte	0
 1793 004c 00000000 		.4byte	0
 1794              		.section	.debug_line,"",%progbits
 1795              	.Ldebug_line0:
 1796 0000 18020000 		.section	.debug_str,"MS",%progbits,1
 1796      02006701 
 1796      00000201 
 1796      FB0E0D00 
 1796      01010101 
 1797              	.LASF33:
 1798 0000 73745F72 		.ascii	"st_rdev\000"
 1798      64657600 
 1799              	.LASF55:
 1800 0008 47545052 		.ascii	"GTPR\000"
 1800      00
 1801              	.LASF23:
ARM GAS  C:\Users\tom\AppData\Local\Temp\cc1RnbFl.s 			page 34


 1802 000d 7569645F 		.ascii	"uid_t\000"
 1802      7400
 1803              	.LASF25:
 1804 0013 6D6F6465 		.ascii	"mode_t\000"
 1804      5F7400
 1805              	.LASF12:
 1806 001a 5F6F6666 		.ascii	"_off_t\000"
 1806      5F7400
 1807              	.LASF69:
 1808 0021 5F726561 		.ascii	"_read\000"
 1808      6400
 1809              	.LASF39:
 1810 0027 73745F63 		.ascii	"st_ctime\000"
 1810      74696D65 
 1810      00
 1811              	.LASF16:
 1812 0030 73697A65 		.ascii	"sizetype\000"
 1812      74797065 
 1812      00
 1813              	.LASF10:
 1814 0039 6C6F6E67 		.ascii	"long long unsigned int\000"
 1814      206C6F6E 
 1814      6720756E 
 1814      7369676E 
 1814      65642069 
 1815              	.LASF4:
 1816 0050 5F5F7569 		.ascii	"__uint16_t\000"
 1816      6E743136 
 1816      5F7400
 1817              	.LASF70:
 1818 005b 5F777269 		.ascii	"_write\000"
 1818      746500
 1819              	.LASF27:
 1820 0062 73745F64 		.ascii	"st_dev\000"
 1820      657600
 1821              	.LASF66:
 1822 0069 5F667374 		.ascii	"_fstat\000"
 1822      617400
 1823              	.LASF78:
 1824 0070 443A5C77 		.ascii	"D:\\work\\__my_github\\diy\\battery_analyzer\\firmw"
 1824      6F726B5C 
 1824      5F5F6D79 
 1824      5F676974 
 1824      6875625C 
 1825 009e 61726500 		.ascii	"are\000"
 1826              	.LASF57:
 1827 00a2 55534152 		.ascii	"USART_TypeDef\000"
 1827      545F5479 
 1827      70654465 
 1827      6600
 1828              	.LASF2:
 1829 00b0 73686F72 		.ascii	"short int\000"
 1829      7420696E 
 1829      7400
 1830              	.LASF74:
 1831 00ba 55534152 		.ascii	"USART_SendData\000"
 1831      545F5365 
ARM GAS  C:\Users\tom\AppData\Local\Temp\cc1RnbFl.s 			page 35


 1831      6E644461 
 1831      746100
 1832              	.LASF54:
 1833 00c9 52455345 		.ascii	"RESERVED5\000"
 1833      52564544 
 1833      3500
 1834              	.LASF0:
 1835 00d3 7369676E 		.ascii	"signed char\000"
 1835      65642063 
 1835      68617200 
 1836              	.LASF58:
 1837 00df 70537461 		.ascii	"pStack\000"
 1837      636B00
 1838              	.LASF41:
 1839 00e6 73745F62 		.ascii	"st_blksize\000"
 1839      6C6B7369 
 1839      7A6500
 1840              	.LASF67:
 1841 00f1 5F697361 		.ascii	"_isatty\000"
 1841      74747900 
 1842              	.LASF32:
 1843 00f9 73745F67 		.ascii	"st_gid\000"
 1843      696400
 1844              	.LASF20:
 1845 0100 696E6F5F 		.ascii	"ino_t\000"
 1845      7400
 1846              	.LASF73:
 1847 0106 5F656E64 		.ascii	"_end\000"
 1847      00
 1848              	.LASF6:
 1849 010b 6C6F6E67 		.ascii	"long int\000"
 1849      20696E74 
 1849      00
 1850              	.LASF35:
 1851 0114 73745F61 		.ascii	"st_atime\000"
 1851      74696D65 
 1851      00
 1852              	.LASF21:
 1853 011d 6F66665F 		.ascii	"off_t\000"
 1853      7400
 1854              	.LASF34:
 1855 0123 73745F73 		.ascii	"st_size\000"
 1855      697A6500 
 1856              	.LASF24:
 1857 012b 6769645F 		.ascii	"gid_t\000"
 1857      7400
 1858              	.LASF22:
 1859 0131 6465765F 		.ascii	"dev_t\000"
 1859      7400
 1860              	.LASF62:
 1861 0137 6C696E6B 		.ascii	"link\000"
 1861      00
 1862              	.LASF63:
 1863 013c 696E6372 		.ascii	"incr\000"
 1863      00
 1864              	.LASF1:
 1865 0141 756E7369 		.ascii	"unsigned char\000"
ARM GAS  C:\Users\tom\AppData\Local\Temp\cc1RnbFl.s 			page 36


 1865      676E6564 
 1865      20636861 
 1865      7200
 1866              	.LASF65:
 1867 014f 66696C65 		.ascii	"file\000"
 1867      00
 1868              	.LASF18:
 1869 0154 74696D65 		.ascii	"time_t\000"
 1869      5F7400
 1870              	.LASF80:
 1871 015b 61626F72 		.ascii	"abort\000"
 1871      7400
 1872              	.LASF59:
 1873 0161 735F7048 		.ascii	"s_pHeapEnd\000"
 1873      65617045 
 1873      6E6400
 1874              	.LASF28:
 1875 016c 73745F69 		.ascii	"st_ino\000"
 1875      6E6F00
 1876              	.LASF77:
 1877 0173 5F6C6962 		.ascii	"_libs/syscall.c\000"
 1877      732F7379 
 1877      7363616C 
 1877      6C2E6300 
 1878              	.LASF46:
 1879 0183 75696E74 		.ascii	"uint32_t\000"
 1879      33325F74 
 1879      00
 1880              	.LASF11:
 1881 018c 756E7369 		.ascii	"unsigned int\000"
 1881      676E6564 
 1881      20696E74 
 1881      00
 1882              	.LASF30:
 1883 0199 73745F6E 		.ascii	"st_nlink\000"
 1883      6C696E6B 
 1883      00
 1884              	.LASF44:
 1885 01a2 75696E74 		.ascii	"uint16_t\000"
 1885      31365F74 
 1885      00
 1886              	.LASF8:
 1887 01ab 6C6F6E67 		.ascii	"long unsigned int\000"
 1887      20756E73 
 1887      69676E65 
 1887      6420696E 
 1887      7400
 1888              	.LASF3:
 1889 01bd 73686F72 		.ascii	"short unsigned int\000"
 1889      7420756E 
 1889      7369676E 
 1889      65642069 
 1889      6E7400
 1890              	.LASF37:
 1891 01d0 73745F6D 		.ascii	"st_mtime\000"
 1891      74696D65 
 1891      00
ARM GAS  C:\Users\tom\AppData\Local\Temp\cc1RnbFl.s 			page 37


 1892              	.LASF38:
 1893 01d9 73745F73 		.ascii	"st_spare2\000"
 1893      70617265 
 1893      3200
 1894              	.LASF64:
 1895 01e3 5F636C6F 		.ascii	"_close\000"
 1895      736500
 1896              	.LASF17:
 1897 01ea 63686172 		.ascii	"char\000"
 1897      00
 1898              	.LASF76:
 1899 01ef 474E5520 		.ascii	"GNU C 4.9.3 20150303 (release) [ARM/embedded-4_9-br"
 1899      4320342E 
 1899      392E3320 
 1899      32303135 
 1899      30333033 
 1900 0222 616E6368 		.ascii	"anch revision 221220] -mcpu=cortex-m3 -mthumb -g -g"
 1900      20726576 
 1900      6973696F 
 1900      6E203232 
 1900      31323230 
 1901 0255 64776172 		.ascii	"dwarf-2 -Os -std=gnu99 -ffunction-sections -fdata-s"
 1901      662D3220 
 1901      2D4F7320 
 1901      2D737464 
 1901      3D676E75 
 1902 0288 65637469 		.ascii	"ections\000"
 1902      6F6E7300 
 1903              	.LASF45:
 1904 0290 696E7433 		.ascii	"int32_t\000"
 1904      325F7400 
 1905              	.LASF61:
 1906 0298 5F736272 		.ascii	"_sbrk\000"
 1906      6B00
 1907              	.LASF19:
 1908 029e 63616464 		.ascii	"caddr_t\000"
 1908      725F7400 
 1909              	.LASF42:
 1910 02a6 73745F62 		.ascii	"st_blocks\000"
 1910      6C6F636B 
 1910      7300
 1911              	.LASF26:
 1912 02b0 6E6C696E 		.ascii	"nlink_t\000"
 1912      6B5F7400 
 1913              	.LASF71:
 1914 02b8 746F646F 		.ascii	"todo\000"
 1914      00
 1915              	.LASF31:
 1916 02bd 73745F75 		.ascii	"st_uid\000"
 1916      696400
 1917              	.LASF49:
 1918 02c4 52455345 		.ascii	"RESERVED0\000"
 1918      52564544 
 1918      3000
 1919              	.LASF50:
 1920 02ce 52455345 		.ascii	"RESERVED1\000"
 1920      52564544 
ARM GAS  C:\Users\tom\AppData\Local\Temp\cc1RnbFl.s 			page 38


 1920      3100
 1921              	.LASF51:
 1922 02d8 52455345 		.ascii	"RESERVED2\000"
 1922      52564544 
 1922      3200
 1923              	.LASF52:
 1924 02e2 52455345 		.ascii	"RESERVED3\000"
 1924      52564544 
 1924      3300
 1925              	.LASF53:
 1926 02ec 52455345 		.ascii	"RESERVED4\000"
 1926      52564544 
 1926      3400
 1927              	.LASF36:
 1928 02f6 73745F73 		.ascii	"st_spare1\000"
 1928      70617265 
 1928      3100
 1929              	.LASF56:
 1930 0300 52455345 		.ascii	"RESERVED6\000"
 1930      52564544 
 1930      3600
 1931              	.LASF40:
 1932 030a 73745F73 		.ascii	"st_spare3\000"
 1932      70617265 
 1932      3300
 1933              	.LASF43:
 1934 0314 73745F73 		.ascii	"st_spare4\000"
 1934      70617265 
 1934      3400
 1935              	.LASF68:
 1936 031e 5F6C7365 		.ascii	"_lseek\000"
 1936      656B00
 1937              	.LASF7:
 1938 0325 5F5F7569 		.ascii	"__uint32_t\000"
 1938      6E743332 
 1938      5F7400
 1939              	.LASF75:
 1940 0330 55534152 		.ascii	"USART_GetFlagStatus\000"
 1940      545F4765 
 1940      74466C61 
 1940      67537461 
 1940      74757300 
 1941              	.LASF13:
 1942 0344 5F5F6465 		.ascii	"__dev_t\000"
 1942      765F7400 
 1943              	.LASF5:
 1944 034c 5F5F696E 		.ascii	"__int32_t\000"
 1944      7433325F 
 1944      7400
 1945              	.LASF47:
 1946 0356 52455345 		.ascii	"RESET\000"
 1946      5400
 1947              	.LASF14:
 1948 035c 5F5F7569 		.ascii	"__uid_t\000"
 1948      645F7400 
 1949              	.LASF79:
 1950 0364 73746174 		.ascii	"stat\000"
ARM GAS  C:\Users\tom\AppData\Local\Temp\cc1RnbFl.s 			page 39


 1950      00
 1951              	.LASF29:
 1952 0369 73745F6D 		.ascii	"st_mode\000"
 1952      6F646500 
 1953              	.LASF72:
 1954 0371 49544D5F 		.ascii	"ITM_RxBuffer\000"
 1954      52784275 
 1954      66666572 
 1954      00
 1955              	.LASF48:
 1956 037e 466C6167 		.ascii	"FlagStatus\000"
 1956      53746174 
 1956      757300
 1957              	.LASF9:
 1958 0389 6C6F6E67 		.ascii	"long long int\000"
 1958      206C6F6E 
 1958      6720696E 
 1958      7400
 1959              	.LASF15:
 1960 0397 5F5F6769 		.ascii	"__gid_t\000"
 1960      645F7400 
 1961              	.LASF60:
 1962 039f 704F6C64 		.ascii	"pOldHeapEnd\000"
 1962      48656170 
 1962      456E6400 
 1963              		.ident	"GCC: (GNU Tools for ARM Embedded Processors) 4.9.3 20150303 (release) [ARM/embedded-4_9-br
ARM GAS  C:\Users\tom\AppData\Local\Temp\cc1RnbFl.s 			page 40


DEFINED SYMBOLS
                            *ABS*:00000000 syscall.c
C:\Users\tom\AppData\Local\Temp\cc1RnbFl.s:19     .text._sbrk:00000000 $t
C:\Users\tom\AppData\Local\Temp\cc1RnbFl.s:24     .text._sbrk:00000000 _sbrk
C:\Users\tom\AppData\Local\Temp\cc1RnbFl.s:61     .text._sbrk:00000020 $d
C:\Users\tom\AppData\Local\Temp\cc1RnbFl.s:67     .text.link:00000000 $t
C:\Users\tom\AppData\Local\Temp\cc1RnbFl.s:72     .text.link:00000000 link
C:\Users\tom\AppData\Local\Temp\cc1RnbFl.s:88     .text._close:00000000 $t
C:\Users\tom\AppData\Local\Temp\cc1RnbFl.s:93     .text._close:00000000 _close
C:\Users\tom\AppData\Local\Temp\cc1RnbFl.s:109    .text._fstat:00000000 $t
C:\Users\tom\AppData\Local\Temp\cc1RnbFl.s:114    .text._fstat:00000000 _fstat
C:\Users\tom\AppData\Local\Temp\cc1RnbFl.s:133    .text._isatty:00000000 $t
C:\Users\tom\AppData\Local\Temp\cc1RnbFl.s:138    .text._isatty:00000000 _isatty
C:\Users\tom\AppData\Local\Temp\cc1RnbFl.s:154    .text._lseek:00000000 $t
C:\Users\tom\AppData\Local\Temp\cc1RnbFl.s:159    .text._lseek:00000000 _lseek
C:\Users\tom\AppData\Local\Temp\cc1RnbFl.s:175    .text._read:00000000 $t
C:\Users\tom\AppData\Local\Temp\cc1RnbFl.s:180    .text._read:00000000 _read
C:\Users\tom\AppData\Local\Temp\cc1RnbFl.s:196    .text.abort:00000000 $t
C:\Users\tom\AppData\Local\Temp\cc1RnbFl.s:201    .text.abort:00000000 abort
C:\Users\tom\AppData\Local\Temp\cc1RnbFl.s:216    .text._write:00000000 $t
C:\Users\tom\AppData\Local\Temp\cc1RnbFl.s:221    .text._write:00000000 _write
C:\Users\tom\AppData\Local\Temp\cc1RnbFl.s:271    .text._write:0000002c $d
C:\Users\tom\AppData\Local\Temp\cc1RnbFl.s:276    .bss.s_pHeapEnd.8188:00000000 $d
C:\Users\tom\AppData\Local\Temp\cc1RnbFl.s:280    .bss.s_pHeapEnd.8188:00000000 s_pHeapEnd.8188
                     .debug_frame:00000010 $d

UNDEFINED SYMBOLS
_end
USART_SendData
USART_GetFlagStatus
