ARM GAS  C:\Users\tom\AppData\Local\Temp\ccJqqk6r.s 			page 1


   1              		.syntax unified
   2              		.cpu cortex-m3
   3              		.fpu softvfp
   4              		.eabi_attribute 20, 1
   5              		.eabi_attribute 21, 1
   6              		.eabi_attribute 23, 3
   7              		.eabi_attribute 24, 1
   8              		.eabi_attribute 25, 1
   9              		.eabi_attribute 26, 1
  10              		.eabi_attribute 30, 4
  11              		.eabi_attribute 34, 1
  12              		.eabi_attribute 18, 4
  13              		.thumb
  14              		.file	"adc_f1.c"
  15              		.text
  16              	.Ltext0:
  17              		.cfi_sections	.debug_frame
  18              		.section	.text.ADC_GetResult,"ax",%progbits
  19              		.align	1
  20              		.global	ADC_GetResult
  21              		.thumb
  22              		.thumb_func
  23              		.type	ADC_GetResult, %function
  24              	ADC_GetResult:
  25              	.LFB56:
  26              		.file 1 "hw/adc_f1.c"
   1:hw/adc_f1.c   **** #include <stdio.h>
   2:hw/adc_f1.c   **** #include <stdlib.h>
   3:hw/adc_f1.c   **** #include <math.h>
   4:hw/adc_f1.c   **** #include "misc.h"
   5:hw/adc_f1.c   **** #include "string.h"
   6:hw/adc_f1.c   **** #include "adc_f1.h"
   7:hw/adc_f1.c   **** #include "usart_f1.h"
   8:hw/adc_f1.c   **** 
   9:hw/adc_f1.c   **** #define MAX_CJR_SAMPLES 64
  10:hw/adc_f1.c   **** 
  11:hw/adc_f1.c   **** static struct {
  12:hw/adc_f1.c   ****     unsigned short cjr_buffer[MAX_CJR_SAMPLES];
  13:hw/adc_f1.c   ****     ADC_Result_t result;
  14:hw/adc_f1.c   **** } g = { {0}, {0}};
  15:hw/adc_f1.c   **** 
  16:hw/adc_f1.c   **** ADC_Result_t* ADC_GetResult(void)
  17:hw/adc_f1.c   **** {
  27              		.loc 1 17 0
  28              		.cfi_startproc
  29              		@ args = 0, pretend = 0, frame = 0
  30              		@ frame_needed = 0, uses_anonymous_args = 0
  31              		@ link register save eliminated.
  18:hw/adc_f1.c   ****     return &(g.result);
  19:hw/adc_f1.c   **** }
  32              		.loc 1 19 0
  33 0000 0048     		ldr	r0, .L2
  34 0002 7047     		bx	lr
  35              	.L3:
  36              		.align	2
  37              	.L2:
  38 0004 80000000 		.word	.LANCHOR0+128
ARM GAS  C:\Users\tom\AppData\Local\Temp\ccJqqk6r.s 			page 2


  39              		.cfi_endproc
  40              	.LFE56:
  41              		.size	ADC_GetResult, .-ADC_GetResult
  42              		.section	.text.ADC_Config,"ax",%progbits
  43              		.align	1
  44              		.global	ADC_Config
  45              		.thumb
  46              		.thumb_func
  47              		.type	ADC_Config, %function
  48              	ADC_Config:
  49              	.LFB57:
  20:hw/adc_f1.c   **** 
  21:hw/adc_f1.c   **** void ADC_Config(void)
  22:hw/adc_f1.c   **** {
  50              		.loc 1 22 0
  51              		.cfi_startproc
  52              		@ args = 0, pretend = 0, frame = 72
  53              		@ frame_needed = 0, uses_anonymous_args = 0
  54 0000 30B5     		push	{r4, r5, lr}
  55              	.LCFI0:
  56              		.cfi_def_cfa_offset 12
  57              		.cfi_offset 4, -12
  58              		.cfi_offset 5, -8
  59              		.cfi_offset 14, -4
  23:hw/adc_f1.c   ****     RCC_APB2PeriphClockCmd(RCC_APB2Periph_GPIOA, ENABLE);
  60              		.loc 1 23 0
  61 0002 0420     		movs	r0, #4
  22:hw/adc_f1.c   ****     RCC_APB2PeriphClockCmd(RCC_APB2Periph_GPIOA, ENABLE);
  62              		.loc 1 22 0
  63 0004 93B0     		sub	sp, sp, #76
  64              	.LCFI1:
  65              		.cfi_def_cfa_offset 88
  66              		.loc 1 23 0
  67 0006 0121     		movs	r1, #1
  68 0008 FFF7FEFF 		bl	RCC_APB2PeriphClockCmd
  69              	.LVL0:
  24:hw/adc_f1.c   ****     RCC_APB2PeriphClockCmd(RCC_APB2Periph_ADC1 | RCC_APB2Periph_AFIO, ENABLE);
  70              		.loc 1 24 0
  71 000c 40F20120 		movw	r0, #513
  72 0010 0121     		movs	r1, #1
  73 0012 FFF7FEFF 		bl	RCC_APB2PeriphClockCmd
  74              	.LVL1:
  25:hw/adc_f1.c   ****     RCC_AHBPeriphClockCmd(RCC_AHBPeriph_DMA1, ENABLE);
  75              		.loc 1 25 0
  76 0016 0120     		movs	r0, #1
  77 0018 0146     		mov	r1, r0
  78 001a FFF7FEFF 		bl	RCC_AHBPeriphClockCmd
  79              	.LVL2:
  26:hw/adc_f1.c   **** 
  27:hw/adc_f1.c   ****     GPIO_InitTypeDef GPIO_InitStructure;
  28:hw/adc_f1.c   ****     NVIC_InitTypeDef NVIC_InitStructure;
  29:hw/adc_f1.c   ****     DMA_InitTypeDef DMA_InitStructure;
  30:hw/adc_f1.c   ****     ADC_InitTypeDef ADC_InitStructure;
  31:hw/adc_f1.c   **** 
  32:hw/adc_f1.c   ****     GPIO_StructInit(&GPIO_InitStructure);
  80              		.loc 1 32 0
  81 001e 6846     		mov	r0, sp
ARM GAS  C:\Users\tom\AppData\Local\Temp\ccJqqk6r.s 			page 3


  82 0020 FFF7FEFF 		bl	GPIO_StructInit
  83              	.LVL3:
  33:hw/adc_f1.c   **** 
  34:hw/adc_f1.c   ****     // Internal ADC for CJR
  35:hw/adc_f1.c   ****     GPIO_InitStructure.GPIO_Pin = GPIO_Pin_2 | GPIO_Pin_7;
  84              		.loc 1 35 0
  85 0024 8423     		movs	r3, #132
  36:hw/adc_f1.c   ****     GPIO_InitStructure.GPIO_Mode = GPIO_Mode_AIN;
  86              		.loc 1 36 0
  87 0026 0025     		movs	r5, #0
  37:hw/adc_f1.c   ****     GPIO_InitStructure.GPIO_Speed = GPIO_Speed_50MHz;
  38:hw/adc_f1.c   ****     GPIO_Init(GPIOA, &GPIO_InitStructure);
  88              		.loc 1 38 0
  89 0028 6946     		mov	r1, sp
  35:hw/adc_f1.c   ****     GPIO_InitStructure.GPIO_Mode = GPIO_Mode_AIN;
  90              		.loc 1 35 0
  91 002a ADF80030 		strh	r3, [sp]	@ movhi
  92              		.loc 1 38 0
  93 002e 4348     		ldr	r0, .L10
  37:hw/adc_f1.c   ****     GPIO_InitStructure.GPIO_Speed = GPIO_Speed_50MHz;
  94              		.loc 1 37 0
  95 0030 0323     		movs	r3, #3
  39:hw/adc_f1.c   **** 
  40:hw/adc_f1.c   ****     NVIC_InitStructure.NVIC_IRQChannel = DMA1_Channel1_IRQn;
  41:hw/adc_f1.c   ****     NVIC_InitStructure.NVIC_IRQChannelPreemptionPriority = 1;
  96              		.loc 1 41 0
  97 0032 0124     		movs	r4, #1
  36:hw/adc_f1.c   ****     GPIO_InitStructure.GPIO_Speed = GPIO_Speed_50MHz;
  98              		.loc 1 36 0
  99 0034 8DF80350 		strb	r5, [sp, #3]
  37:hw/adc_f1.c   ****     GPIO_Init(GPIOA, &GPIO_InitStructure);
 100              		.loc 1 37 0
 101 0038 8DF80230 		strb	r3, [sp, #2]
  38:hw/adc_f1.c   **** 
 102              		.loc 1 38 0
 103 003c FFF7FEFF 		bl	GPIO_Init
 104              	.LVL4:
  40:hw/adc_f1.c   ****     NVIC_InitStructure.NVIC_IRQChannelPreemptionPriority = 1;
 105              		.loc 1 40 0
 106 0040 0B23     		movs	r3, #11
  42:hw/adc_f1.c   ****     NVIC_InitStructure.NVIC_IRQChannelSubPriority = 1;
  43:hw/adc_f1.c   ****     NVIC_InitStructure.NVIC_IRQChannelCmd = ENABLE;
  44:hw/adc_f1.c   ****     NVIC_Init(&NVIC_InitStructure);
 107              		.loc 1 44 0
 108 0042 01A8     		add	r0, sp, #4
  40:hw/adc_f1.c   ****     NVIC_InitStructure.NVIC_IRQChannelPreemptionPriority = 1;
 109              		.loc 1 40 0
 110 0044 8DF80430 		strb	r3, [sp, #4]
  41:hw/adc_f1.c   ****     NVIC_InitStructure.NVIC_IRQChannelSubPriority = 1;
 111              		.loc 1 41 0
 112 0048 8DF80540 		strb	r4, [sp, #5]
  42:hw/adc_f1.c   ****     NVIC_InitStructure.NVIC_IRQChannelSubPriority = 1;
 113              		.loc 1 42 0
 114 004c 8DF80640 		strb	r4, [sp, #6]
  43:hw/adc_f1.c   ****     NVIC_Init(&NVIC_InitStructure);
 115              		.loc 1 43 0
 116 0050 8DF80740 		strb	r4, [sp, #7]
ARM GAS  C:\Users\tom\AppData\Local\Temp\ccJqqk6r.s 			page 4


 117              		.loc 1 44 0
 118 0054 FFF7FEFF 		bl	NVIC_Init
 119              	.LVL5:
  45:hw/adc_f1.c   ****     DMA_DeInit(DMA1_Channel1);
 120              		.loc 1 45 0
 121 0058 3948     		ldr	r0, .L10+4
 122 005a FFF7FEFF 		bl	DMA_DeInit
 123              	.LVL6:
  46:hw/adc_f1.c   **** 
  47:hw/adc_f1.c   ****     // 默认: 外设基址0, 内存基址0, 方向为外设源, 缓存大小0, 缓存自增disable
  48:hw/adc_f1.c   ****     // 内存自增disable, 外设数据大小byte, 内存数据大小byte, 模式normal
  49:hw/adc_f1.c   ****     // 优先级low, 内存到内存disable
  50:hw/adc_f1.c   ****     DMA_StructInit(&DMA_InitStructure);
 124              		.loc 1 50 0
 125 005e 07A8     		add	r0, sp, #28
 126 0060 FFF7FEFF 		bl	DMA_StructInit
 127              	.LVL7:
  51:hw/adc_f1.c   ****     DMA_InitStructure.DMA_PeripheralBaseAddr = (u32) & (ADC1->DR);
 128              		.loc 1 51 0
 129 0064 374B     		ldr	r3, .L10+8
  52:hw/adc_f1.c   ****     DMA_InitStructure.DMA_MemoryBaseAddr = (u32)(g.cjr_buffer);
  53:hw/adc_f1.c   ****     DMA_InitStructure.DMA_DIR = DMA_DIR_PeripheralSRC;
  54:hw/adc_f1.c   ****     DMA_InitStructure.DMA_BufferSize = MAX_CJR_SAMPLES;
  55:hw/adc_f1.c   ****     DMA_InitStructure.DMA_PeripheralInc = DMA_PeripheralInc_Disable;
  56:hw/adc_f1.c   ****     DMA_InitStructure.DMA_MemoryInc = DMA_MemoryInc_Enable;
  57:hw/adc_f1.c   ****     DMA_InitStructure.DMA_PeripheralDataSize = DMA_PeripheralDataSize_HalfWord;
  58:hw/adc_f1.c   ****     DMA_InitStructure.DMA_MemoryDataSize = DMA_MemoryDataSize_HalfWord;
  59:hw/adc_f1.c   ****     DMA_InitStructure.DMA_Mode = DMA_Mode_Circular;
  60:hw/adc_f1.c   ****     DMA_InitStructure.DMA_Priority = DMA_Priority_High;
  61:hw/adc_f1.c   ****     DMA_InitStructure.DMA_M2M = DMA_M2M_Disable;
  62:hw/adc_f1.c   ****     DMA_Init(DMA1_Channel1, &DMA_InitStructure);
 130              		.loc 1 62 0
 131 0066 3648     		ldr	r0, .L10+4
  51:hw/adc_f1.c   ****     DMA_InitStructure.DMA_PeripheralBaseAddr = (u32) & (ADC1->DR);
 132              		.loc 1 51 0
 133 0068 0793     		str	r3, [sp, #28]
  52:hw/adc_f1.c   ****     DMA_InitStructure.DMA_MemoryBaseAddr = (u32)(g.cjr_buffer);
 134              		.loc 1 52 0
 135 006a 374B     		ldr	r3, .L10+12
 136              		.loc 1 62 0
 137 006c 07A9     		add	r1, sp, #28
  52:hw/adc_f1.c   ****     DMA_InitStructure.DMA_MemoryBaseAddr = (u32)(g.cjr_buffer);
 138              		.loc 1 52 0
 139 006e 0893     		str	r3, [sp, #32]
  54:hw/adc_f1.c   ****     DMA_InitStructure.DMA_PeripheralInc = DMA_PeripheralInc_Disable;
 140              		.loc 1 54 0
 141 0070 4023     		movs	r3, #64
 142 0072 0A93     		str	r3, [sp, #40]
  56:hw/adc_f1.c   ****     DMA_InitStructure.DMA_PeripheralDataSize = DMA_PeripheralDataSize_HalfWord;
 143              		.loc 1 56 0
 144 0074 8023     		movs	r3, #128
 145 0076 0C93     		str	r3, [sp, #48]
  57:hw/adc_f1.c   ****     DMA_InitStructure.DMA_MemoryDataSize = DMA_MemoryDataSize_HalfWord;
 146              		.loc 1 57 0
 147 0078 4FF48073 		mov	r3, #256
 148 007c 0D93     		str	r3, [sp, #52]
  58:hw/adc_f1.c   ****     DMA_InitStructure.DMA_Mode = DMA_Mode_Circular;
ARM GAS  C:\Users\tom\AppData\Local\Temp\ccJqqk6r.s 			page 5


 149              		.loc 1 58 0
 150 007e 4FF48063 		mov	r3, #1024
 151 0082 0E93     		str	r3, [sp, #56]
  59:hw/adc_f1.c   ****     DMA_InitStructure.DMA_Priority = DMA_Priority_High;
 152              		.loc 1 59 0
 153 0084 2023     		movs	r3, #32
 154 0086 0F93     		str	r3, [sp, #60]
  60:hw/adc_f1.c   ****     DMA_InitStructure.DMA_M2M = DMA_M2M_Disable;
 155              		.loc 1 60 0
 156 0088 4FF40053 		mov	r3, #8192
 157 008c 1093     		str	r3, [sp, #64]
  53:hw/adc_f1.c   ****     DMA_InitStructure.DMA_BufferSize = MAX_CJR_SAMPLES;
 158              		.loc 1 53 0
 159 008e 0995     		str	r5, [sp, #36]
  55:hw/adc_f1.c   ****     DMA_InitStructure.DMA_MemoryInc = DMA_MemoryInc_Enable;
 160              		.loc 1 55 0
 161 0090 0B95     		str	r5, [sp, #44]
  61:hw/adc_f1.c   ****     DMA_Init(DMA1_Channel1, &DMA_InitStructure);
 162              		.loc 1 61 0
 163 0092 1195     		str	r5, [sp, #68]
 164              		.loc 1 62 0
 165 0094 FFF7FEFF 		bl	DMA_Init
 166              	.LVL8:
  63:hw/adc_f1.c   ****     DMA_ITConfig(DMA1_Channel1, DMA_IT_TC, ENABLE);
 167              		.loc 1 63 0
 168 0098 2246     		mov	r2, r4
 169 009a 0221     		movs	r1, #2
 170 009c 2848     		ldr	r0, .L10+4
 171 009e FFF7FEFF 		bl	DMA_ITConfig
 172              	.LVL9:
  64:hw/adc_f1.c   ****     DMA_ClearITPendingBit(DMA_IT_TC);
 173              		.loc 1 64 0
 174 00a2 0220     		movs	r0, #2
 175 00a4 FFF7FEFF 		bl	DMA_ClearITPendingBit
 176              	.LVL10:
  65:hw/adc_f1.c   ****     DMA_Cmd(DMA1_Channel1, ENABLE);
 177              		.loc 1 65 0
 178 00a8 2146     		mov	r1, r4
 179 00aa 2548     		ldr	r0, .L10+4
 180 00ac FFF7FEFF 		bl	DMA_Cmd
 181              	.LVL11:
  66:hw/adc_f1.c   ****     ADC_DeInit(ADC1);
 182              		.loc 1 66 0
 183 00b0 2648     		ldr	r0, .L10+16
 184 00b2 FFF7FEFF 		bl	ADC_DeInit
 185              	.LVL12:
  67:hw/adc_f1.c   **** 
  68:hw/adc_f1.c   ****     RCC_ADCCLKConfig(RCC_PCLK2_Div2);
 186              		.loc 1 68 0
 187 00b6 2846     		mov	r0, r5
 188 00b8 FFF7FEFF 		bl	RCC_ADCCLKConfig
 189              	.LVL13:
  69:hw/adc_f1.c   ****     ADC_StructInit(&ADC_InitStructure);
 190              		.loc 1 69 0
 191 00bc 02A8     		add	r0, sp, #8
 192 00be FFF7FEFF 		bl	ADC_StructInit
 193              	.LVL14:
ARM GAS  C:\Users\tom\AppData\Local\Temp\ccJqqk6r.s 			page 6


  70:hw/adc_f1.c   ****     ADC_DeInit(ADC1);
 194              		.loc 1 70 0
 195 00c2 2248     		ldr	r0, .L10+16
 196 00c4 FFF7FEFF 		bl	ADC_DeInit
 197              	.LVL15:
  71:hw/adc_f1.c   **** 
  72:hw/adc_f1.c   ****     ADC_InitStructure.ADC_Mode = ADC_Mode_Independent;
  73:hw/adc_f1.c   ****     ADC_InitStructure.ADC_ScanConvMode = ENABLE;
  74:hw/adc_f1.c   ****     ADC_InitStructure.ADC_ContinuousConvMode = ENABLE;
  75:hw/adc_f1.c   ****     ADC_InitStructure.ADC_ExternalTrigConv = ADC_ExternalTrigConv_None;
 198              		.loc 1 75 0
 199 00c8 4FF46023 		mov	r3, #917504
  72:hw/adc_f1.c   ****     ADC_InitStructure.ADC_ScanConvMode = ENABLE;
 200              		.loc 1 72 0
 201 00cc 0295     		str	r5, [sp, #8]
  76:hw/adc_f1.c   ****     ADC_InitStructure.ADC_DataAlign = ADC_DataAlign_Right;
 202              		.loc 1 76 0
 203 00ce 0595     		str	r5, [sp, #20]
  77:hw/adc_f1.c   ****     ADC_InitStructure.ADC_NbrOfChannel = 2;
  78:hw/adc_f1.c   ****     ADC_Init(ADC1, &ADC_InitStructure);
 204              		.loc 1 78 0
 205 00d0 1E48     		ldr	r0, .L10+16
  77:hw/adc_f1.c   ****     ADC_InitStructure.ADC_NbrOfChannel = 2;
 206              		.loc 1 77 0
 207 00d2 0225     		movs	r5, #2
 208              		.loc 1 78 0
 209 00d4 02A9     		add	r1, sp, #8
  75:hw/adc_f1.c   ****     ADC_InitStructure.ADC_DataAlign = ADC_DataAlign_Right;
 210              		.loc 1 75 0
 211 00d6 0493     		str	r3, [sp, #16]
  73:hw/adc_f1.c   ****     ADC_InitStructure.ADC_ContinuousConvMode = ENABLE;
 212              		.loc 1 73 0
 213 00d8 8DF80C40 		strb	r4, [sp, #12]
  74:hw/adc_f1.c   ****     ADC_InitStructure.ADC_ExternalTrigConv = ADC_ExternalTrigConv_None;
 214              		.loc 1 74 0
 215 00dc 8DF80D40 		strb	r4, [sp, #13]
  77:hw/adc_f1.c   ****     ADC_Init(ADC1, &ADC_InitStructure);
 216              		.loc 1 77 0
 217 00e0 8DF81850 		strb	r5, [sp, #24]
 218              		.loc 1 78 0
 219 00e4 FFF7FEFF 		bl	ADC_Init
 220              	.LVL16:
  79:hw/adc_f1.c   **** 
  80:hw/adc_f1.c   ****     ADC_RegularChannelConfig(ADC1, ADC_Channel_2, 1, ADC_SampleTime_239Cycles5);
 221              		.loc 1 80 0
 222 00e8 1848     		ldr	r0, .L10+16
 223 00ea 2946     		mov	r1, r5
 224 00ec 2246     		mov	r2, r4
 225 00ee 0723     		movs	r3, #7
 226 00f0 FFF7FEFF 		bl	ADC_RegularChannelConfig
 227              	.LVL17:
  81:hw/adc_f1.c   ****     ADC_RegularChannelConfig(ADC1, ADC_Channel_7, 2, ADC_SampleTime_239Cycles5);
 228              		.loc 1 81 0
 229 00f4 0721     		movs	r1, #7
 230 00f6 0B46     		mov	r3, r1
 231 00f8 2A46     		mov	r2, r5
 232 00fa 1448     		ldr	r0, .L10+16
ARM GAS  C:\Users\tom\AppData\Local\Temp\ccJqqk6r.s 			page 7


 233 00fc FFF7FEFF 		bl	ADC_RegularChannelConfig
 234              	.LVL18:
  82:hw/adc_f1.c   ****     ADC_ResetCalibration(ADC1);
 235              		.loc 1 82 0
 236 0100 1248     		ldr	r0, .L10+16
 237 0102 FFF7FEFF 		bl	ADC_ResetCalibration
 238              	.LVL19:
  83:hw/adc_f1.c   ****     ADC_DMACmd(ADC1, ENABLE);
 239              		.loc 1 83 0
 240 0106 1148     		ldr	r0, .L10+16
 241 0108 2146     		mov	r1, r4
 242 010a FFF7FEFF 		bl	ADC_DMACmd
 243              	.LVL20:
  84:hw/adc_f1.c   ****     ADC_Cmd(ADC1, ENABLE);
 244              		.loc 1 84 0
 245 010e 0F48     		ldr	r0, .L10+16
 246 0110 2146     		mov	r1, r4
 247 0112 FFF7FEFF 		bl	ADC_Cmd
 248              	.LVL21:
 249              	.L5:
  85:hw/adc_f1.c   **** 
  86:hw/adc_f1.c   ****     ( {  while(ADC_GetResetCalibrationStatus(ADC1));});
 250              		.loc 1 86 0 discriminator 1
 251 0116 0D48     		ldr	r0, .L10+16
 252 0118 FFF7FEFF 		bl	ADC_GetResetCalibrationStatus
 253              	.LVL22:
 254 011c 0028     		cmp	r0, #0
 255 011e FAD1     		bne	.L5
  87:hw/adc_f1.c   ****     ADC_StartCalibration(ADC1);
 256              		.loc 1 87 0
 257 0120 0A48     		ldr	r0, .L10+16
 258 0122 FFF7FEFF 		bl	ADC_StartCalibration
 259              	.LVL23:
 260              	.L6:
  88:hw/adc_f1.c   ****     ( {  while(ADC_GetCalibrationStatus(ADC1));});
 261              		.loc 1 88 0 discriminator 1
 262 0126 0948     		ldr	r0, .L10+16
 263 0128 FFF7FEFF 		bl	ADC_GetCalibrationStatus
 264              	.LVL24:
 265 012c 0028     		cmp	r0, #0
 266 012e FAD1     		bne	.L6
  89:hw/adc_f1.c   ****     ADC_SoftwareStartConvCmd(ADC1, ENABLE);
 267              		.loc 1 89 0
 268 0130 0648     		ldr	r0, .L10+16
 269 0132 0121     		movs	r1, #1
 270 0134 FFF7FEFF 		bl	ADC_SoftwareStartConvCmd
 271              	.LVL25:
  90:hw/adc_f1.c   **** }
 272              		.loc 1 90 0
 273 0138 13B0     		add	sp, sp, #76
 274              	.LCFI2:
 275              		.cfi_def_cfa_offset 12
 276              		@ sp needed
 277 013a 30BD     		pop	{r4, r5, pc}
 278              	.L11:
 279              		.align	2
 280              	.L10:
ARM GAS  C:\Users\tom\AppData\Local\Temp\ccJqqk6r.s 			page 8


 281 013c 00080140 		.word	1073809408
 282 0140 08000240 		.word	1073872904
 283 0144 4C240140 		.word	1073816652
 284 0148 00000000 		.word	.LANCHOR0
 285 014c 00240140 		.word	1073816576
 286              		.cfi_endproc
 287              	.LFE57:
 288              		.size	ADC_Config, .-ADC_Config
 289              		.global	__aeabi_i2f
 290              		.global	__aeabi_fadd
 291              		.global	__aeabi_fdiv
 292              		.global	__aeabi_fmul
 293              		.section	.text.ADCDMA_Conv_Complete_IRQHandler,"ax",%progbits
 294              		.align	1
 295              		.global	ADCDMA_Conv_Complete_IRQHandler
 296              		.thumb
 297              		.thumb_func
 298              		.type	ADCDMA_Conv_Complete_IRQHandler, %function
 299              	ADCDMA_Conv_Complete_IRQHandler:
 300              	.LFB58:
  91:hw/adc_f1.c   **** 
  92:hw/adc_f1.c   **** void ADCDMA_Conv_Complete_IRQHandler(void)
  93:hw/adc_f1.c   **** {
 301              		.loc 1 93 0
 302              		.cfi_startproc
 303              		@ args = 0, pretend = 0, frame = 0
 304              		@ frame_needed = 0, uses_anonymous_args = 0
 305              	.LVL26:
 306 0000 2DE9F843 		push	{r3, r4, r5, r6, r7, r8, r9, lr}
 307              	.LCFI3:
 308              		.cfi_def_cfa_offset 32
 309              		.cfi_offset 3, -32
 310              		.cfi_offset 4, -28
 311              		.cfi_offset 5, -24
 312              		.cfi_offset 6, -20
 313              		.cfi_offset 7, -16
 314              		.cfi_offset 8, -12
 315              		.cfi_offset 9, -8
 316              		.cfi_offset 14, -4
 317 0004 1C4A     		ldr	r2, .L16
 318 0006 1D4B     		ldr	r3, .L16+4
 319 0008 1746     		mov	r7, r2
 320 000a 1E46     		mov	r6, r3
 321 000c 1568     		ldr	r5, [r2]	@ float
 322 000e D3F80090 		ldr	r9, [r3]	@ float
 323              		.loc 1 93 0
 324 0012 0024     		movs	r4, #0
 325              	.LVL27:
 326              	.L13:
 327              	.LBB2:
  94:hw/adc_f1.c   ****     static float sum_ref = 0, sum_volt = 0;
  95:hw/adc_f1.c   ****     static int count = 0;
  96:hw/adc_f1.c   ****     for(int i = 0; i < MAX_CJR_SAMPLES; i += 2) {
  97:hw/adc_f1.c   ****         sum_ref += g.cjr_buffer[i];
 328              		.loc 1 97 0 discriminator 3
 329 0014 DFF87080 		ldr	r8, .L16+16
 330 0018 38F80400 		ldrh	r0, [r8, r4]
ARM GAS  C:\Users\tom\AppData\Local\Temp\ccJqqk6r.s 			page 9


 331 001c FFF7FEFF 		bl	__aeabi_i2f
 332              	.LVL28:
 333 0020 0146     		mov	r1, r0
 334 0022 2846     		mov	r0, r5
 335 0024 FFF7FEFF 		bl	__aeabi_fadd
 336              	.LVL29:
 337 0028 08EB0403 		add	r3, r8, r4
 338 002c 0546     		mov	r5, r0
  98:hw/adc_f1.c   ****         sum_volt += g.cjr_buffer[i + 1];
 339              		.loc 1 98 0 discriminator 3
 340 002e 5888     		ldrh	r0, [r3, #2]
 341 0030 FFF7FEFF 		bl	__aeabi_i2f
 342              	.LVL30:
 343 0034 0146     		mov	r1, r0
 344 0036 4846     		mov	r0, r9
 345 0038 FFF7FEFF 		bl	__aeabi_fadd
 346              	.LVL31:
 347 003c 0434     		adds	r4, r4, #4
  96:hw/adc_f1.c   ****         sum_ref += g.cjr_buffer[i];
 348              		.loc 1 96 0 discriminator 3
 349 003e 802C     		cmp	r4, #128
 350              		.loc 1 98 0 discriminator 3
 351 0040 8146     		mov	r9, r0
  96:hw/adc_f1.c   ****         sum_ref += g.cjr_buffer[i];
 352              		.loc 1 96 0 discriminator 3
 353 0042 E7D1     		bne	.L13
 354              	.LBE2:
  99:hw/adc_f1.c   ****     }
 100:hw/adc_f1.c   ****     count++;
 355              		.loc 1 100 0
 356 0044 0E4C     		ldr	r4, .L16+8
 357 0046 3D60     		str	r5, [r7]	@ float
 358 0048 2368     		ldr	r3, [r4]
 359 004a 3060     		str	r0, [r6]	@ float
 360 004c 0133     		adds	r3, r3, #1
 101:hw/adc_f1.c   ****     if(count == 100) {
 361              		.loc 1 101 0
 362 004e 642B     		cmp	r3, #100
 100:hw/adc_f1.c   ****     if(count == 100) {
 363              		.loc 1 100 0
 364 0050 2360     		str	r3, [r4]
 365              		.loc 1 101 0
 366 0052 0ED1     		bne	.L12
 102:hw/adc_f1.c   ****         g.result.volt = sum_volt / sum_ref * 2.5;
 367              		.loc 1 102 0
 368 0054 2946     		mov	r1, r5
 369 0056 FFF7FEFF 		bl	__aeabi_fdiv
 370              	.LVL32:
 371 005a 0A49     		ldr	r1, .L16+12
 372 005c FFF7FEFF 		bl	__aeabi_fmul
 373              	.LVL33:
 103:hw/adc_f1.c   ****         sum_ref = 0;
 374              		.loc 1 103 0
 375 0060 054A     		ldr	r2, .L16
 376 0062 0023     		movs	r3, #0
 377 0064 1360     		str	r3, [r2]	@ float
 104:hw/adc_f1.c   ****         sum_volt = 0;
ARM GAS  C:\Users\tom\AppData\Local\Temp\ccJqqk6r.s 			page 10


 378              		.loc 1 104 0
 379 0066 054A     		ldr	r2, .L16+4
 102:hw/adc_f1.c   ****         g.result.volt = sum_volt / sum_ref * 2.5;
 380              		.loc 1 102 0
 381 0068 C8F88000 		str	r0, [r8, #128]	@ float
 382              		.loc 1 104 0
 383 006c 1360     		str	r3, [r2]	@ float
 105:hw/adc_f1.c   ****         count = 0;
 384              		.loc 1 105 0
 385 006e 0023     		movs	r3, #0
 386 0070 2360     		str	r3, [r4]
 387              	.L12:
 388 0072 BDE8F883 		pop	{r3, r4, r5, r6, r7, r8, r9, pc}
 389              	.L17:
 390 0076 00BF     		.align	2
 391              	.L16:
 392 0078 00000000 		.word	.LANCHOR1
 393 007c 00000000 		.word	.LANCHOR2
 394 0080 00000000 		.word	.LANCHOR3
 395 0084 00002040 		.word	1075838976
 396 0088 00000000 		.word	.LANCHOR0
 397              		.cfi_endproc
 398              	.LFE58:
 399              		.size	ADCDMA_Conv_Complete_IRQHandler, .-ADCDMA_Conv_Complete_IRQHandler
 400              		.section	.bss.sum_volt.8760,"aw",%nobits
 401              		.align	2
 402              		.set	.LANCHOR2,. + 0
 403              		.type	sum_volt.8760, %object
 404              		.size	sum_volt.8760, 4
 405              	sum_volt.8760:
 406 0000 00000000 		.space	4
 407              		.section	.bss.sum_ref.8759,"aw",%nobits
 408              		.align	2
 409              		.set	.LANCHOR1,. + 0
 410              		.type	sum_ref.8759, %object
 411              		.size	sum_ref.8759, 4
 412              	sum_ref.8759:
 413 0000 00000000 		.space	4
 414              		.section	.bss.count.8761,"aw",%nobits
 415              		.align	2
 416              		.set	.LANCHOR3,. + 0
 417              		.type	count.8761, %object
 418              		.size	count.8761, 4
 419              	count.8761:
 420 0000 00000000 		.space	4
 421              		.section	.bss.g,"aw",%nobits
 422              		.align	2
 423              		.set	.LANCHOR0,. + 0
 424              		.type	g, %object
 425              		.size	g, 132
 426              	g:
 427 0000 00000000 		.space	132
 427      00000000 
 427      00000000 
 427      00000000 
 427      00000000 
 428              		.text
ARM GAS  C:\Users\tom\AppData\Local\Temp\ccJqqk6r.s 			page 11


 429              	.Letext0:
 430              		.file 2 "c:\\yagarto\\arm-none-eabi\\include\\machine\\_default_types.h"
 431              		.file 3 "c:\\yagarto\\arm-none-eabi\\include\\stdint.h"
 432              		.file 4 "c:/yagarto/cmsis_cm3_v361/_cmsis/stm32f10x.h"
 433              		.file 5 "c:/yagarto/cmsis_cm3_v361/_f10x_stdperiph_drv/inc/stm32f10x_adc.h"
 434              		.file 6 "c:/yagarto/cmsis_cm3_v361/_f10x_stdperiph_drv/inc/stm32f10x_dma.h"
 435              		.file 7 "c:/yagarto/cmsis_cm3_v361/_f10x_stdperiph_drv/inc/stm32f10x_gpio.h"
 436              		.file 8 "c:/yagarto/cmsis_cm3_v361/_f10x_stdperiph_drv/inc/misc.h"
 437              		.file 9 "hw/adc_f1.h"
 438              		.file 10 "c:/yagarto/cmsis_cm3_v361/_f10x_stdperiph_drv/inc/stm32f10x_rcc.h"
 439              		.file 11 "c:/yagarto/cmsis_cm3_v361/_cmsis/core_cm3.h"