ARM GAS  C:\Users\tom\AppData\Local\Temp\ccXxlWLv.s 			page 1


   1              		.syntax unified
   2              		.cpu cortex-m3
   3              		.fpu softvfp
   4              		.eabi_attribute 20, 1
   5              		.eabi_attribute 21, 1
   6              		.eabi_attribute 23, 3
   7              		.eabi_attribute 24, 1
   8              		.eabi_attribute 25, 1
   9              		.eabi_attribute 26, 1
  10              		.eabi_attribute 30, 4
  11              		.eabi_attribute 34, 1
  12              		.eabi_attribute 18, 4
  13              		.thumb
  14              		.file	"dac_f1.c"
  15              		.text
  16              	.Ltext0:
  17              		.cfi_sections	.debug_frame
  18              		.section	.text.DAC_Config,"ax",%progbits
  19              		.align	1
  20              		.global	DAC_Config
  21              		.thumb
  22              		.thumb_func
  23              		.type	DAC_Config, %function
  24              	DAC_Config:
  25              	.LFB56:
  26              		.file 1 "hw/dac_f1.c"
   1:hw/dac_f1.c   **** #include "misc.h"
   2:hw/dac_f1.c   **** #include <stdio.h>
   3:hw/dac_f1.c   **** 
   4:hw/dac_f1.c   **** void DAC_Config(void)
   5:hw/dac_f1.c   **** {
  27              		.loc 1 5 0
  28              		.cfi_startproc
  29              		@ args = 0, pretend = 0, frame = 24
  30              		@ frame_needed = 0, uses_anonymous_args = 0
  31 0000 70B5     		push	{r4, r5, r6, lr}
  32              	.LCFI0:
  33              		.cfi_def_cfa_offset 16
  34              		.cfi_offset 4, -16
  35              		.cfi_offset 5, -12
  36              		.cfi_offset 6, -8
  37              		.cfi_offset 14, -4
   6:hw/dac_f1.c   ****     RCC_APB1PeriphClockCmd(RCC_APB1Periph_DAC, ENABLE);
  38              		.loc 1 6 0
  39 0002 4FF00050 		mov	r0, #536870912
   5:hw/dac_f1.c   ****     RCC_APB1PeriphClockCmd(RCC_APB1Periph_DAC, ENABLE);
  40              		.loc 1 5 0
  41 0006 86B0     		sub	sp, sp, #24
  42              	.LCFI1:
  43              		.cfi_def_cfa_offset 40
  44              		.loc 1 6 0
  45 0008 0121     		movs	r1, #1
  46 000a FFF7FEFF 		bl	RCC_APB1PeriphClockCmd
  47              	.LVL0:
   7:hw/dac_f1.c   ****     RCC_APB2PeriphClockCmd(RCC_APB2Periph_GPIOA, ENABLE);
  48              		.loc 1 7 0
  49 000e 0420     		movs	r0, #4
ARM GAS  C:\Users\tom\AppData\Local\Temp\ccXxlWLv.s 			page 2


  50 0010 0121     		movs	r1, #1
  51 0012 FFF7FEFF 		bl	RCC_APB2PeriphClockCmd
  52              	.LVL1:
   8:hw/dac_f1.c   ****     RCC_APB2PeriphClockCmd(RCC_APB2Periph_GPIOB, ENABLE);
  53              		.loc 1 8 0
  54 0016 0121     		movs	r1, #1
  55 0018 0820     		movs	r0, #8
  56 001a FFF7FEFF 		bl	RCC_APB2PeriphClockCmd
  57              	.LVL2:
   9:hw/dac_f1.c   **** 
  10:hw/dac_f1.c   ****     GPIO_InitTypeDef GPIO_InitStructure;
  11:hw/dac_f1.c   ****     DAC_InitTypeDef DAC_InitStructure;
  12:hw/dac_f1.c   **** 
  13:hw/dac_f1.c   ****     GPIO_StructInit(&GPIO_InitStructure);
  58              		.loc 1 13 0
  59 001e 01A8     		add	r0, sp, #4
  60 0020 FFF7FEFF 		bl	GPIO_StructInit
  61              	.LVL3:
  14:hw/dac_f1.c   ****     // PA4 for sine wave
  15:hw/dac_f1.c   ****     GPIO_InitStructure.GPIO_Pin = GPIO_Pin_4;
  16:hw/dac_f1.c   ****     GPIO_InitStructure.GPIO_Mode = GPIO_Mode_AIN;
  62              		.loc 1 16 0
  63 0024 0024     		movs	r4, #0
  17:hw/dac_f1.c   ****     GPIO_InitStructure.GPIO_Speed = GPIO_Speed_2MHz;
  64              		.loc 1 17 0
  65 0026 0223     		movs	r3, #2
  15:hw/dac_f1.c   ****     GPIO_InitStructure.GPIO_Mode = GPIO_Mode_AIN;
  66              		.loc 1 15 0
  67 0028 1025     		movs	r5, #16
  18:hw/dac_f1.c   ****     GPIO_Init(GPIOA, &GPIO_InitStructure);
  68              		.loc 1 18 0
  69 002a 01A9     		add	r1, sp, #4
  70 002c 1248     		ldr	r0, .L2
  17:hw/dac_f1.c   ****     GPIO_InitStructure.GPIO_Speed = GPIO_Speed_2MHz;
  71              		.loc 1 17 0
  72 002e 8DF80630 		strb	r3, [sp, #6]
  15:hw/dac_f1.c   ****     GPIO_InitStructure.GPIO_Mode = GPIO_Mode_AIN;
  73              		.loc 1 15 0
  74 0032 ADF80450 		strh	r5, [sp, #4]	@ movhi
  16:hw/dac_f1.c   ****     GPIO_InitStructure.GPIO_Speed = GPIO_Speed_2MHz;
  75              		.loc 1 16 0
  76 0036 8DF80740 		strb	r4, [sp, #7]
  77              		.loc 1 18 0
  78 003a FFF7FEFF 		bl	GPIO_Init
  79              	.LVL4:
  19:hw/dac_f1.c   ****     GPIO_InitStructure.GPIO_Pin = GPIO_Pin_13 | GPIO_Pin_14 | GPIO_Pin_15;
  20:hw/dac_f1.c   ****     GPIO_InitStructure.GPIO_Mode = GPIO_Mode_Out_PP;
  80              		.loc 1 20 0
  81 003e 8DF80750 		strb	r5, [sp, #7]
  21:hw/dac_f1.c   ****     GPIO_Init(GPIOB, &GPIO_InitStructure);
  82              		.loc 1 21 0
  83 0042 0E4D     		ldr	r5, .L2+4
  84 0044 01A9     		add	r1, sp, #4
  19:hw/dac_f1.c   ****     GPIO_InitStructure.GPIO_Pin = GPIO_Pin_13 | GPIO_Pin_14 | GPIO_Pin_15;
  85              		.loc 1 19 0
  86 0046 4FF46046 		mov	r6, #57344
  87              		.loc 1 21 0
ARM GAS  C:\Users\tom\AppData\Local\Temp\ccXxlWLv.s 			page 3


  88 004a 2846     		mov	r0, r5
  19:hw/dac_f1.c   ****     GPIO_InitStructure.GPIO_Pin = GPIO_Pin_13 | GPIO_Pin_14 | GPIO_Pin_15;
  89              		.loc 1 19 0
  90 004c ADF80460 		strh	r6, [sp, #4]	@ movhi
  91              		.loc 1 21 0
  92 0050 FFF7FEFF 		bl	GPIO_Init
  93              	.LVL5:
  22:hw/dac_f1.c   ****     GPIOB->BRR = GPIO_Pin_13 | GPIO_Pin_14 | GPIO_Pin_15;
  23:hw/dac_f1.c   **** 
  24:hw/dac_f1.c   ****     DAC_StructInit(&DAC_InitStructure);
  94              		.loc 1 24 0
  95 0054 02A8     		add	r0, sp, #8
  22:hw/dac_f1.c   ****     GPIOB->BRR = GPIO_Pin_13 | GPIO_Pin_14 | GPIO_Pin_15;
  96              		.loc 1 22 0
  97 0056 6E61     		str	r6, [r5, #20]
  98              		.loc 1 24 0
  99 0058 FFF7FEFF 		bl	DAC_StructInit
 100              	.LVL6:
  25:hw/dac_f1.c   ****     DAC_InitStructure.DAC_WaveGeneration = DAC_WaveGeneration_None;
  26:hw/dac_f1.c   ****     DAC_InitStructure.DAC_OutputBuffer = DAC_OutputBuffer_Enable;
  27:hw/dac_f1.c   ****     DAC_InitStructure.DAC_Trigger = DAC_Trigger_None;    // TIM6 as trigger
  28:hw/dac_f1.c   ****     DAC_Init(DAC_Channel_1, &DAC_InitStructure);
 101              		.loc 1 28 0
 102 005c 2046     		mov	r0, r4
 103 005e 02A9     		add	r1, sp, #8
  25:hw/dac_f1.c   ****     DAC_InitStructure.DAC_WaveGeneration = DAC_WaveGeneration_None;
 104              		.loc 1 25 0
 105 0060 0394     		str	r4, [sp, #12]
  26:hw/dac_f1.c   ****     DAC_InitStructure.DAC_Trigger = DAC_Trigger_None;    // TIM6 as trigger
 106              		.loc 1 26 0
 107 0062 0594     		str	r4, [sp, #20]
  27:hw/dac_f1.c   ****     DAC_Init(DAC_Channel_1, &DAC_InitStructure);
 108              		.loc 1 27 0
 109 0064 0294     		str	r4, [sp, #8]
 110              		.loc 1 28 0
 111 0066 FFF7FEFF 		bl	DAC_Init
 112              	.LVL7:
  29:hw/dac_f1.c   ****     DAC_Cmd(DAC_Channel_1, ENABLE);
 113              		.loc 1 29 0
 114 006a 2046     		mov	r0, r4
 115 006c 0121     		movs	r1, #1
 116 006e FFF7FEFF 		bl	DAC_Cmd
 117              	.LVL8:
  30:hw/dac_f1.c   **** }
 118              		.loc 1 30 0
 119 0072 06B0     		add	sp, sp, #24
 120              	.LCFI2:
 121              		.cfi_def_cfa_offset 16
 122              		@ sp needed
 123 0074 70BD     		pop	{r4, r5, r6, pc}
 124              	.L3:
 125 0076 00BF     		.align	2
 126              	.L2:
 127 0078 00080140 		.word	1073809408
 128 007c 000C0140 		.word	1073810432
 129              		.cfi_endproc
 130              	.LFE56:
ARM GAS  C:\Users\tom\AppData\Local\Temp\ccXxlWLv.s 			page 4


 131              		.size	DAC_Config, .-DAC_Config
 132              		.global	__aeabi_i2d
 133              		.global	__aeabi_ddiv
 134              		.global	__aeabi_dmul
 135              		.global	__aeabi_d2uiz
 136              		.section	.text.DAC_CurrentSet,"ax",%progbits
 137              		.align	1
 138              		.global	DAC_CurrentSet
 139              		.thumb
 140              		.thumb_func
 141              		.type	DAC_CurrentSet, %function
 142              	DAC_CurrentSet:
 143              	.LFB57:
  31:hw/dac_f1.c   **** 
  32:hw/dac_f1.c   **** void DAC_CurrentSet(int curr)
  33:hw/dac_f1.c   **** {
 144              		.loc 1 33 0
 145              		.cfi_startproc
 146              		@ args = 0, pretend = 0, frame = 0
 147              		@ frame_needed = 0, uses_anonymous_args = 0
 148              	.LVL9:
 149 0000 10B5     		push	{r4, lr}
 150              	.LCFI3:
 151              		.cfi_def_cfa_offset 8
 152              		.cfi_offset 4, -8
 153              		.cfi_offset 14, -4
  34:hw/dac_f1.c   ****     unsigned short val;
  35:hw/dac_f1.c   ****     GPIOB->BRR = GPIO_Pin_13 | GPIO_Pin_14 | GPIO_Pin_15;
 154              		.loc 1 35 0
 155 0002 4D4C     		ldr	r4, .L10+56
 156 0004 4FF46042 		mov	r2, #57344
  36:hw/dac_f1.c   ****     if(curr <= 100) {
 157              		.loc 1 36 0
 158 0008 6428     		cmp	r0, #100
  35:hw/dac_f1.c   ****     if(curr <= 100) {
 159              		.loc 1 35 0
 160 000a 6261     		str	r2, [r4, #20]
 161              		.loc 1 36 0
 162 000c 26DC     		bgt	.L5
 163              	.LVL10:
  37:hw/dac_f1.c   ****         val = curr / 1000.0 * 5.0 / 3.3 * 4095 * (12.49 / 2.49) / 1.07;
 164              		.loc 1 37 0
 165 000e FFF7FEFF 		bl	__aeabi_i2d
 166              	.LVL11:
 167 0012 0022     		movs	r2, #0
 168 0014 494B     		ldr	r3, .L10+60
 169 0016 FFF7FEFF 		bl	__aeabi_ddiv
 170              	.LVL12:
 171 001a 0022     		movs	r2, #0
 172 001c 484B     		ldr	r3, .L10+64
 173 001e FFF7FEFF 		bl	__aeabi_dmul
 174              	.LVL13:
 175 0022 37A3     		adr	r3, .L10
 176 0024 D3E90023 		ldrd	r2, [r3]
 177 0028 FFF7FEFF 		bl	__aeabi_ddiv
 178              	.LVL14:
 179 002c 36A3     		adr	r3, .L10+8
ARM GAS  C:\Users\tom\AppData\Local\Temp\ccXxlWLv.s 			page 5


 180 002e D3E90023 		ldrd	r2, [r3]
 181 0032 FFF7FEFF 		bl	__aeabi_dmul
 182              	.LVL15:
 183 0036 36A3     		adr	r3, .L10+16
 184 0038 D3E90023 		ldrd	r2, [r3]
 185 003c FFF7FEFF 		bl	__aeabi_dmul
 186              	.LVL16:
 187 0040 35A3     		adr	r3, .L10+24
 188 0042 D3E90023 		ldrd	r2, [r3]
 189 0046 FFF7FEFF 		bl	__aeabi_ddiv
 190              	.LVL17:
 191 004a FFF7FEFF 		bl	__aeabi_d2uiz
 192              	.LVL18:
  38:hw/dac_f1.c   ****         DAC_SetChannel1Data(DAC_Align_12b_R, val);
 193              		.loc 1 38 0
 194 004e 81B2     		uxth	r1, r0
 195 0050 0020     		movs	r0, #0
 196 0052 FFF7FEFF 		bl	DAC_SetChannel1Data
 197              	.LVL19:
  39:hw/dac_f1.c   ****         GPIOB->BSRR = GPIO_Pin_15;
 198              		.loc 1 39 0
 199 0056 4FF40043 		mov	r3, #32768
 200 005a 4CE0     		b	.L8
 201              	.LVL20:
 202              	.L5:
  40:hw/dac_f1.c   ****     }
  41:hw/dac_f1.c   ****     else if(curr <= 500) {
 203              		.loc 1 41 0
 204 005c B0F5FA7F 		cmp	r0, #500
 205 0060 22DC     		bgt	.L7
  42:hw/dac_f1.c   ****         val = curr / 1000.0 * 1.0 / 3.3 * 4095 * (12.49 / 2.49) / 1.052;
 206              		.loc 1 42 0
 207 0062 FFF7FEFF 		bl	__aeabi_i2d
 208              	.LVL21:
 209 0066 0022     		movs	r2, #0
 210 0068 344B     		ldr	r3, .L10+60
 211 006a FFF7FEFF 		bl	__aeabi_ddiv
 212              	.LVL22:
 213 006e 24A3     		adr	r3, .L10
 214 0070 D3E90023 		ldrd	r2, [r3]
 215 0074 FFF7FEFF 		bl	__aeabi_ddiv
 216              	.LVL23:
 217 0078 23A3     		adr	r3, .L10+8
 218 007a D3E90023 		ldrd	r2, [r3]
 219 007e FFF7FEFF 		bl	__aeabi_dmul
 220              	.LVL24:
 221 0082 23A3     		adr	r3, .L10+16
 222 0084 D3E90023 		ldrd	r2, [r3]
 223 0088 FFF7FEFF 		bl	__aeabi_dmul
 224              	.LVL25:
 225 008c 24A3     		adr	r3, .L10+32
 226 008e D3E90023 		ldrd	r2, [r3]
 227 0092 FFF7FEFF 		bl	__aeabi_ddiv
 228              	.LVL26:
 229 0096 FFF7FEFF 		bl	__aeabi_d2uiz
 230              	.LVL27:
  43:hw/dac_f1.c   ****         DAC_SetChannel1Data(DAC_Align_12b_R, val);
ARM GAS  C:\Users\tom\AppData\Local\Temp\ccXxlWLv.s 			page 6


 231              		.loc 1 43 0
 232 009a 81B2     		uxth	r1, r0
 233 009c 0020     		movs	r0, #0
 234 009e FFF7FEFF 		bl	DAC_SetChannel1Data
 235              	.LVL28:
  44:hw/dac_f1.c   ****         GPIOB->BSRR = GPIO_Pin_14;
 236              		.loc 1 44 0
 237 00a2 4FF48043 		mov	r3, #16384
 238 00a6 26E0     		b	.L8
 239              	.LVL29:
 240              	.L7:
  45:hw/dac_f1.c   ****     }
  46:hw/dac_f1.c   ****     else {
  47:hw/dac_f1.c   ****         val = curr / 1000.0 * 0.2 / 3.3 * 4095 * (12.49 / 2.49) * 1.04;
 241              		.loc 1 47 0
 242 00a8 FFF7FEFF 		bl	__aeabi_i2d
 243              	.LVL30:
 244 00ac 0022     		movs	r2, #0
 245 00ae 234B     		ldr	r3, .L10+60
 246 00b0 FFF7FEFF 		bl	__aeabi_ddiv
 247              	.LVL31:
 248 00b4 1CA3     		adr	r3, .L10+40
 249 00b6 D3E90023 		ldrd	r2, [r3]
 250 00ba FFF7FEFF 		bl	__aeabi_dmul
 251              	.LVL32:
 252 00be 10A3     		adr	r3, .L10
 253 00c0 D3E90023 		ldrd	r2, [r3]
 254 00c4 FFF7FEFF 		bl	__aeabi_ddiv
 255              	.LVL33:
 256 00c8 0FA3     		adr	r3, .L10+8
 257 00ca D3E90023 		ldrd	r2, [r3]
 258 00ce FFF7FEFF 		bl	__aeabi_dmul
 259              	.LVL34:
 260 00d2 0FA3     		adr	r3, .L10+16
 261 00d4 D3E90023 		ldrd	r2, [r3]
 262 00d8 FFF7FEFF 		bl	__aeabi_dmul
 263              	.LVL35:
 264 00dc 14A3     		adr	r3, .L10+48
 265 00de D3E90023 		ldrd	r2, [r3]
 266 00e2 FFF7FEFF 		bl	__aeabi_dmul
 267              	.LVL36:
 268 00e6 FFF7FEFF 		bl	__aeabi_d2uiz
 269              	.LVL37:
  48:hw/dac_f1.c   ****         DAC_SetChannel1Data(DAC_Align_12b_R, val);
 270              		.loc 1 48 0
 271 00ea 81B2     		uxth	r1, r0
 272 00ec 0020     		movs	r0, #0
 273 00ee FFF7FEFF 		bl	DAC_SetChannel1Data
 274              	.LVL38:
  49:hw/dac_f1.c   ****         GPIOB->BSRR = GPIO_Pin_13;
 275              		.loc 1 49 0
 276 00f2 4FF40053 		mov	r3, #8192
 277              	.L8:
 278 00f6 2361     		str	r3, [r4, #16]
 279 00f8 10BD     		pop	{r4, pc}
 280              	.L11:
 281 00fa 00BFAFF3 		.align	3
ARM GAS  C:\Users\tom\AppData\Local\Temp\ccXxlWLv.s 			page 7


 281      0080
 282              	.L10:
 283 0100 66666666 		.word	1717986918
 284 0104 66660A40 		.word	1074423398
 285 0108 00000000 		.word	0
 286 010c 00FEAF40 		.word	1085275648
 287 0110 F7470A26 		.word	638207991
 288 0114 73101440 		.word	1075056755
 289 0118 1F85EB51 		.word	1374389535
 290 011c B81EF13F 		.word	1072766648
 291 0120 A245B6F3 		.word	-206158430
 292 0124 FDD4F03F 		.word	1072747773
 293 0128 9A999999 		.word	-1717986918
 294 012c 9999C93F 		.word	1070176665
 295 0130 A4703D0A 		.word	171798692
 296 0134 D7A3F03F 		.word	1072735191
 297 0138 000C0140 		.word	1073810432
 298 013c 00408F40 		.word	1083129856
 299 0140 00001440 		.word	1075052544
 300              		.cfi_endproc
 301              	.LFE57:
 302              		.size	DAC_CurrentSet, .-DAC_CurrentSet
 303 0144 AFF30080 		.text
 304              	.Letext0:
 305              		.file 2 "c:\\yagarto\\arm-none-eabi\\include\\machine\\_default_types.h"
 306              		.file 3 "c:\\yagarto\\arm-none-eabi\\include\\stdint.h"
 307              		.file 4 "c:/yagarto/cmsis_cm3_v361/_cmsis/stm32f10x.h"
 308              		.file 5 "c:/yagarto/cmsis_cm3_v361/_f10x_stdperiph_drv/inc/stm32f10x_dac.h"
 309              		.file 6 "c:/yagarto/cmsis_cm3_v361/_f10x_stdperiph_drv/inc/stm32f10x_gpio.h"
 310              		.file 7 "c:/yagarto/cmsis_cm3_v361/_f10x_stdperiph_drv/inc/stm32f10x_rcc.h"
 311              		.file 8 "c:/yagarto/cmsis_cm3_v361/_cmsis/core_cm3.h"