ARM GAS  C:\Users\tom\AppData\Local\Temp\ccXxlWLv.s 			page 1


   1              		.syntax unified
   2              		.cpu cortex-m3
   3              		.fpu softvfp
   4              		.eabi_attribute 20, 1
   5              		.eabi_attribute 21, 1
   6              		.eabi_attribute 23, 3
   7              		.eabi_attribute 24, 1
   8              		.eabi_attribute 25, 1
   9              		.eabi_attribute 26, 1
  10              		.eabi_attribute 30, 4
  11              		.eabi_attribute 34, 1
  12              		.eabi_attribute 18, 4
  13              		.thumb
  14              		.file	"dac_f1.c"
  15              		.text
  16              	.Ltext0:
  17              		.cfi_sections	.debug_frame
  18              		.section	.text.DAC_Config,"ax",%progbits
  19              		.align	1
  20              		.global	DAC_Config
  21              		.thumb
  22              		.thumb_func
  23              		.type	DAC_Config, %function
  24              	DAC_Config:
  25              	.LFB56:
  26              		.file 1 "hw/dac_f1.c"
   1:hw/dac_f1.c   **** #include "misc.h"
   2:hw/dac_f1.c   **** #include <stdio.h>
   3:hw/dac_f1.c   **** 
   4:hw/dac_f1.c   **** void DAC_Config(void)
   5:hw/dac_f1.c   **** {
  27              		.loc 1 5 0
  28              		.cfi_startproc
  29              		@ args = 0, pretend = 0, frame = 24
  30              		@ frame_needed = 0, uses_anonymous_args = 0
  31 0000 70B5     		push	{r4, r5, r6, lr}
  32              	.LCFI0:
  33              		.cfi_def_cfa_offset 16
  34              		.cfi_offset 4, -16
  35              		.cfi_offset 5, -12
  36              		.cfi_offset 6, -8
  37              		.cfi_offset 14, -4
   6:hw/dac_f1.c   ****     RCC_APB1PeriphClockCmd(RCC_APB1Periph_DAC, ENABLE);
  38              		.loc 1 6 0
  39 0002 4FF00050 		mov	r0, #536870912
   5:hw/dac_f1.c   ****     RCC_APB1PeriphClockCmd(RCC_APB1Periph_DAC, ENABLE);
  40              		.loc 1 5 0
  41 0006 86B0     		sub	sp, sp, #24
  42              	.LCFI1:
  43              		.cfi_def_cfa_offset 40
  44              		.loc 1 6 0
  45 0008 0121     		movs	r1, #1
  46 000a FFF7FEFF 		bl	RCC_APB1PeriphClockCmd
  47              	.LVL0:
   7:hw/dac_f1.c   ****     RCC_APB2PeriphClockCmd(RCC_APB2Periph_GPIOA, ENABLE);
  48              		.loc 1 7 0
  49 000e 0420     		movs	r0, #4
ARM GAS  C:\Users\tom\AppData\Local\Temp\ccXxlWLv.s 			page 2


  50 0010 0121     		movs	r1, #1
  51 0012 FFF7FEFF 		bl	RCC_APB2PeriphClockCmd
  52              	.LVL1:
   8:hw/dac_f1.c   ****     RCC_APB2PeriphClockCmd(RCC_APB2Periph_GPIOB, ENABLE);
  53              		.loc 1 8 0
  54 0016 0121     		movs	r1, #1
  55 0018 0820     		movs	r0, #8
  56 001a FFF7FEFF 		bl	RCC_APB2PeriphClockCmd
  57              	.LVL2:
   9:hw/dac_f1.c   **** 
  10:hw/dac_f1.c   ****     GPIO_InitTypeDef GPIO_InitStructure;
  11:hw/dac_f1.c   ****     DAC_InitTypeDef DAC_InitStructure;
  12:hw/dac_f1.c   **** 
  13:hw/dac_f1.c   ****     GPIO_StructInit(&GPIO_InitStructure);
  58              		.loc 1 13 0
  59 001e 01A8     		add	r0, sp, #4
  60 0020 FFF7FEFF 		bl	GPIO_StructInit
  61              	.LVL3:
  14:hw/dac_f1.c   ****     // PA4 for sine wave
  15:hw/dac_f1.c   ****     GPIO_InitStructure.GPIO_Pin = GPIO_Pin_4;
  16:hw/dac_f1.c   ****     GPIO_InitStructure.GPIO_Mode = GPIO_Mode_AIN;
  62              		.loc 1 16 0
  63 0024 0024     		movs	r4, #0
  17:hw/dac_f1.c   ****     GPIO_InitStructure.GPIO_Speed = GPIO_Speed_2MHz;
  64              		.loc 1 17 0
  65 0026 0223     		movs	r3, #2
  15:hw/dac_f1.c   ****     GPIO_InitStructure.GPIO_Mode = GPIO_Mode_AIN;
  66              		.loc 1 15 0
  67 0028 1025     		movs	r5, #16
  18:hw/dac_f1.c   ****     GPIO_Init(GPIOA, &GPIO_InitStructure);
  68              		.loc 1 18 0
  69 002a 01A9     		add	r1, sp, #4
  70 002c 1248     		ldr	r0, .L2
  17:hw/dac_f1.c   ****     GPIO_InitStructure.GPIO_Speed = GPIO_Speed_2MHz;
  71              		.loc 1 17 0
  72 002e 8DF80630 		strb	r3, [sp, #6]
  15:hw/dac_f1.c   ****     GPIO_InitStructure.GPIO_Mode = GPIO_Mode_AIN;
  73              		.loc 1 15 0
  74 0032 ADF80450 		strh	r5, [sp, #4]	@ movhi
  16:hw/dac_f1.c   ****     GPIO_InitStructure.GPIO_Speed = GPIO_Speed_2MHz;
  75              		.loc 1 16 0
  76 0036 8DF80740 		strb	r4, [sp, #7]
  77              		.loc 1 18 0
  78 003a FFF7FEFF 		bl	GPIO_Init
  79              	.LVL4:
  19:hw/dac_f1.c   ****     GPIO_InitStructure.GPIO_Pin = GPIO_Pin_13 | GPIO_Pin_14 | GPIO_Pin_15;
  20:hw/dac_f1.c   ****     GPIO_InitStructure.GPIO_Mode = GPIO_Mode_Out_PP;
  80              		.loc 1 20 0
  81 003e 8DF80750 		strb	r5, [sp, #7]
  21:hw/dac_f1.c   ****     GPIO_Init(GPIOB, &GPIO_InitStructure);
  82              		.loc 1 21 0
  83 0042 0E4D     		ldr	r5, .L2+4
  84 0044 01A9     		add	r1, sp, #4
  19:hw/dac_f1.c   ****     GPIO_InitStructure.GPIO_Pin = GPIO_Pin_13 | GPIO_Pin_14 | GPIO_Pin_15;
  85              		.loc 1 19 0
  86 0046 4FF46046 		mov	r6, #57344
  87              		.loc 1 21 0
ARM GAS  C:\Users\tom\AppData\Local\Temp\ccXxlWLv.s 			page 3


  88 004a 2846     		mov	r0, r5
  19:hw/dac_f1.c   ****     GPIO_InitStructure.GPIO_Pin = GPIO_Pin_13 | GPIO_Pin_14 | GPIO_Pin_15;
  89              		.loc 1 19 0
  90 004c ADF80460 		strh	r6, [sp, #4]	@ movhi
  91              		.loc 1 21 0
  92 0050 FFF7FEFF 		bl	GPIO_Init
  93              	.LVL5:
  22:hw/dac_f1.c   ****     GPIOB->BRR = GPIO_Pin_13 | GPIO_Pin_14 | GPIO_Pin_15;
  23:hw/dac_f1.c   **** 
  24:hw/dac_f1.c   ****     DAC_StructInit(&DAC_InitStructure);
  94              		.loc 1 24 0
  95 0054 02A8     		add	r0, sp, #8
  22:hw/dac_f1.c   ****     GPIOB->BRR = GPIO_Pin_13 | GPIO_Pin_14 | GPIO_Pin_15;
  96              		.loc 1 22 0
  97 0056 6E61     		str	r6, [r5, #20]
  98              		.loc 1 24 0
  99 0058 FFF7FEFF 		bl	DAC_StructInit
 100              	.LVL6:
  25:hw/dac_f1.c   ****     DAC_InitStructure.DAC_WaveGeneration = DAC_WaveGeneration_None;
  26:hw/dac_f1.c   ****     DAC_InitStructure.DAC_OutputBuffer = DAC_OutputBuffer_Enable;
  27:hw/dac_f1.c   ****     DAC_InitStructure.DAC_Trigger = DAC_Trigger_None;    // TIM6 as trigger
  28:hw/dac_f1.c   ****     DAC_Init(DAC_Channel_1, &DAC_InitStructure);
 101              		.loc 1 28 0
 102 005c 2046     		mov	r0, r4
 103 005e 02A9     		add	r1, sp, #8
  25:hw/dac_f1.c   ****     DAC_InitStructure.DAC_WaveGeneration = DAC_WaveGeneration_None;
 104              		.loc 1 25 0
 105 0060 0394     		str	r4, [sp, #12]
  26:hw/dac_f1.c   ****     DAC_InitStructure.DAC_Trigger = DAC_Trigger_None;    // TIM6 as trigger
 106              		.loc 1 26 0
 107 0062 0594     		str	r4, [sp, #20]
  27:hw/dac_f1.c   ****     DAC_Init(DAC_Channel_1, &DAC_InitStructure);
 108              		.loc 1 27 0
 109 0064 0294     		str	r4, [sp, #8]
 110              		.loc 1 28 0
 111 0066 FFF7FEFF 		bl	DAC_Init
 112              	.LVL7:
  29:hw/dac_f1.c   ****     DAC_Cmd(DAC_Channel_1, ENABLE);
 113              		.loc 1 29 0
 114 006a 2046     		mov	r0, r4
 115 006c 0121     		movs	r1, #1
 116 006e FFF7FEFF 		bl	DAC_Cmd
 117              	.LVL8:
  30:hw/dac_f1.c   **** }
 118              		.loc 1 30 0
 119 0072 06B0     		add	sp, sp, #24
 120              	.LCFI2:
 121              		.cfi_def_cfa_offset 16
 122              		@ sp needed
 123 0074 70BD     		pop	{r4, r5, r6, pc}
 124              	.L3:
 125 0076 00BF     		.align	2
 126              	.L2:
 127 0078 00080140 		.word	1073809408
 128 007c 000C0140 		.word	1073810432
 129              		.cfi_endproc
 130              	.LFE56:
ARM GAS  C:\Users\tom\AppData\Local\Temp\ccXxlWLv.s 			page 4


 131              		.size	DAC_Config, .-DAC_Config
 132              		.global	__aeabi_i2d
 133              		.global	__aeabi_ddiv
 134              		.global	__aeabi_dmul
 135              		.global	__aeabi_d2uiz
 136              		.section	.text.DAC_CurrentSet,"ax",%progbits
 137              		.align	1
 138              		.global	DAC_CurrentSet
 139              		.thumb
 140              		.thumb_func
 141              		.type	DAC_CurrentSet, %function
 142              	DAC_CurrentSet:
 143              	.LFB57:
  31:hw/dac_f1.c   **** 
  32:hw/dac_f1.c   **** void DAC_CurrentSet(int curr)
  33:hw/dac_f1.c   **** {
 144              		.loc 1 33 0
 145              		.cfi_startproc
 146              		@ args = 0, pretend = 0, frame = 0
 147              		@ frame_needed = 0, uses_anonymous_args = 0
 148              	.LVL9:
 149 0000 10B5     		push	{r4, lr}
 150              	.LCFI3:
 151              		.cfi_def_cfa_offset 8
 152              		.cfi_offset 4, -8
 153              		.cfi_offset 14, -4
  34:hw/dac_f1.c   ****     unsigned short val;
  35:hw/dac_f1.c   ****     GPIOB->BRR = GPIO_Pin_13 | GPIO_Pin_14 | GPIO_Pin_15;
 154              		.loc 1 35 0
 155 0002 4D4C     		ldr	r4, .L10+56
 156 0004 4FF46042 		mov	r2, #57344
  36:hw/dac_f1.c   ****     if(curr <= 100) {
 157              		.loc 1 36 0
 158 0008 6428     		cmp	r0, #100
  35:hw/dac_f1.c   ****     if(curr <= 100) {
 159              		.loc 1 35 0
 160 000a 6261     		str	r2, [r4, #20]
 161              		.loc 1 36 0
 162 000c 26DC     		bgt	.L5
 163              	.LVL10:
  37:hw/dac_f1.c   ****         val = curr / 1000.0 * 5.0 / 3.3 * 4095 * (12.49 / 2.49) / 1.07;
 164              		.loc 1 37 0
 165 000e FFF7FEFF 		bl	__aeabi_i2d
 166              	.LVL11:
 167 0012 0022     		movs	r2, #0
 168 0014 494B     		ldr	r3, .L10+60
 169 0016 FFF7FEFF 		bl	__aeabi_ddiv
 170              	.LVL12:
 171 001a 0022     		movs	r2, #0
 172 001c 484B     		ldr	r3, .L10+64
 173 001e FFF7FEFF 		bl	__aeabi_dmul
 174              	.LVL13:
 175 0022 37A3     		adr	r3, .L10
 176 0024 D3E90023 		ldrd	r2, [r3]
 177 0028 FFF7FEFF 		bl	__aeabi_ddiv
 178              	.LVL14:
 179 002c 36A3     		adr	r3, .L10+8
ARM GAS  C:\Users\tom\AppData\Local\Temp\ccXxlWLv.s 			page 5


 180 002e D3E90023 		ldrd	r2, [r3]
 181 0032 FFF7FEFF 		bl	__aeabi_dmul
 182              	.LVL15:
 183 0036 36A3     		adr	r3, .L10+16
 184 0038 D3E90023 		ldrd	r2, [r3]
 185 003c FFF7FEFF 		bl	__aeabi_dmul
 186              	.LVL16:
 187 0040 35A3     		adr	r3, .L10+24
 188 0042 D3E90023 		ldrd	r2, [r3]
 189 0046 FFF7FEFF 		bl	__aeabi_ddiv
 190              	.LVL17:
 191 004a FFF7FEFF 		bl	__aeabi_d2uiz
 192              	.LVL18:
  38:hw/dac_f1.c   ****         DAC_SetChannel1Data(DAC_Align_12b_R, val);
 193              		.loc 1 38 0
 194 004e 81B2     		uxth	r1, r0
 195 0050 0020     		movs	r0, #0
 196 0052 FFF7FEFF 		bl	DAC_SetChannel1Data
 197              	.LVL19:
  39:hw/dac_f1.c   ****         GPIOB->BSRR = GPIO_Pin_15;
 198              		.loc 1 39 0
 199 0056 4FF40043 		mov	r3, #32768
 200 005a 4CE0     		b	.L8
 201              	.LVL20:
 202              	.L5:
  40:hw/dac_f1.c   ****     }
  41:hw/dac_f1.c   ****     else if(curr <= 500) {
 203              		.loc 1 41 0
 204 005c B0F5FA7F 		cmp	r0, #500
 205 0060 22DC     		bgt	.L7
  42:hw/dac_f1.c   ****         val = curr / 1000.0 * 1.0 / 3.3 * 4095 * (12.49 / 2.49) / 1.052;
 206              		.loc 1 42 0
 207 0062 FFF7FEFF 		bl	__aeabi_i2d
 208              	.LVL21:
 209 0066 0022     		movs	r2, #0
 210 0068 344B     		ldr	r3, .L10+60
 211 006a FFF7FEFF 		bl	__aeabi_ddiv
 212              	.LVL22:
 213 006e 24A3     		adr	r3, .L10
 214 0070 D3E90023 		ldrd	r2, [r3]
 215 0074 FFF7FEFF 		bl	__aeabi_ddiv
 216              	.LVL23:
 217 0078 23A3     		adr	r3, .L10+8
 218 007a D3E90023 		ldrd	r2, [r3]
 219 007e FFF7FEFF 		bl	__aeabi_dmul
 220              	.LVL24:
 221 0082 23A3     		adr	r3, .L10+16
 222 0084 D3E90023 		ldrd	r2, [r3]
 223 0088 FFF7FEFF 		bl	__aeabi_dmul
 224              	.LVL25:
 225 008c 24A3     		adr	r3, .L10+32
 226 008e D3E90023 		ldrd	r2, [r3]
 227 0092 FFF7FEFF 		bl	__aeabi_ddiv
 228              	.LVL26:
 229 0096 FFF7FEFF 		bl	__aeabi_d2uiz
 230              	.LVL27:
  43:hw/dac_f1.c   ****         DAC_SetChannel1Data(DAC_Align_12b_R, val);
ARM GAS  C:\Users\tom\AppData\Local\Temp\ccXxlWLv.s 			page 6


 231              		.loc 1 43 0
 232 009a 81B2     		uxth	r1, r0
 233 009c 0020     		movs	r0, #0
 234 009e FFF7FEFF 		bl	DAC_SetChannel1Data
 235              	.LVL28:
  44:hw/dac_f1.c   ****         GPIOB->BSRR = GPIO_Pin_14;
 236              		.loc 1 44 0
 237 00a2 4FF48043 		mov	r3, #16384
 238 00a6 26E0     		b	.L8
 239              	.LVL29:
 240              	.L7:
  45:hw/dac_f1.c   ****     }
  46:hw/dac_f1.c   ****     else {
  47:hw/dac_f1.c   ****         val = curr / 1000.0 * 0.2 / 3.3 * 4095 * (12.49 / 2.49) * 1.04;
 241              		.loc 1 47 0
 242 00a8 FFF7FEFF 		bl	__aeabi_i2d
 243              	.LVL30:
 244 00ac 0022     		movs	r2, #0
 245 00ae 234B     		ldr	r3, .L10+60
 246 00b0 FFF7FEFF 		bl	__aeabi_ddiv
 247              	.LVL31:
 248 00b4 1CA3     		adr	r3, .L10+40
 249 00b6 D3E90023 		ldrd	r2, [r3]
 250 00ba FFF7FEFF 		bl	__aeabi_dmul
 251              	.LVL32:
 252 00be 10A3     		adr	r3, .L10
 253 00c0 D3E90023 		ldrd	r2, [r3]
 254 00c4 FFF7FEFF 		bl	__aeabi_ddiv
 255              	.LVL33:
 256 00c8 0FA3     		adr	r3, .L10+8
 257 00ca D3E90023 		ldrd	r2, [r3]
 258 00ce FFF7FEFF 		bl	__aeabi_dmul
 259              	.LVL34:
 260 00d2 0FA3     		adr	r3, .L10+16
 261 00d4 D3E90023 		ldrd	r2, [r3]
 262 00d8 FFF7FEFF 		bl	__aeabi_dmul
 263              	.LVL35:
 264 00dc 14A3     		adr	r3, .L10+48
 265 00de D3E90023 		ldrd	r2, [r3]
 266 00e2 FFF7FEFF 		bl	__aeabi_dmul
 267              	.LVL36:
 268 00e6 FFF7FEFF 		bl	__aeabi_d2uiz
 269              	.LVL37:
  48:hw/dac_f1.c   ****         DAC_SetChannel1Data(DAC_Align_12b_R, val);
 270              		.loc 1 48 0
 271 00ea 81B2     		uxth	r1, r0
 272 00ec 0020     		movs	r0, #0
 273 00ee FFF7FEFF 		bl	DAC_SetChannel1Data
 274              	.LVL38:
  49:hw/dac_f1.c   ****         GPIOB->BSRR = GPIO_Pin_13;
 275              		.loc 1 49 0
 276 00f2 4FF40053 		mov	r3, #8192
 277              	.L8:
 278 00f6 2361     		str	r3, [r4, #16]
 279 00f8 10BD     		pop	{r4, pc}
 280              	.L11:
 281 00fa 00BFAFF3 		.align	3
ARM GAS  C:\Users\tom\AppData\Local\Temp\ccXxlWLv.s 			page 7


 281      0080
 282              	.L10:
 283 0100 66666666 		.word	1717986918
 284 0104 66660A40 		.word	1074423398
 285 0108 00000000 		.word	0
 286 010c 00FEAF40 		.word	1085275648
 287 0110 F7470A26 		.word	638207991
 288 0114 73101440 		.word	1075056755
 289 0118 1F85EB51 		.word	1374389535
 290 011c B81EF13F 		.word	1072766648
 291 0120 A245B6F3 		.word	-206158430
 292 0124 FDD4F03F 		.word	1072747773
 293 0128 9A999999 		.word	-1717986918
 294 012c 9999C93F 		.word	1070176665
 295 0130 A4703D0A 		.word	171798692
 296 0134 D7A3F03F 		.word	1072735191
 297 0138 000C0140 		.word	1073810432
 298 013c 00408F40 		.word	1083129856
 299 0140 00001440 		.word	1075052544
 300              		.cfi_endproc
 301              	.LFE57:
 302              		.size	DAC_CurrentSet, .-DAC_CurrentSet
 303 0144 AFF30080 		.text
 304              	.Letext0:
 305              		.file 2 "c:\\yagarto\\arm-none-eabi\\include\\machine\\_default_types.h"
 306              		.file 3 "c:\\yagarto\\arm-none-eabi\\include\\stdint.h"
 307              		.file 4 "c:/yagarto/cmsis_cm3_v361/_cmsis/stm32f10x.h"
 308              		.file 5 "c:/yagarto/cmsis_cm3_v361/_f10x_stdperiph_drv/inc/stm32f10x_dac.h"
 309              		.file 6 "c:/yagarto/cmsis_cm3_v361/_f10x_stdperiph_drv/inc/stm32f10x_gpio.h"
 310              		.file 7 "c:/yagarto/cmsis_cm3_v361/_f10x_stdperiph_drv/inc/stm32f10x_rcc.h"
 311              		.file 8 "c:/yagarto/cmsis_cm3_v361/_cmsis/core_cm3.h"
 312              		.section	.debug_info,"",%progbits
 313              	.Ldebug_info0:
 314 0000 B7040000 		.4byte	0x4b7
 315 0004 0200     		.2byte	0x2
 316 0006 00000000 		.4byte	.Ldebug_abbrev0
 317 000a 04       		.byte	0x4
 318 000b 01       		.uleb128 0x1
 319 000c D8010000 		.4byte	.LASF56
 320 0010 01       		.byte	0x1
 321 0011 B2020000 		.4byte	.LASF57
 322 0015 60000000 		.4byte	.LASF58
 323 0019 00000000 		.4byte	.Ldebug_ranges0+0
 324 001d 00000000 		.4byte	0
 325 0021 00000000 		.4byte	0
 326 0025 00000000 		.4byte	.Ldebug_line0
 327 0029 02       		.uleb128 0x2
 328 002a 01       		.byte	0x1
 329 002b 06       		.byte	0x6
 330 002c D7000000 		.4byte	.LASF0
 331 0030 02       		.uleb128 0x2
 332 0031 01       		.byte	0x1
 333 0032 08       		.byte	0x8
 334 0033 4B010000 		.4byte	.LASF1
 335 0037 02       		.uleb128 0x2
 336 0038 02       		.byte	0x2
 337 0039 05       		.byte	0x5
ARM GAS  C:\Users\tom\AppData\Local\Temp\ccXxlWLv.s 			page 8


 338 003a 16000000 		.4byte	.LASF2
 339 003e 03       		.uleb128 0x3
 340 003f 39000000 		.4byte	.LASF4
 341 0043 02       		.byte	0x2
 342 0044 2B       		.byte	0x2b
 343 0045 49000000 		.4byte	0x49
 344 0049 02       		.uleb128 0x2
 345 004a 02       		.byte	0x2
 346 004b 07       		.byte	0x7
 347 004c 79020000 		.4byte	.LASF3
 348 0050 03       		.uleb128 0x3
 349 0051 C6020000 		.4byte	.LASF5
 350 0055 02       		.byte	0x2
 351 0056 3F       		.byte	0x3f
 352 0057 5B000000 		.4byte	0x5b
 353 005b 02       		.uleb128 0x2
 354 005c 04       		.byte	0x4
 355 005d 05       		.byte	0x5
 356 005e 01010000 		.4byte	.LASF6
 357 0062 03       		.uleb128 0x3
 358 0063 44000000 		.4byte	.LASF7
 359 0067 02       		.byte	0x2
 360 0068 41       		.byte	0x41
 361 0069 6D000000 		.4byte	0x6d
 362 006d 02       		.uleb128 0x2
 363 006e 04       		.byte	0x4
 364 006f 07       		.byte	0x7
 365 0070 16030000 		.4byte	.LASF8
 366 0074 02       		.uleb128 0x2
 367 0075 08       		.byte	0x8
 368 0076 05       		.byte	0x5
 369 0077 F3000000 		.4byte	.LASF9
 370 007b 02       		.uleb128 0x2
 371 007c 08       		.byte	0x8
 372 007d 07       		.byte	0x7
 373 007e 78010000 		.4byte	.LASF10
 374 0082 04       		.uleb128 0x4
 375 0083 04       		.byte	0x4
 376 0084 05       		.byte	0x5
 377 0085 696E7400 		.ascii	"int\000"
 378 0089 02       		.uleb128 0x2
 379 008a 04       		.byte	0x4
 380 008b 07       		.byte	0x7
 381 008c D6030000 		.4byte	.LASF11
 382 0090 03       		.uleb128 0x3
 383 0091 C0010000 		.4byte	.LASF12
 384 0095 03       		.byte	0x3
 385 0096 21       		.byte	0x21
 386 0097 3E000000 		.4byte	0x3e
 387 009b 03       		.uleb128 0x3
 388 009c BE020000 		.4byte	.LASF13
 389 00a0 03       		.byte	0x3
 390 00a1 2C       		.byte	0x2c
 391 00a2 50000000 		.4byte	0x50
 392 00a6 03       		.uleb128 0x3
 393 00a7 8F010000 		.4byte	.LASF14
 394 00ab 03       		.byte	0x3
ARM GAS  C:\Users\tom\AppData\Local\Temp\ccXxlWLv.s 			page 9


 395 00ac 2D       		.byte	0x2d
 396 00ad 62000000 		.4byte	0x62
 397 00b1 02       		.uleb128 0x2
 398 00b2 04       		.byte	0x4
 399 00b3 07       		.byte	0x7
 400 00b4 30000000 		.4byte	.LASF15
 401 00b8 02       		.uleb128 0x2
 402 00b9 01       		.byte	0x1
 403 00ba 08       		.byte	0x8
 404 00bb 8C020000 		.4byte	.LASF16
 405 00bf 05       		.uleb128 0x5
 406 00c0 A6000000 		.4byte	0xa6
 407 00c4 05       		.uleb128 0x5
 408 00c5 9B000000 		.4byte	0x9b
 409 00c9 06       		.uleb128 0x6
 410 00ca 01       		.byte	0x1
 411 00cb 04       		.byte	0x4
 412 00cc 1302     		.2byte	0x213
 413 00ce DF000000 		.4byte	0xdf
 414 00d2 07       		.uleb128 0x7
 415 00d3 CF000000 		.4byte	.LASF17
 416 00d7 00       		.sleb128 0
 417 00d8 07       		.uleb128 0x7
 418 00d9 92000000 		.4byte	.LASF18
 419 00dd 01       		.sleb128 1
 420 00de 00       		.byte	0
 421 00df 08       		.uleb128 0x8
 422 00e0 3A030000 		.4byte	.LASF19
 423 00e4 04       		.byte	0x4
 424 00e5 1302     		.2byte	0x213
 425 00e7 C9000000 		.4byte	0xc9
 426 00eb 09       		.uleb128 0x9
 427 00ec 1C       		.byte	0x1c
 428 00ed 04       		.byte	0x4
 429 00ee F303     		.2byte	0x3f3
 430 00f0 5E010000 		.4byte	0x15e
 431 00f4 0A       		.uleb128 0xa
 432 00f5 43524C00 		.ascii	"CRL\000"
 433 00f9 04       		.byte	0x4
 434 00fa F503     		.2byte	0x3f5
 435 00fc BF000000 		.4byte	0xbf
 436 0100 02       		.byte	0x2
 437 0101 23       		.byte	0x23
 438 0102 00       		.uleb128 0
 439 0103 0A       		.uleb128 0xa
 440 0104 43524800 		.ascii	"CRH\000"
 441 0108 04       		.byte	0x4
 442 0109 F603     		.2byte	0x3f6
 443 010b BF000000 		.4byte	0xbf
 444 010f 02       		.byte	0x2
 445 0110 23       		.byte	0x23
 446 0111 04       		.uleb128 0x4
 447 0112 0A       		.uleb128 0xa
 448 0113 49445200 		.ascii	"IDR\000"
 449 0117 04       		.byte	0x4
 450 0118 F703     		.2byte	0x3f7
 451 011a BF000000 		.4byte	0xbf
ARM GAS  C:\Users\tom\AppData\Local\Temp\ccXxlWLv.s 			page 10


 452 011e 02       		.byte	0x2
 453 011f 23       		.byte	0x23
 454 0120 08       		.uleb128 0x8
 455 0121 0A       		.uleb128 0xa
 456 0122 4F445200 		.ascii	"ODR\000"
 457 0126 04       		.byte	0x4
 458 0127 F803     		.2byte	0x3f8
 459 0129 BF000000 		.4byte	0xbf
 460 012d 02       		.byte	0x2
 461 012e 23       		.byte	0x23
 462 012f 0C       		.uleb128 0xc
 463 0130 0B       		.uleb128 0xb
 464 0131 0A010000 		.4byte	.LASF20
 465 0135 04       		.byte	0x4
 466 0136 F903     		.2byte	0x3f9
 467 0138 BF000000 		.4byte	0xbf
 468 013c 02       		.byte	0x2
 469 013d 23       		.byte	0x23
 470 013e 10       		.uleb128 0x10
 471 013f 0A       		.uleb128 0xa
 472 0140 42525200 		.ascii	"BRR\000"
 473 0144 04       		.byte	0x4
 474 0145 FA03     		.2byte	0x3fa
 475 0147 BF000000 		.4byte	0xbf
 476 014b 02       		.byte	0x2
 477 014c 23       		.byte	0x23
 478 014d 14       		.uleb128 0x14
 479 014e 0B       		.uleb128 0xb
 480 014f E3030000 		.4byte	.LASF21
 481 0153 04       		.byte	0x4
 482 0154 FB03     		.2byte	0x3fb
 483 0156 BF000000 		.4byte	0xbf
 484 015a 02       		.byte	0x2
 485 015b 23       		.byte	0x23
 486 015c 18       		.uleb128 0x18
 487 015d 00       		.byte	0
 488 015e 08       		.uleb128 0x8
 489 015f 00000000 		.4byte	.LASF22
 490 0163 04       		.byte	0x4
 491 0164 FC03     		.2byte	0x3fc
 492 0166 EB000000 		.4byte	0xeb
 493 016a 0C       		.uleb128 0xc
 494 016b 10       		.byte	0x10
 495 016c 05       		.byte	0x5
 496 016d 38       		.byte	0x38
 497 016e AB010000 		.4byte	0x1ab
 498 0172 0D       		.uleb128 0xd
 499 0173 A9010000 		.4byte	.LASF23
 500 0177 05       		.byte	0x5
 501 0178 3A       		.byte	0x3a
 502 0179 A6000000 		.4byte	0xa6
 503 017d 02       		.byte	0x2
 504 017e 23       		.byte	0x23
 505 017f 00       		.uleb128 0
 506 0180 0D       		.uleb128 0xd
 507 0181 E8030000 		.4byte	.LASF24
 508 0185 05       		.byte	0x5
ARM GAS  C:\Users\tom\AppData\Local\Temp\ccXxlWLv.s 			page 11


 509 0186 3D       		.byte	0x3d
 510 0187 A6000000 		.4byte	0xa6
 511 018b 02       		.byte	0x2
 512 018c 23       		.byte	0x23
 513 018d 04       		.uleb128 0x4
 514 018e 0D       		.uleb128 0xd
 515 018f 91020000 		.4byte	.LASF25
 516 0193 05       		.byte	0x5
 517 0194 41       		.byte	0x41
 518 0195 A6000000 		.4byte	0xa6
 519 0199 02       		.byte	0x2
 520 019a 23       		.byte	0x23
 521 019b 08       		.uleb128 0x8
 522 019c 0D       		.uleb128 0xd
 523 019d 4F000000 		.4byte	.LASF26
 524 01a1 05       		.byte	0x5
 525 01a2 45       		.byte	0x45
 526 01a3 A6000000 		.4byte	0xa6
 527 01a7 02       		.byte	0x2
 528 01a8 23       		.byte	0x23
 529 01a9 0C       		.uleb128 0xc
 530 01aa 00       		.byte	0
 531 01ab 03       		.uleb128 0x3
 532 01ac AE000000 		.4byte	.LASF27
 533 01b0 05       		.byte	0x5
 534 01b1 47       		.byte	0x47
 535 01b2 6A010000 		.4byte	0x16a
 536 01b6 0E       		.uleb128 0xe
 537 01b7 01       		.byte	0x1
 538 01b8 06       		.byte	0x6
 539 01b9 41       		.byte	0x41
 540 01ba D1010000 		.4byte	0x1d1
 541 01be 07       		.uleb128 0x7
 542 01bf 0F010000 		.4byte	.LASF28
 543 01c3 01       		.sleb128 1
 544 01c4 07       		.uleb128 0x7
 545 01c5 59010000 		.4byte	.LASF29
 546 01c9 02       		.sleb128 2
 547 01ca 07       		.uleb128 0x7
 548 01cb 76030000 		.4byte	.LASF30
 549 01cf 03       		.sleb128 3
 550 01d0 00       		.byte	0
 551 01d1 03       		.uleb128 0x3
 552 01d2 28030000 		.4byte	.LASF31
 553 01d6 06       		.byte	0x6
 554 01d7 45       		.byte	0x45
 555 01d8 B6010000 		.4byte	0x1b6
 556 01dc 0E       		.uleb128 0xe
 557 01dd 01       		.byte	0x1
 558 01de 06       		.byte	0x6
 559 01df 4E       		.byte	0x4e
 560 01e0 16020000 		.4byte	0x216
 561 01e4 07       		.uleb128 0x7
 562 01e5 FA020000 		.4byte	.LASF32
 563 01e9 00       		.sleb128 0
 564 01ea 07       		.uleb128 0x7
 565 01eb B3030000 		.4byte	.LASF33
ARM GAS  C:\Users\tom\AppData\Local\Temp\ccXxlWLv.s 			page 12


 566 01ef 04       		.sleb128 4
 567 01f0 07       		.uleb128 0x7
 568 01f1 08030000 		.4byte	.LASF34
 569 01f5 28       		.sleb128 40
 570 01f6 07       		.uleb128 0x7
 571 01f7 D5020000 		.4byte	.LASF35
 572 01fb C800     		.sleb128 72
 573 01fd 07       		.uleb128 0x7
 574 01fe BE000000 		.4byte	.LASF36
 575 0202 14       		.sleb128 20
 576 0203 07       		.uleb128 0x7
 577 0204 4A030000 		.4byte	.LASF37
 578 0208 10       		.sleb128 16
 579 0209 07       		.uleb128 0x7
 580 020a FB030000 		.4byte	.LASF38
 581 020e 1C       		.sleb128 28
 582 020f 07       		.uleb128 0x7
 583 0210 E3000000 		.4byte	.LASF39
 584 0214 18       		.sleb128 24
 585 0215 00       		.byte	0
 586 0216 03       		.uleb128 0x3
 587 0217 90030000 		.4byte	.LASF40
 588 021b 06       		.byte	0x6
 589 021c 56       		.byte	0x56
 590 021d DC010000 		.4byte	0x1dc
 591 0221 0C       		.uleb128 0xc
 592 0222 04       		.byte	0x4
 593 0223 06       		.byte	0x6
 594 0224 61       		.byte	0x61
 595 0225 54020000 		.4byte	0x254
 596 0229 0D       		.uleb128 0xd
 597 022a 0D000000 		.4byte	.LASF41
 598 022e 06       		.byte	0x6
 599 022f 63       		.byte	0x63
 600 0230 90000000 		.4byte	0x90
 601 0234 02       		.byte	0x2
 602 0235 23       		.byte	0x23
 603 0236 00       		.uleb128 0
 604 0237 0D       		.uleb128 0xd
 605 0238 99000000 		.4byte	.LASF42
 606 023c 06       		.byte	0x6
 607 023d 66       		.byte	0x66
 608 023e D1010000 		.4byte	0x1d1
 609 0242 02       		.byte	0x2
 610 0243 23       		.byte	0x23
 611 0244 02       		.uleb128 0x2
 612 0245 0D       		.uleb128 0xd
 613 0246 0B040000 		.4byte	.LASF43
 614 024a 06       		.byte	0x6
 615 024b 69       		.byte	0x69
 616 024c 16020000 		.4byte	0x216
 617 0250 02       		.byte	0x2
 618 0251 23       		.byte	0x23
 619 0252 03       		.uleb128 0x3
 620 0253 00       		.byte	0
 621 0254 03       		.uleb128 0x3
 622 0255 98010000 		.4byte	.LASF44
ARM GAS  C:\Users\tom\AppData\Local\Temp\ccXxlWLv.s 			page 13


 623 0259 06       		.byte	0x6
 624 025a 6B       		.byte	0x6b
 625 025b 21020000 		.4byte	0x221
 626 025f 0F       		.uleb128 0xf
 627 0260 01       		.byte	0x1
 628 0261 B5010000 		.4byte	.LASF47
 629 0265 01       		.byte	0x1
 630 0266 04       		.byte	0x4
 631 0267 01       		.byte	0x1
 632 0268 00000000 		.4byte	.LFB56
 633 026c 80000000 		.4byte	.LFE56
 634 0270 00000000 		.4byte	.LLST0
 635 0274 01       		.byte	0x1
 636 0275 6E030000 		.4byte	0x36e
 637 0279 10       		.uleb128 0x10
 638 027a 63030000 		.4byte	.LASF45
 639 027e 01       		.byte	0x1
 640 027f 0A       		.byte	0xa
 641 0280 54020000 		.4byte	0x254
 642 0284 02       		.byte	0x2
 643 0285 91       		.byte	0x91
 644 0286 5C       		.sleb128 -36
 645 0287 10       		.uleb128 0x10
 646 0288 A1030000 		.4byte	.LASF46
 647 028c 01       		.byte	0x1
 648 028d 0B       		.byte	0xb
 649 028e AB010000 		.4byte	0x1ab
 650 0292 02       		.byte	0x2
 651 0293 91       		.byte	0x91
 652 0294 60       		.sleb128 -32
 653 0295 11       		.uleb128 0x11
 654 0296 0E000000 		.4byte	.LVL0
 655 029a E6030000 		.4byte	0x3e6
 656 029e AF020000 		.4byte	0x2af
 657 02a2 12       		.uleb128 0x12
 658 02a3 01       		.byte	0x1
 659 02a4 51       		.byte	0x51
 660 02a5 01       		.byte	0x1
 661 02a6 31       		.byte	0x31
 662 02a7 12       		.uleb128 0x12
 663 02a8 01       		.byte	0x1
 664 02a9 50       		.byte	0x50
 665 02aa 03       		.byte	0x3
 666 02ab 40       		.byte	0x40
 667 02ac 49       		.byte	0x49
 668 02ad 24       		.byte	0x24
 669 02ae 00       		.byte	0
 670 02af 11       		.uleb128 0x11
 671 02b0 16000000 		.4byte	.LVL1
 672 02b4 00040000 		.4byte	0x400
 673 02b8 C7020000 		.4byte	0x2c7
 674 02bc 12       		.uleb128 0x12
 675 02bd 01       		.byte	0x1
 676 02be 51       		.byte	0x51
 677 02bf 01       		.byte	0x1
 678 02c0 31       		.byte	0x31
 679 02c1 12       		.uleb128 0x12
ARM GAS  C:\Users\tom\AppData\Local\Temp\ccXxlWLv.s 			page 14


 680 02c2 01       		.byte	0x1
 681 02c3 50       		.byte	0x50
 682 02c4 01       		.byte	0x1
 683 02c5 34       		.byte	0x34
 684 02c6 00       		.byte	0
 685 02c7 11       		.uleb128 0x11
 686 02c8 1E000000 		.4byte	.LVL2
 687 02cc 00040000 		.4byte	0x400
 688 02d0 DF020000 		.4byte	0x2df
 689 02d4 12       		.uleb128 0x12
 690 02d5 01       		.byte	0x1
 691 02d6 51       		.byte	0x51
 692 02d7 01       		.byte	0x1
 693 02d8 31       		.byte	0x31
 694 02d9 12       		.uleb128 0x12
 695 02da 01       		.byte	0x1
 696 02db 50       		.byte	0x50
 697 02dc 01       		.byte	0x1
 698 02dd 38       		.byte	0x38
 699 02de 00       		.byte	0
 700 02df 11       		.uleb128 0x11
 701 02e0 24000000 		.4byte	.LVL3
 702 02e4 1A040000 		.4byte	0x41a
 703 02e8 F3020000 		.4byte	0x2f3
 704 02ec 12       		.uleb128 0x12
 705 02ed 01       		.byte	0x1
 706 02ee 50       		.byte	0x50
 707 02ef 02       		.byte	0x2
 708 02f0 91       		.byte	0x91
 709 02f1 5C       		.sleb128 -36
 710 02f2 00       		.byte	0
 711 02f3 11       		.uleb128 0x11
 712 02f4 3E000000 		.4byte	.LVL4
 713 02f8 35040000 		.4byte	0x435
 714 02fc 10030000 		.4byte	0x310
 715 0300 12       		.uleb128 0x12
 716 0301 01       		.byte	0x1
 717 0302 51       		.byte	0x51
 718 0303 02       		.byte	0x2
 719 0304 91       		.byte	0x91
 720 0305 5C       		.sleb128 -36
 721 0306 12       		.uleb128 0x12
 722 0307 01       		.byte	0x1
 723 0308 50       		.byte	0x50
 724 0309 05       		.byte	0x5
 725 030a 0C       		.byte	0xc
 726 030b 00080140 		.4byte	0x40010800
 727 030f 00       		.byte	0
 728 0310 11       		.uleb128 0x11
 729 0311 54000000 		.4byte	.LVL5
 730 0315 35040000 		.4byte	0x435
 731 0319 2A030000 		.4byte	0x32a
 732 031d 12       		.uleb128 0x12
 733 031e 01       		.byte	0x1
 734 031f 51       		.byte	0x51
 735 0320 02       		.byte	0x2
 736 0321 91       		.byte	0x91
ARM GAS  C:\Users\tom\AppData\Local\Temp\ccXxlWLv.s 			page 15


 737 0322 5C       		.sleb128 -36
 738 0323 12       		.uleb128 0x12
 739 0324 01       		.byte	0x1
 740 0325 50       		.byte	0x50
 741 0326 02       		.byte	0x2
 742 0327 75       		.byte	0x75
 743 0328 00       		.sleb128 0
 744 0329 00       		.byte	0
 745 032a 11       		.uleb128 0x11
 746 032b 5C000000 		.4byte	.LVL6
 747 032f 55040000 		.4byte	0x455
 748 0333 3E030000 		.4byte	0x33e
 749 0337 12       		.uleb128 0x12
 750 0338 01       		.byte	0x1
 751 0339 50       		.byte	0x50
 752 033a 02       		.byte	0x2
 753 033b 91       		.byte	0x91
 754 033c 60       		.sleb128 -32
 755 033d 00       		.byte	0
 756 033e 11       		.uleb128 0x11
 757 033f 6A000000 		.4byte	.LVL7
 758 0343 70040000 		.4byte	0x470
 759 0347 58030000 		.4byte	0x358
 760 034b 12       		.uleb128 0x12
 761 034c 01       		.byte	0x1
 762 034d 51       		.byte	0x51
 763 034e 02       		.byte	0x2
 764 034f 91       		.byte	0x91
 765 0350 60       		.sleb128 -32
 766 0351 12       		.uleb128 0x12
 767 0352 01       		.byte	0x1
 768 0353 50       		.byte	0x50
 769 0354 02       		.byte	0x2
 770 0355 74       		.byte	0x74
 771 0356 00       		.sleb128 0
 772 0357 00       		.byte	0
 773 0358 13       		.uleb128 0x13
 774 0359 72000000 		.4byte	.LVL8
 775 035d 8A040000 		.4byte	0x48a
 776 0361 12       		.uleb128 0x12
 777 0362 01       		.byte	0x1
 778 0363 51       		.byte	0x51
 779 0364 01       		.byte	0x1
 780 0365 31       		.byte	0x31
 781 0366 12       		.uleb128 0x12
 782 0367 01       		.byte	0x1
 783 0368 50       		.byte	0x50
 784 0369 02       		.byte	0x2
 785 036a 74       		.byte	0x74
 786 036b 00       		.sleb128 0
 787 036c 00       		.byte	0
 788 036d 00       		.byte	0
 789 036e 14       		.uleb128 0x14
 790 036f 01       		.byte	0x1
 791 0370 C9010000 		.4byte	.LASF48
 792 0374 01       		.byte	0x1
 793 0375 20       		.byte	0x20
ARM GAS  C:\Users\tom\AppData\Local\Temp\ccXxlWLv.s 			page 16


 794 0376 01       		.byte	0x1
 795 0377 00000000 		.4byte	.LFB57
 796 037b 44010000 		.4byte	.LFE57
 797 037f 38000000 		.4byte	.LLST1
 798 0383 01       		.byte	0x1
 799 0384 D8030000 		.4byte	0x3d8
 800 0388 15       		.uleb128 0x15
 801 0389 D0020000 		.4byte	.LASF59
 802 038d 01       		.byte	0x1
 803 038e 20       		.byte	0x20
 804 038f 82000000 		.4byte	0x82
 805 0393 58000000 		.4byte	.LLST2
 806 0397 16       		.uleb128 0x16
 807 0398 76616C00 		.ascii	"val\000"
 808 039c 01       		.byte	0x1
 809 039d 22       		.byte	0x22
 810 039e 49000000 		.4byte	0x49
 811 03a2 11       		.uleb128 0x11
 812 03a3 56000000 		.4byte	.LVL19
 813 03a7 A4040000 		.4byte	0x4a4
 814 03ab B5030000 		.4byte	0x3b5
 815 03af 12       		.uleb128 0x12
 816 03b0 01       		.byte	0x1
 817 03b1 50       		.byte	0x50
 818 03b2 01       		.byte	0x1
 819 03b3 30       		.byte	0x30
 820 03b4 00       		.byte	0
 821 03b5 11       		.uleb128 0x11
 822 03b6 A2000000 		.4byte	.LVL28
 823 03ba A4040000 		.4byte	0x4a4
 824 03be C8030000 		.4byte	0x3c8
 825 03c2 12       		.uleb128 0x12
 826 03c3 01       		.byte	0x1
 827 03c4 50       		.byte	0x50
 828 03c5 01       		.byte	0x1
 829 03c6 30       		.byte	0x30
 830 03c7 00       		.byte	0
 831 03c8 13       		.uleb128 0x13
 832 03c9 F2000000 		.4byte	.LVL38
 833 03cd A4040000 		.4byte	0x4a4
 834 03d1 12       		.uleb128 0x12
 835 03d2 01       		.byte	0x1
 836 03d3 50       		.byte	0x50
 837 03d4 01       		.byte	0x1
 838 03d5 30       		.byte	0x30
 839 03d6 00       		.byte	0
 840 03d7 00       		.byte	0
 841 03d8 17       		.uleb128 0x17
 842 03d9 C9030000 		.4byte	.LASF60
 843 03dd 08       		.byte	0x8
 844 03de 0606     		.2byte	0x606
 845 03e0 C4000000 		.4byte	0xc4
 846 03e4 01       		.byte	0x1
 847 03e5 01       		.byte	0x1
 848 03e6 18       		.uleb128 0x18
 849 03e7 01       		.byte	0x1
 850 03e8 34010000 		.4byte	.LASF49
ARM GAS  C:\Users\tom\AppData\Local\Temp\ccXxlWLv.s 			page 17


 851 03ec 07       		.byte	0x7
 852 03ed BC02     		.2byte	0x2bc
 853 03ef 01       		.byte	0x1
 854 03f0 01       		.byte	0x1
 855 03f1 00040000 		.4byte	0x400
 856 03f5 19       		.uleb128 0x19
 857 03f6 A6000000 		.4byte	0xa6
 858 03fa 19       		.uleb128 0x19
 859 03fb DF000000 		.4byte	0xdf
 860 03ff 00       		.byte	0
 861 0400 18       		.uleb128 0x18
 862 0401 01       		.byte	0x1
 863 0402 E3020000 		.4byte	.LASF50
 864 0406 07       		.byte	0x7
 865 0407 BB02     		.2byte	0x2bb
 866 0409 01       		.byte	0x1
 867 040a 01       		.byte	0x1
 868 040b 1A040000 		.4byte	0x41a
 869 040f 19       		.uleb128 0x19
 870 0410 A6000000 		.4byte	0xa6
 871 0414 19       		.uleb128 0x19
 872 0415 DF000000 		.4byte	0xdf
 873 0419 00       		.byte	0
 874 041a 18       		.uleb128 0x18
 875 041b 01       		.byte	0x1
 876 041c 20000000 		.4byte	.LASF51
 877 0420 06       		.byte	0x6
 878 0421 6601     		.2byte	0x166
 879 0423 01       		.byte	0x1
 880 0424 01       		.byte	0x1
 881 0425 2F040000 		.4byte	0x42f
 882 0429 19       		.uleb128 0x19
 883 042a 2F040000 		.4byte	0x42f
 884 042e 00       		.byte	0
 885 042f 1A       		.uleb128 0x1a
 886 0430 04       		.byte	0x4
 887 0431 54020000 		.4byte	0x254
 888 0435 18       		.uleb128 0x18
 889 0436 01       		.byte	0x1
 890 0437 A4000000 		.4byte	.LASF52
 891 043b 06       		.byte	0x6
 892 043c 6501     		.2byte	0x165
 893 043e 01       		.byte	0x1
 894 043f 01       		.byte	0x1
 895 0440 4F040000 		.4byte	0x44f
 896 0444 19       		.uleb128 0x19
 897 0445 4F040000 		.4byte	0x44f
 898 0449 19       		.uleb128 0x19
 899 044a 2F040000 		.4byte	0x42f
 900 044e 00       		.byte	0
 901 044f 1A       		.uleb128 0x1a
 902 0450 04       		.byte	0x4
 903 0451 5E010000 		.4byte	0x15e
 904 0455 18       		.uleb128 0x18
 905 0456 01       		.byte	0x1
 906 0457 69010000 		.4byte	.LASF53
 907 045b 05       		.byte	0x5
ARM GAS  C:\Users\tom\AppData\Local\Temp\ccXxlWLv.s 			page 18


 908 045c 1E01     		.2byte	0x11e
 909 045e 01       		.byte	0x1
 910 045f 01       		.byte	0x1
 911 0460 6A040000 		.4byte	0x46a
 912 0464 19       		.uleb128 0x19
 913 0465 6A040000 		.4byte	0x46a
 914 0469 00       		.byte	0
 915 046a 1A       		.uleb128 0x1a
 916 046b 04       		.byte	0x4
 917 046c AB010000 		.4byte	0x1ab
 918 0470 18       		.uleb128 0x18
 919 0471 01       		.byte	0x1
 920 0472 87030000 		.4byte	.LASF54
 921 0476 05       		.byte	0x5
 922 0477 1D01     		.2byte	0x11d
 923 0479 01       		.byte	0x1
 924 047a 01       		.byte	0x1
 925 047b 8A040000 		.4byte	0x48a
 926 047f 19       		.uleb128 0x19
 927 0480 A6000000 		.4byte	0xa6
 928 0484 19       		.uleb128 0x19
 929 0485 6A040000 		.4byte	0x46a
 930 0489 00       		.byte	0
 931 048a 18       		.uleb128 0x18
 932 048b 01       		.byte	0x1
 933 048c 5B030000 		.4byte	.LASF55
 934 0490 05       		.byte	0x5
 935 0491 1F01     		.2byte	0x11f
 936 0493 01       		.byte	0x1
 937 0494 01       		.byte	0x1
 938 0495 A4040000 		.4byte	0x4a4
 939 0499 19       		.uleb128 0x19
 940 049a A6000000 		.4byte	0xa6
 941 049e 19       		.uleb128 0x19
 942 049f DF000000 		.4byte	0xdf
 943 04a3 00       		.byte	0
 944 04a4 1B       		.uleb128 0x1b
 945 04a5 01       		.byte	0x1
 946 04a6 20010000 		.4byte	.LASF61
 947 04aa 05       		.byte	0x5
 948 04ab 2701     		.2byte	0x127
 949 04ad 01       		.byte	0x1
 950 04ae 01       		.byte	0x1
 951 04af 19       		.uleb128 0x19
 952 04b0 A6000000 		.4byte	0xa6
 953 04b4 19       		.uleb128 0x19
 954 04b5 90000000 		.4byte	0x90
 955 04b9 00       		.byte	0
 956 04ba 00       		.byte	0
 957              		.section	.debug_abbrev,"",%progbits
 958              	.Ldebug_abbrev0:
 959 0000 01       		.uleb128 0x1
 960 0001 11       		.uleb128 0x11
 961 0002 01       		.byte	0x1
 962 0003 25       		.uleb128 0x25
 963 0004 0E       		.uleb128 0xe
 964 0005 13       		.uleb128 0x13
ARM GAS  C:\Users\tom\AppData\Local\Temp\ccXxlWLv.s 			page 19


 965 0006 0B       		.uleb128 0xb
 966 0007 03       		.uleb128 0x3
 967 0008 0E       		.uleb128 0xe
 968 0009 1B       		.uleb128 0x1b
 969 000a 0E       		.uleb128 0xe
 970 000b 55       		.uleb128 0x55
 971 000c 06       		.uleb128 0x6
 972 000d 11       		.uleb128 0x11
 973 000e 01       		.uleb128 0x1
 974 000f 52       		.uleb128 0x52
 975 0010 01       		.uleb128 0x1
 976 0011 10       		.uleb128 0x10
 977 0012 06       		.uleb128 0x6
 978 0013 00       		.byte	0
 979 0014 00       		.byte	0
 980 0015 02       		.uleb128 0x2
 981 0016 24       		.uleb128 0x24
 982 0017 00       		.byte	0
 983 0018 0B       		.uleb128 0xb
 984 0019 0B       		.uleb128 0xb
 985 001a 3E       		.uleb128 0x3e
 986 001b 0B       		.uleb128 0xb
 987 001c 03       		.uleb128 0x3
 988 001d 0E       		.uleb128 0xe
 989 001e 00       		.byte	0
 990 001f 00       		.byte	0
 991 0020 03       		.uleb128 0x3
 992 0021 16       		.uleb128 0x16
 993 0022 00       		.byte	0
 994 0023 03       		.uleb128 0x3
 995 0024 0E       		.uleb128 0xe
 996 0025 3A       		.uleb128 0x3a
 997 0026 0B       		.uleb128 0xb
 998 0027 3B       		.uleb128 0x3b
 999 0028 0B       		.uleb128 0xb
 1000 0029 49       		.uleb128 0x49
 1001 002a 13       		.uleb128 0x13
 1002 002b 00       		.byte	0
 1003 002c 00       		.byte	0
 1004 002d 04       		.uleb128 0x4
 1005 002e 24       		.uleb128 0x24
 1006 002f 00       		.byte	0
 1007 0030 0B       		.uleb128 0xb
 1008 0031 0B       		.uleb128 0xb
 1009 0032 3E       		.uleb128 0x3e
 1010 0033 0B       		.uleb128 0xb
 1011 0034 03       		.uleb128 0x3
 1012 0035 08       		.uleb128 0x8
 1013 0036 00       		.byte	0
 1014 0037 00       		.byte	0
 1015 0038 05       		.uleb128 0x5
 1016 0039 35       		.uleb128 0x35
 1017 003a 00       		.byte	0
 1018 003b 49       		.uleb128 0x49
 1019 003c 13       		.uleb128 0x13
 1020 003d 00       		.byte	0
 1021 003e 00       		.byte	0
ARM GAS  C:\Users\tom\AppData\Local\Temp\ccXxlWLv.s 			page 20


 1022 003f 06       		.uleb128 0x6
 1023 0040 04       		.uleb128 0x4
 1024 0041 01       		.byte	0x1
 1025 0042 0B       		.uleb128 0xb
 1026 0043 0B       		.uleb128 0xb
 1027 0044 3A       		.uleb128 0x3a
 1028 0045 0B       		.uleb128 0xb
 1029 0046 3B       		.uleb128 0x3b
 1030 0047 05       		.uleb128 0x5
 1031 0048 01       		.uleb128 0x1
 1032 0049 13       		.uleb128 0x13
 1033 004a 00       		.byte	0
 1034 004b 00       		.byte	0
 1035 004c 07       		.uleb128 0x7
 1036 004d 28       		.uleb128 0x28
 1037 004e 00       		.byte	0
 1038 004f 03       		.uleb128 0x3
 1039 0050 0E       		.uleb128 0xe
 1040 0051 1C       		.uleb128 0x1c
 1041 0052 0D       		.uleb128 0xd
 1042 0053 00       		.byte	0
 1043 0054 00       		.byte	0
 1044 0055 08       		.uleb128 0x8
 1045 0056 16       		.uleb128 0x16
 1046 0057 00       		.byte	0
 1047 0058 03       		.uleb128 0x3
 1048 0059 0E       		.uleb128 0xe
 1049 005a 3A       		.uleb128 0x3a
 1050 005b 0B       		.uleb128 0xb
 1051 005c 3B       		.uleb128 0x3b
 1052 005d 05       		.uleb128 0x5
 1053 005e 49       		.uleb128 0x49
 1054 005f 13       		.uleb128 0x13
 1055 0060 00       		.byte	0
 1056 0061 00       		.byte	0
 1057 0062 09       		.uleb128 0x9
 1058 0063 13       		.uleb128 0x13
 1059 0064 01       		.byte	0x1
 1060 0065 0B       		.uleb128 0xb
 1061 0066 0B       		.uleb128 0xb
 1062 0067 3A       		.uleb128 0x3a
 1063 0068 0B       		.uleb128 0xb
 1064 0069 3B       		.uleb128 0x3b
 1065 006a 05       		.uleb128 0x5
 1066 006b 01       		.uleb128 0x1
 1067 006c 13       		.uleb128 0x13
 1068 006d 00       		.byte	0
 1069 006e 00       		.byte	0
 1070 006f 0A       		.uleb128 0xa
 1071 0070 0D       		.uleb128 0xd
 1072 0071 00       		.byte	0
 1073 0072 03       		.uleb128 0x3
 1074 0073 08       		.uleb128 0x8
 1075 0074 3A       		.uleb128 0x3a
 1076 0075 0B       		.uleb128 0xb
 1077 0076 3B       		.uleb128 0x3b
 1078 0077 05       		.uleb128 0x5
ARM GAS  C:\Users\tom\AppData\Local\Temp\ccXxlWLv.s 			page 21


 1079 0078 49       		.uleb128 0x49
 1080 0079 13       		.uleb128 0x13
 1081 007a 38       		.uleb128 0x38
 1082 007b 0A       		.uleb128 0xa
 1083 007c 00       		.byte	0
 1084 007d 00       		.byte	0
 1085 007e 0B       		.uleb128 0xb
 1086 007f 0D       		.uleb128 0xd
 1087 0080 00       		.byte	0
 1088 0081 03       		.uleb128 0x3
 1089 0082 0E       		.uleb128 0xe
 1090 0083 3A       		.uleb128 0x3a
 1091 0084 0B       		.uleb128 0xb
 1092 0085 3B       		.uleb128 0x3b
 1093 0086 05       		.uleb128 0x5
 1094 0087 49       		.uleb128 0x49
 1095 0088 13       		.uleb128 0x13
 1096 0089 38       		.uleb128 0x38
 1097 008a 0A       		.uleb128 0xa
 1098 008b 00       		.byte	0
 1099 008c 00       		.byte	0
 1100 008d 0C       		.uleb128 0xc
 1101 008e 13       		.uleb128 0x13
 1102 008f 01       		.byte	0x1
 1103 0090 0B       		.uleb128 0xb
 1104 0091 0B       		.uleb128 0xb
 1105 0092 3A       		.uleb128 0x3a
 1106 0093 0B       		.uleb128 0xb
 1107 0094 3B       		.uleb128 0x3b
 1108 0095 0B       		.uleb128 0xb
 1109 0096 01       		.uleb128 0x1
 1110 0097 13       		.uleb128 0x13
 1111 0098 00       		.byte	0
 1112 0099 00       		.byte	0
 1113 009a 0D       		.uleb128 0xd
 1114 009b 0D       		.uleb128 0xd
 1115 009c 00       		.byte	0
 1116 009d 03       		.uleb128 0x3
 1117 009e 0E       		.uleb128 0xe
 1118 009f 3A       		.uleb128 0x3a
 1119 00a0 0B       		.uleb128 0xb
 1120 00a1 3B       		.uleb128 0x3b
 1121 00a2 0B       		.uleb128 0xb
 1122 00a3 49       		.uleb128 0x49
 1123 00a4 13       		.uleb128 0x13
 1124 00a5 38       		.uleb128 0x38
 1125 00a6 0A       		.uleb128 0xa
 1126 00a7 00       		.byte	0
 1127 00a8 00       		.byte	0
 1128 00a9 0E       		.uleb128 0xe
 1129 00aa 04       		.uleb128 0x4
 1130 00ab 01       		.byte	0x1
 1131 00ac 0B       		.uleb128 0xb
 1132 00ad 0B       		.uleb128 0xb
 1133 00ae 3A       		.uleb128 0x3a
 1134 00af 0B       		.uleb128 0xb
 1135 00b0 3B       		.uleb128 0x3b
ARM GAS  C:\Users\tom\AppData\Local\Temp\ccXxlWLv.s 			page 22


 1136 00b1 0B       		.uleb128 0xb
 1137 00b2 01       		.uleb128 0x1
 1138 00b3 13       		.uleb128 0x13
 1139 00b4 00       		.byte	0
 1140 00b5 00       		.byte	0
 1141 00b6 0F       		.uleb128 0xf
 1142 00b7 2E       		.uleb128 0x2e
 1143 00b8 01       		.byte	0x1
 1144 00b9 3F       		.uleb128 0x3f
 1145 00ba 0C       		.uleb128 0xc
 1146 00bb 03       		.uleb128 0x3
 1147 00bc 0E       		.uleb128 0xe
 1148 00bd 3A       		.uleb128 0x3a
 1149 00be 0B       		.uleb128 0xb
 1150 00bf 3B       		.uleb128 0x3b
 1151 00c0 0B       		.uleb128 0xb
 1152 00c1 27       		.uleb128 0x27
 1153 00c2 0C       		.uleb128 0xc
 1154 00c3 11       		.uleb128 0x11
 1155 00c4 01       		.uleb128 0x1
 1156 00c5 12       		.uleb128 0x12
 1157 00c6 01       		.uleb128 0x1
 1158 00c7 40       		.uleb128 0x40
 1159 00c8 06       		.uleb128 0x6
 1160 00c9 9742     		.uleb128 0x2117
 1161 00cb 0C       		.uleb128 0xc
 1162 00cc 01       		.uleb128 0x1
 1163 00cd 13       		.uleb128 0x13
 1164 00ce 00       		.byte	0
 1165 00cf 00       		.byte	0
 1166 00d0 10       		.uleb128 0x10
 1167 00d1 34       		.uleb128 0x34
 1168 00d2 00       		.byte	0
 1169 00d3 03       		.uleb128 0x3
 1170 00d4 0E       		.uleb128 0xe
 1171 00d5 3A       		.uleb128 0x3a
 1172 00d6 0B       		.uleb128 0xb
 1173 00d7 3B       		.uleb128 0x3b
 1174 00d8 0B       		.uleb128 0xb
 1175 00d9 49       		.uleb128 0x49
 1176 00da 13       		.uleb128 0x13
 1177 00db 02       		.uleb128 0x2
 1178 00dc 0A       		.uleb128 0xa
 1179 00dd 00       		.byte	0
 1180 00de 00       		.byte	0
 1181 00df 11       		.uleb128 0x11
 1182 00e0 898201   		.uleb128 0x4109
 1183 00e3 01       		.byte	0x1
 1184 00e4 11       		.uleb128 0x11
 1185 00e5 01       		.uleb128 0x1
 1186 00e6 31       		.uleb128 0x31
 1187 00e7 13       		.uleb128 0x13
 1188 00e8 01       		.uleb128 0x1
 1189 00e9 13       		.uleb128 0x13
 1190 00ea 00       		.byte	0
 1191 00eb 00       		.byte	0
 1192 00ec 12       		.uleb128 0x12
ARM GAS  C:\Users\tom\AppData\Local\Temp\ccXxlWLv.s 			page 23


 1193 00ed 8A8201   		.uleb128 0x410a
 1194 00f0 00       		.byte	0
 1195 00f1 02       		.uleb128 0x2
 1196 00f2 0A       		.uleb128 0xa
 1197 00f3 9142     		.uleb128 0x2111
 1198 00f5 0A       		.uleb128 0xa
 1199 00f6 00       		.byte	0
 1200 00f7 00       		.byte	0
 1201 00f8 13       		.uleb128 0x13
 1202 00f9 898201   		.uleb128 0x4109
 1203 00fc 01       		.byte	0x1
 1204 00fd 11       		.uleb128 0x11
 1205 00fe 01       		.uleb128 0x1
 1206 00ff 31       		.uleb128 0x31
 1207 0100 13       		.uleb128 0x13
 1208 0101 00       		.byte	0
 1209 0102 00       		.byte	0
 1210 0103 14       		.uleb128 0x14
 1211 0104 2E       		.uleb128 0x2e
 1212 0105 01       		.byte	0x1
 1213 0106 3F       		.uleb128 0x3f
 1214 0107 0C       		.uleb128 0xc
 1215 0108 03       		.uleb128 0x3
 1216 0109 0E       		.uleb128 0xe
 1217 010a 3A       		.uleb128 0x3a
 1218 010b 0B       		.uleb128 0xb
 1219 010c 3B       		.uleb128 0x3b
 1220 010d 0B       		.uleb128 0xb
 1221 010e 27       		.uleb128 0x27
 1222 010f 0C       		.uleb128 0xc
 1223 0110 11       		.uleb128 0x11
 1224 0111 01       		.uleb128 0x1
 1225 0112 12       		.uleb128 0x12
 1226 0113 01       		.uleb128 0x1
 1227 0114 40       		.uleb128 0x40
 1228 0115 06       		.uleb128 0x6
 1229 0116 9642     		.uleb128 0x2116
 1230 0118 0C       		.uleb128 0xc
 1231 0119 01       		.uleb128 0x1
 1232 011a 13       		.uleb128 0x13
 1233 011b 00       		.byte	0
 1234 011c 00       		.byte	0
 1235 011d 15       		.uleb128 0x15
 1236 011e 05       		.uleb128 0x5
 1237 011f 00       		.byte	0
 1238 0120 03       		.uleb128 0x3
 1239 0121 0E       		.uleb128 0xe
 1240 0122 3A       		.uleb128 0x3a
 1241 0123 0B       		.uleb128 0xb
 1242 0124 3B       		.uleb128 0x3b
 1243 0125 0B       		.uleb128 0xb
 1244 0126 49       		.uleb128 0x49
 1245 0127 13       		.uleb128 0x13
 1246 0128 02       		.uleb128 0x2
 1247 0129 06       		.uleb128 0x6
 1248 012a 00       		.byte	0
 1249 012b 00       		.byte	0
ARM GAS  C:\Users\tom\AppData\Local\Temp\ccXxlWLv.s 			page 24


 1250 012c 16       		.uleb128 0x16
 1251 012d 34       		.uleb128 0x34
 1252 012e 00       		.byte	0
 1253 012f 03       		.uleb128 0x3
 1254 0130 08       		.uleb128 0x8
 1255 0131 3A       		.uleb128 0x3a
 1256 0132 0B       		.uleb128 0xb
 1257 0133 3B       		.uleb128 0x3b
 1258 0134 0B       		.uleb128 0xb
 1259 0135 49       		.uleb128 0x49
 1260 0136 13       		.uleb128 0x13
 1261 0137 00       		.byte	0
 1262 0138 00       		.byte	0
 1263 0139 17       		.uleb128 0x17
 1264 013a 34       		.uleb128 0x34
 1265 013b 00       		.byte	0
 1266 013c 03       		.uleb128 0x3
 1267 013d 0E       		.uleb128 0xe
 1268 013e 3A       		.uleb128 0x3a
 1269 013f 0B       		.uleb128 0xb
 1270 0140 3B       		.uleb128 0x3b
 1271 0141 05       		.uleb128 0x5
 1272 0142 49       		.uleb128 0x49
 1273 0143 13       		.uleb128 0x13
 1274 0144 3F       		.uleb128 0x3f
 1275 0145 0C       		.uleb128 0xc
 1276 0146 3C       		.uleb128 0x3c
 1277 0147 0C       		.uleb128 0xc
 1278 0148 00       		.byte	0
 1279 0149 00       		.byte	0
 1280 014a 18       		.uleb128 0x18
 1281 014b 2E       		.uleb128 0x2e
 1282 014c 01       		.byte	0x1
 1283 014d 3F       		.uleb128 0x3f
 1284 014e 0C       		.uleb128 0xc
 1285 014f 03       		.uleb128 0x3
 1286 0150 0E       		.uleb128 0xe
 1287 0151 3A       		.uleb128 0x3a
 1288 0152 0B       		.uleb128 0xb
 1289 0153 3B       		.uleb128 0x3b
 1290 0154 05       		.uleb128 0x5
 1291 0155 27       		.uleb128 0x27
 1292 0156 0C       		.uleb128 0xc
 1293 0157 3C       		.uleb128 0x3c
 1294 0158 0C       		.uleb128 0xc
 1295 0159 01       		.uleb128 0x1
 1296 015a 13       		.uleb128 0x13
 1297 015b 00       		.byte	0
 1298 015c 00       		.byte	0
 1299 015d 19       		.uleb128 0x19
 1300 015e 05       		.uleb128 0x5
 1301 015f 00       		.byte	0
 1302 0160 49       		.uleb128 0x49
 1303 0161 13       		.uleb128 0x13
 1304 0162 00       		.byte	0
 1305 0163 00       		.byte	0
 1306 0164 1A       		.uleb128 0x1a
ARM GAS  C:\Users\tom\AppData\Local\Temp\ccXxlWLv.s 			page 25


 1307 0165 0F       		.uleb128 0xf
 1308 0166 00       		.byte	0
 1309 0167 0B       		.uleb128 0xb
 1310 0168 0B       		.uleb128 0xb
 1311 0169 49       		.uleb128 0x49
 1312 016a 13       		.uleb128 0x13
 1313 016b 00       		.byte	0
 1314 016c 00       		.byte	0
 1315 016d 1B       		.uleb128 0x1b
 1316 016e 2E       		.uleb128 0x2e
 1317 016f 01       		.byte	0x1
 1318 0170 3F       		.uleb128 0x3f
 1319 0171 0C       		.uleb128 0xc
 1320 0172 03       		.uleb128 0x3
 1321 0173 0E       		.uleb128 0xe
 1322 0174 3A       		.uleb128 0x3a
 1323 0175 0B       		.uleb128 0xb
 1324 0176 3B       		.uleb128 0x3b
 1325 0177 05       		.uleb128 0x5
 1326 0178 27       		.uleb128 0x27
 1327 0179 0C       		.uleb128 0xc
 1328 017a 3C       		.uleb128 0x3c
 1329 017b 0C       		.uleb128 0xc
 1330 017c 00       		.byte	0
 1331 017d 00       		.byte	0
 1332 017e 00       		.byte	0
 1333              		.section	.debug_loc,"",%progbits
 1334              	.Ldebug_loc0:
 1335              	.LLST0:
 1336 0000 00000000 		.4byte	.LFB56
 1337 0004 02000000 		.4byte	.LCFI0
 1338 0008 0200     		.2byte	0x2
 1339 000a 7D       		.byte	0x7d
 1340 000b 00       		.sleb128 0
 1341 000c 02000000 		.4byte	.LCFI0
 1342 0010 08000000 		.4byte	.LCFI1
 1343 0014 0200     		.2byte	0x2
 1344 0016 7D       		.byte	0x7d
 1345 0017 10       		.sleb128 16
 1346 0018 08000000 		.4byte	.LCFI1
 1347 001c 74000000 		.4byte	.LCFI2
 1348 0020 0200     		.2byte	0x2
 1349 0022 7D       		.byte	0x7d
 1350 0023 28       		.sleb128 40
 1351 0024 74000000 		.4byte	.LCFI2
 1352 0028 80000000 		.4byte	.LFE56
 1353 002c 0200     		.2byte	0x2
 1354 002e 7D       		.byte	0x7d
 1355 002f 10       		.sleb128 16
 1356 0030 00000000 		.4byte	0
 1357 0034 00000000 		.4byte	0
 1358              	.LLST1:
 1359 0038 00000000 		.4byte	.LFB57
 1360 003c 02000000 		.4byte	.LCFI3
 1361 0040 0200     		.2byte	0x2
 1362 0042 7D       		.byte	0x7d
 1363 0043 00       		.sleb128 0
ARM GAS  C:\Users\tom\AppData\Local\Temp\ccXxlWLv.s 			page 26


 1364 0044 02000000 		.4byte	.LCFI3
 1365 0048 44010000 		.4byte	.LFE57
 1366 004c 0200     		.2byte	0x2
 1367 004e 7D       		.byte	0x7d
 1368 004f 08       		.sleb128 8
 1369 0050 00000000 		.4byte	0
 1370 0054 00000000 		.4byte	0
 1371              	.LLST2:
 1372 0058 00000000 		.4byte	.LVL9
 1373 005c 11000000 		.4byte	.LVL11-1
 1374 0060 0100     		.2byte	0x1
 1375 0062 50       		.byte	0x50
 1376 0063 11000000 		.4byte	.LVL11-1
 1377 0067 5C000000 		.4byte	.LVL20
 1378 006b 0400     		.2byte	0x4
 1379 006d F3       		.byte	0xf3
 1380 006e 01       		.uleb128 0x1
 1381 006f 50       		.byte	0x50
 1382 0070 9F       		.byte	0x9f
 1383 0071 5C000000 		.4byte	.LVL20
 1384 0075 65000000 		.4byte	.LVL21-1
 1385 0079 0100     		.2byte	0x1
 1386 007b 50       		.byte	0x50
 1387 007c 65000000 		.4byte	.LVL21-1
 1388 0080 A8000000 		.4byte	.LVL29
 1389 0084 0400     		.2byte	0x4
 1390 0086 F3       		.byte	0xf3
 1391 0087 01       		.uleb128 0x1
 1392 0088 50       		.byte	0x50
 1393 0089 9F       		.byte	0x9f
 1394 008a A8000000 		.4byte	.LVL29
 1395 008e AB000000 		.4byte	.LVL30-1
 1396 0092 0100     		.2byte	0x1
 1397 0094 50       		.byte	0x50
 1398 0095 AB000000 		.4byte	.LVL30-1
 1399 0099 44010000 		.4byte	.LFE57
 1400 009d 0400     		.2byte	0x4
 1401 009f F3       		.byte	0xf3
 1402 00a0 01       		.uleb128 0x1
 1403 00a1 50       		.byte	0x50
 1404 00a2 9F       		.byte	0x9f
 1405 00a3 00000000 		.4byte	0
 1406 00a7 00000000 		.4byte	0
 1407              		.section	.debug_aranges,"",%progbits
 1408 0000 24000000 		.4byte	0x24
 1409 0004 0200     		.2byte	0x2
 1410 0006 00000000 		.4byte	.Ldebug_info0
 1411 000a 04       		.byte	0x4
 1412 000b 00       		.byte	0
 1413 000c 0000     		.2byte	0
 1414 000e 0000     		.2byte	0
 1415 0010 00000000 		.4byte	.LFB56
 1416 0014 80000000 		.4byte	.LFE56-.LFB56
 1417 0018 00000000 		.4byte	.LFB57
 1418 001c 44010000 		.4byte	.LFE57-.LFB57
 1419 0020 00000000 		.4byte	0
 1420 0024 00000000 		.4byte	0
ARM GAS  C:\Users\tom\AppData\Local\Temp\ccXxlWLv.s 			page 27


 1421              		.section	.debug_ranges,"",%progbits
 1422              	.Ldebug_ranges0:
 1423 0000 00000000 		.4byte	.LFB56
 1424 0004 80000000 		.4byte	.LFE56
 1425 0008 00000000 		.4byte	.LFB57
 1426 000c 44010000 		.4byte	.LFE57
 1427 0010 00000000 		.4byte	0
 1428 0014 00000000 		.4byte	0
 1429              		.section	.debug_line,"",%progbits
 1430              	.Ldebug_line0:
 1431 0000 87010000 		.section	.debug_str,"MS",%progbits,1
 1431      02003601 
 1431      00000201 
 1431      FB0E0D00 
 1431      01010101 
 1432              	.LASF22:
 1433 0000 4750494F 		.ascii	"GPIO_TypeDef\000"
 1433      5F547970 
 1433      65446566 
 1433      00
 1434              	.LASF41:
 1435 000d 4750494F 		.ascii	"GPIO_Pin\000"
 1435      5F50696E 
 1435      00
 1436              	.LASF2:
 1437 0016 73686F72 		.ascii	"short int\000"
 1437      7420696E 
 1437      7400
 1438              	.LASF51:
 1439 0020 4750494F 		.ascii	"GPIO_StructInit\000"
 1439      5F537472 
 1439      75637449 
 1439      6E697400 
 1440              	.LASF15:
 1441 0030 73697A65 		.ascii	"sizetype\000"
 1441      74797065 
 1441      00
 1442              	.LASF4:
 1443 0039 5F5F7569 		.ascii	"__uint16_t\000"
 1443      6E743136 
 1443      5F7400
 1444              	.LASF7:
 1445 0044 5F5F7569 		.ascii	"__uint32_t\000"
 1445      6E743332 
 1445      5F7400
 1446              	.LASF26:
 1447 004f 4441435F 		.ascii	"DAC_OutputBuffer\000"
 1447      4F757470 
 1447      75744275 
 1447      66666572 
 1447      00
 1448              	.LASF58:
 1449 0060 443A5C77 		.ascii	"D:\\work\\__my_github\\diy\\battery_analyzer\\firmw"
 1449      6F726B5C 
 1449      5F5F6D79 
 1449      5F676974 
 1449      6875625C 
ARM GAS  C:\Users\tom\AppData\Local\Temp\ccXxlWLv.s 			page 28


 1450 008e 61726500 		.ascii	"are\000"
 1451              	.LASF18:
 1452 0092 454E4142 		.ascii	"ENABLE\000"
 1452      4C4500
 1453              	.LASF42:
 1454 0099 4750494F 		.ascii	"GPIO_Speed\000"
 1454      5F537065 
 1454      656400
 1455              	.LASF52:
 1456 00a4 4750494F 		.ascii	"GPIO_Init\000"
 1456      5F496E69 
 1456      7400
 1457              	.LASF27:
 1458 00ae 4441435F 		.ascii	"DAC_InitTypeDef\000"
 1458      496E6974 
 1458      54797065 
 1458      44656600 
 1459              	.LASF36:
 1460 00be 4750494F 		.ascii	"GPIO_Mode_Out_OD\000"
 1460      5F4D6F64 
 1460      655F4F75 
 1460      745F4F44 
 1460      00
 1461              	.LASF17:
 1462 00cf 44495341 		.ascii	"DISABLE\000"
 1462      424C4500 
 1463              	.LASF0:
 1464 00d7 7369676E 		.ascii	"signed char\000"
 1464      65642063 
 1464      68617200 
 1465              	.LASF39:
 1466 00e3 4750494F 		.ascii	"GPIO_Mode_AF_PP\000"
 1466      5F4D6F64 
 1466      655F4146 
 1466      5F505000 
 1467              	.LASF9:
 1468 00f3 6C6F6E67 		.ascii	"long long int\000"
 1468      206C6F6E 
 1468      6720696E 
 1468      7400
 1469              	.LASF6:
 1470 0101 6C6F6E67 		.ascii	"long int\000"
 1470      20696E74 
 1470      00
 1471              	.LASF20:
 1472 010a 42535252 		.ascii	"BSRR\000"
 1472      00
 1473              	.LASF28:
 1474 010f 4750494F 		.ascii	"GPIO_Speed_10MHz\000"
 1474      5F537065 
 1474      65645F31 
 1474      304D487A 
 1474      00
 1475              	.LASF61:
 1476 0120 4441435F 		.ascii	"DAC_SetChannel1Data\000"
 1476      53657443 
 1476      68616E6E 
ARM GAS  C:\Users\tom\AppData\Local\Temp\ccXxlWLv.s 			page 29


 1476      656C3144 
 1476      61746100 
 1477              	.LASF49:
 1478 0134 5243435F 		.ascii	"RCC_APB1PeriphClockCmd\000"
 1478      41504231 
 1478      50657269 
 1478      7068436C 
 1478      6F636B43 
 1479              	.LASF1:
 1480 014b 756E7369 		.ascii	"unsigned char\000"
 1480      676E6564 
 1480      20636861 
 1480      7200
 1481              	.LASF29:
 1482 0159 4750494F 		.ascii	"GPIO_Speed_2MHz\000"
 1482      5F537065 
 1482      65645F32 
 1482      4D487A00 
 1483              	.LASF53:
 1484 0169 4441435F 		.ascii	"DAC_StructInit\000"
 1484      53747275 
 1484      6374496E 
 1484      697400
 1485              	.LASF10:
 1486 0178 6C6F6E67 		.ascii	"long long unsigned int\000"
 1486      206C6F6E 
 1486      6720756E 
 1486      7369676E 
 1486      65642069 
 1487              	.LASF14:
 1488 018f 75696E74 		.ascii	"uint32_t\000"
 1488      33325F74 
 1488      00
 1489              	.LASF44:
 1490 0198 4750494F 		.ascii	"GPIO_InitTypeDef\000"
 1490      5F496E69 
 1490      74547970 
 1490      65446566 
 1490      00
 1491              	.LASF23:
 1492 01a9 4441435F 		.ascii	"DAC_Trigger\000"
 1492      54726967 
 1492      67657200 
 1493              	.LASF47:
 1494 01b5 4441435F 		.ascii	"DAC_Config\000"
 1494      436F6E66 
 1494      696700
 1495              	.LASF12:
 1496 01c0 75696E74 		.ascii	"uint16_t\000"
 1496      31365F74 
 1496      00
 1497              	.LASF48:
 1498 01c9 4441435F 		.ascii	"DAC_CurrentSet\000"
 1498      43757272 
 1498      656E7453 
 1498      657400
 1499              	.LASF56:
ARM GAS  C:\Users\tom\AppData\Local\Temp\ccXxlWLv.s 			page 30


 1500 01d8 474E5520 		.ascii	"GNU C 4.9.3 20150303 (release) [ARM/embedded-4_9-br"
 1500      4320342E 
 1500      392E3320 
 1500      32303135 
 1500      30333033 
 1501 020b 616E6368 		.ascii	"anch revision 221220] -mcpu=cortex-m3 -mthumb -g -g"
 1501      20726576 
 1501      6973696F 
 1501      6E203232 
 1501      31323230 
 1502 023e 64776172 		.ascii	"dwarf-2 -Os -std=gnu99 -ffunction-sections -fdata-s"
 1502      662D3220 
 1502      2D4F7320 
 1502      2D737464 
 1502      3D676E75 
 1503 0271 65637469 		.ascii	"ections\000"
 1503      6F6E7300 
 1504              	.LASF3:
 1505 0279 73686F72 		.ascii	"short unsigned int\000"
 1505      7420756E 
 1505      7369676E 
 1505      65642069 
 1505      6E7400
 1506              	.LASF16:
 1507 028c 63686172 		.ascii	"char\000"
 1507      00
 1508              	.LASF25:
 1509 0291 4441435F 		.ascii	"DAC_LFSRUnmask_TriangleAmplitude\000"
 1509      4C465352 
 1509      556E6D61 
 1509      736B5F54 
 1509      7269616E 
 1510              	.LASF57:
 1511 02b2 68772F64 		.ascii	"hw/dac_f1.c\000"
 1511      61635F66 
 1511      312E6300 
 1512              	.LASF13:
 1513 02be 696E7433 		.ascii	"int32_t\000"
 1513      325F7400 
 1514              	.LASF5:
 1515 02c6 5F5F696E 		.ascii	"__int32_t\000"
 1515      7433325F 
 1515      7400
 1516              	.LASF59:
 1517 02d0 63757272 		.ascii	"curr\000"
 1517      00
 1518              	.LASF35:
 1519 02d5 4750494F 		.ascii	"GPIO_Mode_IPU\000"
 1519      5F4D6F64 
 1519      655F4950 
 1519      5500
 1520              	.LASF50:
 1521 02e3 5243435F 		.ascii	"RCC_APB2PeriphClockCmd\000"
 1521      41504232 
 1521      50657269 
 1521      7068436C 
 1521      6F636B43 
ARM GAS  C:\Users\tom\AppData\Local\Temp\ccXxlWLv.s 			page 31


 1522              	.LASF32:
 1523 02fa 4750494F 		.ascii	"GPIO_Mode_AIN\000"
 1523      5F4D6F64 
 1523      655F4149 
 1523      4E00
 1524              	.LASF34:
 1525 0308 4750494F 		.ascii	"GPIO_Mode_IPD\000"
 1525      5F4D6F64 
 1525      655F4950 
 1525      4400
 1526              	.LASF8:
 1527 0316 6C6F6E67 		.ascii	"long unsigned int\000"
 1527      20756E73 
 1527      69676E65 
 1527      6420696E 
 1527      7400
 1528              	.LASF31:
 1529 0328 4750494F 		.ascii	"GPIOSpeed_TypeDef\000"
 1529      53706565 
 1529      645F5479 
 1529      70654465 
 1529      6600
 1530              	.LASF19:
 1531 033a 46756E63 		.ascii	"FunctionalState\000"
 1531      74696F6E 
 1531      616C5374 
 1531      61746500 
 1532              	.LASF37:
 1533 034a 4750494F 		.ascii	"GPIO_Mode_Out_PP\000"
 1533      5F4D6F64 
 1533      655F4F75 
 1533      745F5050 
 1533      00
 1534              	.LASF55:
 1535 035b 4441435F 		.ascii	"DAC_Cmd\000"
 1535      436D6400 
 1536              	.LASF45:
 1537 0363 4750494F 		.ascii	"GPIO_InitStructure\000"
 1537      5F496E69 
 1537      74537472 
 1537      75637475 
 1537      726500
 1538              	.LASF30:
 1539 0376 4750494F 		.ascii	"GPIO_Speed_50MHz\000"
 1539      5F537065 
 1539      65645F35 
 1539      304D487A 
 1539      00
 1540              	.LASF54:
 1541 0387 4441435F 		.ascii	"DAC_Init\000"
 1541      496E6974 
 1541      00
 1542              	.LASF40:
 1543 0390 4750494F 		.ascii	"GPIOMode_TypeDef\000"
 1543      4D6F6465 
 1543      5F547970 
 1543      65446566 
ARM GAS  C:\Users\tom\AppData\Local\Temp\ccXxlWLv.s 			page 32


 1543      00
 1544              	.LASF46:
 1545 03a1 4441435F 		.ascii	"DAC_InitStructure\000"
 1545      496E6974 
 1545      53747275 
 1545      63747572 
 1545      6500
 1546              	.LASF33:
 1547 03b3 4750494F 		.ascii	"GPIO_Mode_IN_FLOATING\000"
 1547      5F4D6F64 
 1547      655F494E 
 1547      5F464C4F 
 1547      4154494E 
 1548              	.LASF60:
 1549 03c9 49544D5F 		.ascii	"ITM_RxBuffer\000"
 1549      52784275 
 1549      66666572 
 1549      00
 1550              	.LASF11:
 1551 03d6 756E7369 		.ascii	"unsigned int\000"
 1551      676E6564 
 1551      20696E74 
 1551      00
 1552              	.LASF21:
 1553 03e3 4C434B52 		.ascii	"LCKR\000"
 1553      00
 1554              	.LASF24:
 1555 03e8 4441435F 		.ascii	"DAC_WaveGeneration\000"
 1555      57617665 
 1555      47656E65 
 1555      72617469 
 1555      6F6E00
 1556              	.LASF38:
 1557 03fb 4750494F 		.ascii	"GPIO_Mode_AF_OD\000"
 1557      5F4D6F64 
 1557      655F4146 
 1557      5F4F4400 
 1558              	.LASF43:
 1559 040b 4750494F 		.ascii	"GPIO_Mode\000"
 1559      5F4D6F64 
 1559      6500
 1560              		.ident	"GCC: (GNU Tools for ARM Embedded Processors) 4.9.3 20150303 (release) [ARM/embedded-4_9-br
ARM GAS  C:\Users\tom\AppData\Local\Temp\ccXxlWLv.s 			page 33


DEFINED SYMBOLS
                            *ABS*:00000000 dac_f1.c
C:\Users\tom\AppData\Local\Temp\ccXxlWLv.s:19     .text.DAC_Config:00000000 $t
C:\Users\tom\AppData\Local\Temp\ccXxlWLv.s:24     .text.DAC_Config:00000000 DAC_Config
C:\Users\tom\AppData\Local\Temp\ccXxlWLv.s:127    .text.DAC_Config:00000078 $d
C:\Users\tom\AppData\Local\Temp\ccXxlWLv.s:137    .text.DAC_CurrentSet:00000000 $t
C:\Users\tom\AppData\Local\Temp\ccXxlWLv.s:142    .text.DAC_CurrentSet:00000000 DAC_CurrentSet
C:\Users\tom\AppData\Local\Temp\ccXxlWLv.s:283    .text.DAC_CurrentSet:00000100 $d
                     .debug_frame:00000010 $d
C:\Users\tom\AppData\Local\Temp\ccXxlWLv.s:303    .text.DAC_CurrentSet:00000144 $t

UNDEFINED SYMBOLS
RCC_APB1PeriphClockCmd
RCC_APB2PeriphClockCmd
GPIO_StructInit
GPIO_Init
DAC_StructInit
DAC_Init
DAC_Cmd
__aeabi_i2d
__aeabi_ddiv
__aeabi_dmul
__aeabi_d2uiz
DAC_SetChannel1Data
