ARM GAS  C:\Users\tom\AppData\Local\Temp\ccPdO4AA.s 			page 1


   1              		.syntax unified
   2              		.cpu cortex-m3
   3              		.fpu softvfp
   4              		.eabi_attribute 20, 1
   5              		.eabi_attribute 21, 1
   6              		.eabi_attribute 23, 3
   7              		.eabi_attribute 24, 1
   8              		.eabi_attribute 25, 1
   9              		.eabi_attribute 26, 1
  10              		.eabi_attribute 30, 4
  11              		.eabi_attribute 34, 1
  12              		.eabi_attribute 18, 4
  13              		.thumb
  14              		.file	"timer.c"
  15              		.text
  16              	.Ltext0:
  17              		.cfi_sections	.debug_frame
  18              		.section	.text.TIM7_IRQHandler,"ax",%progbits
  19              		.align	1
  20              		.global	TIM7_IRQHandler
  21              		.thumb
  22              		.thumb_func
  23              		.type	TIM7_IRQHandler, %function
  24              	TIM7_IRQHandler:
  25              	.LFB57:
  26              		.file 1 "hw/timer.c"
   1:hw/timer.c    **** #include <stdio.h>
   2:hw/timer.c    **** #include "misc.h"
   3:hw/timer.c    **** #include "timer.h"
   4:hw/timer.c    **** #include "batt.h"
   5:hw/timer.c    **** 
   6:hw/timer.c    **** #define MAX_TASKS 4
   7:hw/timer.c    **** int timer_viewvolt;
   8:hw/timer.c    **** 
   9:hw/timer.c    **** typedef struct {
  10:hw/timer.c    ****     timer_func_t func;
  11:hw/timer.c    ****     int timeout;
  12:hw/timer.c    ****     int repeat;
  13:hw/timer.c    ****     bool en;
  14:hw/timer.c    **** } task_t;
  15:hw/timer.c    **** 
  16:hw/timer.c    **** static struct {
  17:hw/timer.c    ****     unsigned long ticks;
  18:hw/timer.c    ****     int curr_num_of_tasks;
  19:hw/timer.c    ****     task_t tasks[MAX_TASKS];
  20:hw/timer.c    **** } g;
  21:hw/timer.c    **** 
  22:hw/timer.c    **** void TIMER_Config(void)
  23:hw/timer.c    **** {
  24:hw/timer.c    ****     RCC_APB1PeriphClockCmd(RCC_APB1Periph_TIM7, ENABLE);
  25:hw/timer.c    ****     TIM_TimeBaseInitTypeDef TIM_TimeBaseStructure;
  26:hw/timer.c    ****     TIM_TimeBaseStructInit(&TIM_TimeBaseStructure);
  27:hw/timer.c    ****     TIM_TimeBaseStructure.TIM_Prescaler = 0;
  28:hw/timer.c    ****     TIM_TimeBaseStructure.TIM_ClockDivision = TIM_CKD_DIV1;
  29:hw/timer.c    ****     TIM_TimeBaseStructure.TIM_CounterMode = TIM_CounterMode_Up;
  30:hw/timer.c    ****     TIM_TimeBaseStructure.TIM_Period = 23999;
  31:hw/timer.c    ****     TIM_TimeBaseInit(TIM7, &TIM_TimeBaseStructure);
ARM GAS  C:\Users\tom\AppData\Local\Temp\ccPdO4AA.s 			page 2


  32:hw/timer.c    ****     TIM_ARRPreloadConfig(TIM7, ENABLE);
  33:hw/timer.c    ****     TIM_ITConfig(TIM7, TIM_IT_Update, ENABLE);
  34:hw/timer.c    ****     TIM_Cmd(TIM7, ENABLE);
  35:hw/timer.c    **** 
  36:hw/timer.c    ****     NVIC_InitTypeDef NVIC_InitStructure;
  37:hw/timer.c    ****     NVIC_InitStructure.NVIC_IRQChannel = TIM7_IRQn;
  38:hw/timer.c    ****     NVIC_InitStructure.NVIC_IRQChannelCmd = ENABLE;
  39:hw/timer.c    ****     NVIC_InitStructure.NVIC_IRQChannelPreemptionPriority = 2;
  40:hw/timer.c    ****     NVIC_InitStructure.NVIC_IRQChannelSubPriority = 2;
  41:hw/timer.c    ****     NVIC_Init(&NVIC_InitStructure);
  42:hw/timer.c    **** 
  43:hw/timer.c    ****     g.ticks = 0;
  44:hw/timer.c    ****     g.curr_num_of_tasks = 0;
  45:hw/timer.c    ****     timer_viewvolt = TIMER_RegisterFunc(BATT_ViewVoltage, 1000);
  46:hw/timer.c    **** //    TIMER_Start(timer_viewvolt);
  47:hw/timer.c    **** }
  48:hw/timer.c    **** 
  49:hw/timer.c    **** void TIM7_IRQHandler(void)
  50:hw/timer.c    **** {
  27              		.loc 1 50 0
  28              		.cfi_startproc
  29              		@ args = 0, pretend = 0, frame = 0
  30              		@ frame_needed = 0, uses_anonymous_args = 0
  31 0000 08B5     		push	{r3, lr}
  32              	.LCFI0:
  33              		.cfi_def_cfa_offset 8
  34              		.cfi_offset 3, -8
  35              		.cfi_offset 14, -4
  51:hw/timer.c    ****     if(TIM_GetITStatus(TIM7, TIM_IT_Update) != RESET) {
  36              		.loc 1 51 0
  37 0002 0748     		ldr	r0, .L7
  38 0004 0121     		movs	r1, #1
  39 0006 FFF7FEFF 		bl	TIM_GetITStatus
  40              	.LVL0:
  41 000a 38B1     		cbz	r0, .L1
  52:hw/timer.c    ****         TIM_ClearITPendingBit(TIM7, TIM_IT_Update);
  42              		.loc 1 52 0
  43 000c 0448     		ldr	r0, .L7
  44 000e 0121     		movs	r1, #1
  45 0010 FFF7FEFF 		bl	TIM_ClearITPendingBit
  46              	.LVL1:
  53:hw/timer.c    ****         g.ticks++;
  47              		.loc 1 53 0
  48 0014 034A     		ldr	r2, .L7+4
  49 0016 1368     		ldr	r3, [r2]
  50 0018 0133     		adds	r3, r3, #1
  51 001a 1360     		str	r3, [r2]
  52              	.L1:
  53 001c 08BD     		pop	{r3, pc}
  54              	.L8:
  55 001e 00BF     		.align	2
  56              	.L7:
  57 0020 00140040 		.word	1073746944
  58 0024 00000000 		.word	.LANCHOR0
  59              		.cfi_endproc
  60              	.LFE57:
  61              		.size	TIM7_IRQHandler, .-TIM7_IRQHandler
ARM GAS  C:\Users\tom\AppData\Local\Temp\ccPdO4AA.s 			page 3


  62              		.section	.text.TIMER_Loop,"ax",%progbits
  63              		.align	1
  64              		.global	TIMER_Loop
  65              		.thumb
  66              		.thumb_func
  67              		.type	TIMER_Loop, %function
  68              	TIMER_Loop:
  69              	.LFB58:
  54:hw/timer.c    ****     }
  55:hw/timer.c    **** }
  56:hw/timer.c    **** 
  57:hw/timer.c    **** void TIMER_Loop(void)
  58:hw/timer.c    **** {
  70              		.loc 1 58 0
  71              		.cfi_startproc
  72              		@ args = 0, pretend = 0, frame = 0
  73              		@ frame_needed = 0, uses_anonymous_args = 0
  74              	.LVL2:
  75 0000 70B5     		push	{r4, r5, r6, lr}
  76              	.LCFI1:
  77              		.cfi_def_cfa_offset 16
  78              		.cfi_offset 4, -16
  79              		.cfi_offset 5, -12
  80              		.cfi_offset 6, -8
  81              		.cfi_offset 14, -4
  82 0002 0B4C     		ldr	r4, .L19
  83              	.LBB2:
  59:hw/timer.c    ****     for(int i = 0; i < g.curr_num_of_tasks; i++) {
  84              		.loc 1 59 0
  85 0004 0025     		movs	r5, #0
  86 0006 2646     		mov	r6, r4
  87              	.LVL3:
  88              	.L10:
  89              		.loc 1 59 0 is_stmt 0 discriminator 1
  90 0008 7368     		ldr	r3, [r6, #4]
  91 000a 9D42     		cmp	r5, r3
  92 000c 0EDA     		bge	.L18
  60:hw/timer.c    ****         if(g.ticks >= g.tasks[i].timeout) {
  93              		.loc 1 60 0 is_stmt 1
  94 000e 084B     		ldr	r3, .L19
  95 0010 E268     		ldr	r2, [r4, #12]
  96 0012 1B68     		ldr	r3, [r3]
  97 0014 9342     		cmp	r3, r2
  98 0016 06D3     		bcc	.L12
  61:hw/timer.c    ****             g.tasks[i].timeout = g.ticks + g.tasks[i].repeat;
  99              		.loc 1 61 0
 100 0018 2269     		ldr	r2, [r4, #16]
 101 001a 1344     		add	r3, r3, r2
 102 001c E360     		str	r3, [r4, #12]
  62:hw/timer.c    ****             if(g.tasks[i].en)
 103              		.loc 1 62 0
 104 001e 237D     		ldrb	r3, [r4, #20]	@ zero_extendqisi2
 105 0020 0BB1     		cbz	r3, .L12
  63:hw/timer.c    ****                 g.tasks[i].func();
 106              		.loc 1 63 0
 107 0022 A368     		ldr	r3, [r4, #8]
 108 0024 9847     		blx	r3
ARM GAS  C:\Users\tom\AppData\Local\Temp\ccPdO4AA.s 			page 4


 109              	.LVL4:
 110              	.L12:
  59:hw/timer.c    ****         if(g.ticks >= g.tasks[i].timeout) {
 111              		.loc 1 59 0 discriminator 2
 112 0026 0135     		adds	r5, r5, #1
 113              	.LVL5:
 114 0028 1034     		adds	r4, r4, #16
 115 002a EDE7     		b	.L10
 116              	.L18:
 117              	.LBE2:
  64:hw/timer.c    ****         }
  65:hw/timer.c    ****     }
  66:hw/timer.c    **** }
 118              		.loc 1 66 0
 119 002c 70BD     		pop	{r4, r5, r6, pc}
 120              	.LVL6:
 121              	.L20:
 122 002e 00BF     		.align	2
 123              	.L19:
 124 0030 00000000 		.word	.LANCHOR0
 125              		.cfi_endproc
 126              	.LFE58:
 127              		.size	TIMER_Loop, .-TIMER_Loop
 128              		.section	.text.TIMER_Stop,"ax",%progbits
 129              		.align	1
 130              		.global	TIMER_Stop
 131              		.thumb
 132              		.thumb_func
 133              		.type	TIMER_Stop, %function
 134              	TIMER_Stop:
 135              	.LFB59:
  67:hw/timer.c    **** 
  68:hw/timer.c    **** void TIMER_Stop(int id)
  69:hw/timer.c    **** {
 136              		.loc 1 69 0
 137              		.cfi_startproc
 138              		@ args = 0, pretend = 0, frame = 0
 139              		@ frame_needed = 0, uses_anonymous_args = 0
 140              		@ link register save eliminated.
 141              	.LVL7:
  70:hw/timer.c    ****     if(id < MAX_TASKS)
 142              		.loc 1 70 0
 143 0000 0328     		cmp	r0, #3
  71:hw/timer.c    ****         g.tasks[id].en = false;
 144              		.loc 1 71 0
 145 0002 DFBF     		itttt	le
 146 0004 034B     		ldrle	r3, .L23
 147 0006 0130     		addle	r0, r0, #1
 148              	.LVL8:
 149 0008 03EB0010 		addle	r0, r3, r0, lsl #4
 150 000c 0023     		movle	r3, #0
 151 000e D8BF     		it	le
 152 0010 0371     		strble	r3, [r0, #4]
 153 0012 7047     		bx	lr
 154              	.L24:
 155              		.align	2
 156              	.L23:
ARM GAS  C:\Users\tom\AppData\Local\Temp\ccPdO4AA.s 			page 5


 157 0014 00000000 		.word	.LANCHOR0
 158              		.cfi_endproc
 159              	.LFE59:
 160              		.size	TIMER_Stop, .-TIMER_Stop
 161              		.section	.text.TIMER_Start,"ax",%progbits
 162              		.align	1
 163              		.global	TIMER_Start
 164              		.thumb
 165              		.thumb_func
 166              		.type	TIMER_Start, %function
 167              	TIMER_Start:
 168              	.LFB60:
  72:hw/timer.c    **** }
  73:hw/timer.c    **** 
  74:hw/timer.c    **** void TIMER_Start(int id)
  75:hw/timer.c    **** {
 169              		.loc 1 75 0
 170              		.cfi_startproc
 171              		@ args = 0, pretend = 0, frame = 0
 172              		@ frame_needed = 0, uses_anonymous_args = 0
 173              		@ link register save eliminated.
 174              	.LVL9:
  76:hw/timer.c    ****     if(id < MAX_TASKS)
 175              		.loc 1 76 0
 176 0000 0328     		cmp	r0, #3
  77:hw/timer.c    ****         g.tasks[id].en = true;
 177              		.loc 1 77 0
 178 0002 DFBF     		itttt	le
 179 0004 024B     		ldrle	r3, .L27
 180 0006 03EB0010 		addle	r0, r3, r0, lsl #4
 181              	.LVL10:
 182 000a 0123     		movle	r3, #1
 183 000c 0375     		strble	r3, [r0, #20]
 184 000e 7047     		bx	lr
 185              	.L28:
 186              		.align	2
 187              	.L27:
 188 0010 00000000 		.word	.LANCHOR0
 189              		.cfi_endproc
 190              	.LFE60:
 191              		.size	TIMER_Start, .-TIMER_Start
 192              		.section	.text.TIMER_RegisterFunc,"ax",%progbits
 193              		.align	1
 194              		.global	TIMER_RegisterFunc
 195              		.thumb
 196              		.thumb_func
 197              		.type	TIMER_RegisterFunc, %function
 198              	TIMER_RegisterFunc:
 199              	.LFB61:
  78:hw/timer.c    **** }
  79:hw/timer.c    **** 
  80:hw/timer.c    **** int TIMER_RegisterFunc(timer_func_t func, int repeat)
  81:hw/timer.c    **** {
 200              		.loc 1 81 0
 201              		.cfi_startproc
 202              		@ args = 0, pretend = 0, frame = 0
 203              		@ frame_needed = 0, uses_anonymous_args = 0
ARM GAS  C:\Users\tom\AppData\Local\Temp\ccPdO4AA.s 			page 6


 204              	.LVL11:
  82:hw/timer.c    ****     if(g.curr_num_of_tasks < MAX_TASKS) {
 205              		.loc 1 82 0
 206 0000 0A4A     		ldr	r2, .L32
  81:hw/timer.c    ****     if(g.curr_num_of_tasks < MAX_TASKS) {
 207              		.loc 1 81 0
 208 0002 70B5     		push	{r4, r5, r6, lr}
 209              	.LCFI2:
 210              		.cfi_def_cfa_offset 16
 211              		.cfi_offset 4, -16
 212              		.cfi_offset 5, -12
 213              		.cfi_offset 6, -8
 214              		.cfi_offset 14, -4
 215              		.loc 1 82 0
 216 0004 5368     		ldr	r3, [r2, #4]
 217 0006 032B     		cmp	r3, #3
  83:hw/timer.c    ****         g.tasks[g.curr_num_of_tasks].func = func;
 218              		.loc 1 83 0
 219 0008 DFBF     		itttt	le
 220 000a 02EB0314 		addle	r4, r2, r3, lsl #4
 221 000e A060     		strle	r0, [r4, #8]
  84:hw/timer.c    ****         g.tasks[g.curr_num_of_tasks].repeat = repeat;
 222              		.loc 1 84 0
 223 0010 581C     		addle	r0, r3, #1
 224              	.LVL12:
 225 0012 0501     		lslle	r5, r0, #4
 226 0014 DDBF     		ittte	le
 227 0016 5619     		addle	r6, r2, r5
 228 0018 5151     		strle	r1, [r2, r5]
  85:hw/timer.c    ****         g.tasks[g.curr_num_of_tasks].timeout = repeat;
 229              		.loc 1 85 0
 230 001a E160     		strle	r1, [r4, #12]
  86:hw/timer.c    ****         g.tasks[g.curr_num_of_tasks].en = false;
  87:hw/timer.c    ****         return g.curr_num_of_tasks++;
  88:hw/timer.c    ****     }
  89:hw/timer.c    ****     else
  90:hw/timer.c    ****         return -1;
 231              		.loc 1 90 0
 232 001c 4FF0FF33 		movgt	r3, #-1
  86:hw/timer.c    ****         g.tasks[g.curr_num_of_tasks].en = false;
 233              		.loc 1 86 0
 234 0020 DEBF     		ittt	le
 235 0022 0021     		movle	r1, #0
 236              	.LVL13:
  87:hw/timer.c    ****     }
 237              		.loc 1 87 0
 238 0024 5060     		strle	r0, [r2, #4]
  86:hw/timer.c    ****         g.tasks[g.curr_num_of_tasks].en = false;
 239              		.loc 1 86 0
 240 0026 3171     		strble	r1, [r6, #4]
  91:hw/timer.c    **** }
 241              		.loc 1 91 0
 242 0028 1846     		mov	r0, r3
 243 002a 70BD     		pop	{r4, r5, r6, pc}
 244              	.L33:
 245              		.align	2
 246              	.L32:
ARM GAS  C:\Users\tom\AppData\Local\Temp\ccPdO4AA.s 			page 7


 247 002c 00000000 		.word	.LANCHOR0
 248              		.cfi_endproc
 249              	.LFE61:
 250              		.size	TIMER_RegisterFunc, .-TIMER_RegisterFunc
 251              		.section	.text.TIMER_Config,"ax",%progbits
 252              		.align	1
 253              		.global	TIMER_Config
 254              		.thumb
 255              		.thumb_func
 256              		.type	TIMER_Config, %function
 257              	TIMER_Config:
 258              	.LFB56:
  23:hw/timer.c    ****     RCC_APB1PeriphClockCmd(RCC_APB1Periph_TIM7, ENABLE);
 259              		.loc 1 23 0
 260              		.cfi_startproc
 261              		@ args = 0, pretend = 0, frame = 16
 262              		@ frame_needed = 0, uses_anonymous_args = 0
 263 0000 30B5     		push	{r4, r5, lr}
 264              	.LCFI3:
 265              		.cfi_def_cfa_offset 12
 266              		.cfi_offset 4, -12
 267              		.cfi_offset 5, -8
 268              		.cfi_offset 14, -4
  24:hw/timer.c    ****     TIM_TimeBaseInitTypeDef TIM_TimeBaseStructure;
 269              		.loc 1 24 0
 270 0002 0121     		movs	r1, #1
  23:hw/timer.c    ****     RCC_APB1PeriphClockCmd(RCC_APB1Periph_TIM7, ENABLE);
 271              		.loc 1 23 0
 272 0004 85B0     		sub	sp, sp, #20
 273              	.LCFI4:
 274              		.cfi_def_cfa_offset 32
  24:hw/timer.c    ****     TIM_TimeBaseInitTypeDef TIM_TimeBaseStructure;
 275              		.loc 1 24 0
 276 0006 2020     		movs	r0, #32
 277 0008 FFF7FEFF 		bl	RCC_APB1PeriphClockCmd
 278              	.LVL14:
  26:hw/timer.c    ****     TIM_TimeBaseStructure.TIM_Prescaler = 0;
 279              		.loc 1 26 0
 280 000c 01A8     		add	r0, sp, #4
 281 000e FFF7FEFF 		bl	TIM_TimeBaseStructInit
 282              	.LVL15:
  30:hw/timer.c    ****     TIM_TimeBaseInit(TIM7, &TIM_TimeBaseStructure);
 283              		.loc 1 30 0
 284 0012 45F6BF53 		movw	r3, #23999
  31:hw/timer.c    ****     TIM_ARRPreloadConfig(TIM7, ENABLE);
 285              		.loc 1 31 0
 286 0016 1A4D     		ldr	r5, .L35
  27:hw/timer.c    ****     TIM_TimeBaseStructure.TIM_ClockDivision = TIM_CKD_DIV1;
 287              		.loc 1 27 0
 288 0018 0024     		movs	r4, #0
  31:hw/timer.c    ****     TIM_ARRPreloadConfig(TIM7, ENABLE);
 289              		.loc 1 31 0
 290 001a 2846     		mov	r0, r5
 291 001c 01A9     		add	r1, sp, #4
  30:hw/timer.c    ****     TIM_TimeBaseInit(TIM7, &TIM_TimeBaseStructure);
 292              		.loc 1 30 0
 293 001e ADF80830 		strh	r3, [sp, #8]	@ movhi
ARM GAS  C:\Users\tom\AppData\Local\Temp\ccPdO4AA.s 			page 8


  27:hw/timer.c    ****     TIM_TimeBaseStructure.TIM_ClockDivision = TIM_CKD_DIV1;
 294              		.loc 1 27 0
 295 0022 ADF80440 		strh	r4, [sp, #4]	@ movhi
  28:hw/timer.c    ****     TIM_TimeBaseStructure.TIM_CounterMode = TIM_CounterMode_Up;
 296              		.loc 1 28 0
 297 0026 ADF80A40 		strh	r4, [sp, #10]	@ movhi
  29:hw/timer.c    ****     TIM_TimeBaseStructure.TIM_Period = 23999;
 298              		.loc 1 29 0
 299 002a ADF80640 		strh	r4, [sp, #6]	@ movhi
  31:hw/timer.c    ****     TIM_ARRPreloadConfig(TIM7, ENABLE);
 300              		.loc 1 31 0
 301 002e FFF7FEFF 		bl	TIM_TimeBaseInit
 302              	.LVL16:
  32:hw/timer.c    ****     TIM_ITConfig(TIM7, TIM_IT_Update, ENABLE);
 303              		.loc 1 32 0
 304 0032 2846     		mov	r0, r5
 305 0034 0121     		movs	r1, #1
 306 0036 FFF7FEFF 		bl	TIM_ARRPreloadConfig
 307              	.LVL17:
  33:hw/timer.c    ****     TIM_Cmd(TIM7, ENABLE);
 308              		.loc 1 33 0
 309 003a 0121     		movs	r1, #1
 310 003c 0A46     		mov	r2, r1
 311 003e 2846     		mov	r0, r5
 312 0040 FFF7FEFF 		bl	TIM_ITConfig
 313              	.LVL18:
  34:hw/timer.c    **** 
 314              		.loc 1 34 0
 315 0044 2846     		mov	r0, r5
 316 0046 0121     		movs	r1, #1
 317 0048 FFF7FEFF 		bl	TIM_Cmd
 318              	.LVL19:
  37:hw/timer.c    ****     NVIC_InitStructure.NVIC_IRQChannelCmd = ENABLE;
 319              		.loc 1 37 0
 320 004c 3723     		movs	r3, #55
 321 004e 8DF80030 		strb	r3, [sp]
  38:hw/timer.c    ****     NVIC_InitStructure.NVIC_IRQChannelPreemptionPriority = 2;
 322              		.loc 1 38 0
 323 0052 0123     		movs	r3, #1
 324 0054 8DF80330 		strb	r3, [sp, #3]
  41:hw/timer.c    **** 
 325              		.loc 1 41 0
 326 0058 6846     		mov	r0, sp
  39:hw/timer.c    ****     NVIC_InitStructure.NVIC_IRQChannelSubPriority = 2;
 327              		.loc 1 39 0
 328 005a 0223     		movs	r3, #2
 329 005c 8DF80130 		strb	r3, [sp, #1]
  40:hw/timer.c    ****     NVIC_Init(&NVIC_InitStructure);
 330              		.loc 1 40 0
 331 0060 8DF80230 		strb	r3, [sp, #2]
  41:hw/timer.c    **** 
 332              		.loc 1 41 0
 333 0064 FFF7FEFF 		bl	NVIC_Init
 334              	.LVL20:
  43:hw/timer.c    ****     g.curr_num_of_tasks = 0;
 335              		.loc 1 43 0
 336 0068 064B     		ldr	r3, .L35+4
ARM GAS  C:\Users\tom\AppData\Local\Temp\ccPdO4AA.s 			page 9


  45:hw/timer.c    **** //    TIMER_Start(timer_viewvolt);
 337              		.loc 1 45 0
 338 006a 4FF47A71 		mov	r1, #1000
 339 006e 0648     		ldr	r0, .L35+8
  43:hw/timer.c    ****     g.curr_num_of_tasks = 0;
 340              		.loc 1 43 0
 341 0070 1C60     		str	r4, [r3]
  44:hw/timer.c    ****     timer_viewvolt = TIMER_RegisterFunc(BATT_ViewVoltage, 1000);
 342              		.loc 1 44 0
 343 0072 5C60     		str	r4, [r3, #4]
  45:hw/timer.c    **** //    TIMER_Start(timer_viewvolt);
 344              		.loc 1 45 0
 345 0074 FFF7FEFF 		bl	TIMER_RegisterFunc
 346              	.LVL21:
 347 0078 044B     		ldr	r3, .L35+12
 348 007a 1860     		str	r0, [r3]
  47:hw/timer.c    **** 
 349              		.loc 1 47 0
 350 007c 05B0     		add	sp, sp, #20
 351              	.LCFI5:
 352              		.cfi_def_cfa_offset 12
 353              		@ sp needed
 354 007e 30BD     		pop	{r4, r5, pc}
 355              	.L36:
 356              		.align	2
 357              	.L35:
 358 0080 00140040 		.word	1073746944
 359 0084 00000000 		.word	.LANCHOR0
 360 0088 00000000 		.word	BATT_ViewVoltage
 361 008c 00000000 		.word	timer_viewvolt
 362              		.cfi_endproc
 363              	.LFE56:
 364              		.size	TIMER_Config, .-TIMER_Config
 365              		.comm	timer_viewvolt,4,4
 366              		.section	.bss.g,"aw",%nobits
 367              		.align	2
 368              		.set	.LANCHOR0,. + 0
 369              		.type	g, %object
 370              		.size	g, 72
 371              	g:
 372 0000 00000000 		.space	72
 372      00000000 
 372      00000000 
 372      00000000 
 372      00000000 
 373              		.text
 374              	.Letext0:
 375              		.file 2 "c:\\yagarto\\arm-none-eabi\\include\\machine\\_default_types.h"
 376              		.file 3 "c:\\yagarto\\arm-none-eabi\\include\\stdint.h"
 377              		.file 4 "c:/yagarto/cmsis_cm3_v361/_cmsis/stm32f10x.h"
 378              		.file 5 "c:/yagarto/cmsis_cm3_v361/_f10x_stdperiph_drv/inc/stm32f10x_tim.h"
 379              		.file 6 "c:/yagarto/cmsis_cm3_v361/_f10x_stdperiph_drv/inc/misc.h"
 380              		.file 7 "hw/timer.h"
 381              		.file 8 "c:/yagarto/cmsis_cm3_v361/_cmsis/core_cm3.h"
 382              		.file 9 "c:/yagarto/cmsis_cm3_v361/_f10x_stdperiph_drv/inc/stm32f10x_rcc.h"