ARM GAS  C:\Users\tom\AppData\Local\Temp\ccpKpL1G.s 			page 1


   1              		.syntax unified
   2              		.cpu cortex-m3
   3              		.fpu softvfp
   4              		.eabi_attribute 20, 1
   5              		.eabi_attribute 21, 1
   6              		.eabi_attribute 23, 3
   7              		.eabi_attribute 24, 1
   8              		.eabi_attribute 25, 1
   9              		.eabi_attribute 26, 1
  10              		.eabi_attribute 30, 4
  11              		.eabi_attribute 34, 1
  12              		.eabi_attribute 18, 4
  13              		.thumb
  14              		.file	"usart_f1.c"
  15              		.text
  16              	.Ltext0:
  17              		.cfi_sections	.debug_frame
  18              		.section	.text.USART_Poll,"ax",%progbits
  19              		.align	1
  20              		.global	USART_Poll
  21              		.thumb
  22              		.thumb_func
  23              		.type	USART_Poll, %function
  24              	USART_Poll:
  25              	.LFB56:
  26              		.file 1 "hw/usart_f1.c"
   1:hw/usart_f1.c **** #include <stdio.h>
   2:hw/usart_f1.c **** #include <string.h>
   3:hw/usart_f1.c **** #include <stdlib.h>
   4:hw/usart_f1.c **** #include <stdarg.h>
   5:hw/usart_f1.c **** #include <ctype.h>
   6:hw/usart_f1.c **** #include "misc.h"
   7:hw/usart_f1.c **** #include "usart_f1.h"
   8:hw/usart_f1.c **** #include "stm32f10x.h"
   9:hw/usart_f1.c **** 
  10:hw/usart_f1.c **** #define MAX_LEN 256
  11:hw/usart_f1.c **** 
  12:hw/usart_f1.c **** unsigned char usart1_rx_buf[MAX_LEN];
  13:hw/usart_f1.c **** //unsigned char usart2_rx_buf[MAX_LEN];
  14:hw/usart_f1.c **** //unsigned char usart3_rx_buf[MAX_LEN];
  15:hw/usart_f1.c **** unsigned char* usartx_rx_buf;
  16:hw/usart_f1.c **** 
  17:hw/usart_f1.c **** bool flag_updated = false;
  18:hw/usart_f1.c **** 
  19:hw/usart_f1.c **** typedef enum {
  20:hw/usart_f1.c ****     FRAME_TYPE_NONE, FRAME_TYPE_BATT
  21:hw/usart_f1.c **** } frame_type_t;
  22:hw/usart_f1.c **** 
  23:hw/usart_f1.c **** USART_Mode_t g_mode = USART_MODE_NORMAL;
  24:hw/usart_f1.c **** 
  25:hw/usart_f1.c **** //// @brief USART数据帧
  26:hw/usart_f1.c **** volatile struct {
  27:hw/usart_f1.c ****     char msg[MAX_LEN];
  28:hw/usart_f1.c ****     USART_TypeDef* USARTx;
  29:hw/usart_f1.c ****     int size;
  30:hw/usart_f1.c ****     frame_type_t type;
  31:hw/usart_f1.c **** } g_frame;
ARM GAS  C:\Users\tom\AppData\Local\Temp\ccpKpL1G.s 			page 2


  32:hw/usart_f1.c **** 
  33:hw/usart_f1.c **** static void USART_WriteData_s(USART_TypeDef* USARTx, const void* data, int num);
  34:hw/usart_f1.c **** 
  35:hw/usart_f1.c **** void BATT_Parse(const char* msg, int size);
  36:hw/usart_f1.c **** 
  37:hw/usart_f1.c **** void USART_Poll(void)
  38:hw/usart_f1.c **** {
  27              		.loc 1 38 0
  28              		.cfi_startproc
  29              		@ args = 0, pretend = 0, frame = 0
  30              		@ frame_needed = 0, uses_anonymous_args = 0
  31 0000 10B5     		push	{r4, lr}
  32              	.LCFI0:
  33              		.cfi_def_cfa_offset 8
  34              		.cfi_offset 4, -8
  35              		.cfi_offset 14, -4
  39:hw/usart_f1.c ****     switch(g_frame.type) {
  36              		.loc 1 39 0
  37 0002 084C     		ldr	r4, .L9
  38 0004 94F80831 		ldrb	r3, [r4, #264]	@ zero_extendqisi2
  39 0008 03F0FF02 		and	r2, r3, #255
  40 000c 4BB1     		cbz	r3, .L1
  41 000e 012A     		cmp	r2, #1
  42 0010 04D1     		bne	.L2
  40:hw/usart_f1.c ****         case FRAME_TYPE_NONE:
  41:hw/usart_f1.c ****             return;
  42:hw/usart_f1.c ****         case FRAME_TYPE_BATT:
  43:hw/usart_f1.c ****             BATT_Parse((const char*)g_frame.msg, g_frame.size);
  43              		.loc 1 43 0
  44 0012 D4F80411 		ldr	r1, [r4, #260]
  45 0016 2046     		mov	r0, r4
  46 0018 FFF7FEFF 		bl	BATT_Parse
  47              	.LVL0:
  48              	.L2:
  44:hw/usart_f1.c ****             break;
  45:hw/usart_f1.c ****     }
  46:hw/usart_f1.c ****     g_frame.type = FRAME_TYPE_NONE;
  49              		.loc 1 46 0
  50 001c 0023     		movs	r3, #0
  51 001e 84F80831 		strb	r3, [r4, #264]
  52              	.L1:
  53 0022 10BD     		pop	{r4, pc}
  54              	.L10:
  55              		.align	2
  56              	.L9:
  57 0024 00000000 		.word	g_frame
  58              		.cfi_endproc
  59              	.LFE56:
  60              		.size	USART_Poll, .-USART_Poll
  61              		.section	.text.uprintf,"ax",%progbits
  62              		.align	1
  63              		.global	uprintf
  64              		.thumb
  65              		.thumb_func
  66              		.type	uprintf, %function
  67              	uprintf:
  68              	.LFB57:
ARM GAS  C:\Users\tom\AppData\Local\Temp\ccpKpL1G.s 			page 3


  47:hw/usart_f1.c **** }
  48:hw/usart_f1.c **** 
  49:hw/usart_f1.c **** void uprintf(USART_TypeDef* USARTn, const char* __restrict fmt, ...)
  50:hw/usart_f1.c **** {
  69              		.loc 1 50 0
  70              		.cfi_startproc
  71              		@ args = 4, pretend = 12, frame = 264
  72              		@ frame_needed = 0, uses_anonymous_args = 1
  73              	.LVL1:
  74 0000 0EB4     		push	{r1, r2, r3}
  75              	.LCFI1:
  76              		.cfi_def_cfa_offset 12
  77              		.cfi_offset 1, -12
  78              		.cfi_offset 2, -8
  79              		.cfi_offset 3, -4
  80 0002 F0B5     		push	{r4, r5, r6, r7, lr}
  81              	.LCFI2:
  82              		.cfi_def_cfa_offset 32
  83              		.cfi_offset 4, -32
  84              		.cfi_offset 5, -28
  85              		.cfi_offset 6, -24
  86              		.cfi_offset 7, -20
  87              		.cfi_offset 14, -16
  88 0004 C2B0     		sub	sp, sp, #264
  89              	.LCFI3:
  90              		.cfi_def_cfa_offset 296
  91              		.loc 1 50 0
  92 0006 47AA     		add	r2, sp, #284
  93 0008 52F8041B 		ldr	r1, [r2], #4
  51:hw/usart_f1.c ****     char buf[256];
  52:hw/usart_f1.c ****     va_list arp;
  53:hw/usart_f1.c ****     va_start(arp, fmt);
  54:hw/usart_f1.c ****     vsprintf(buf, fmt, arp);
  94              		.loc 1 54 0
  95 000c 02AE     		add	r6, sp, #8
  50:hw/usart_f1.c ****     char buf[256];
  96              		.loc 1 50 0
  97 000e 0546     		mov	r5, r0
  98              		.loc 1 54 0
  99 0010 3046     		mov	r0, r6
 100              	.LVL2:
  53:hw/usart_f1.c ****     vsprintf(buf, fmt, arp);
 101              		.loc 1 53 0
 102 0012 0192     		str	r2, [sp, #4]
 103              		.loc 1 54 0
 104 0014 FFF7FEFF 		bl	vsprintf
 105              	.LVL3:
  55:hw/usart_f1.c ****     USART_WriteData_s(USARTn, (unsigned char*)buf, strlen(buf));
 106              		.loc 1 55 0
 107 0018 3046     		mov	r0, r6
 108 001a FFF7FEFF 		bl	strlen
 109              	.LVL4:
 110 001e 0746     		mov	r7, r0
 111              	.LVL5:
 112 0020 0024     		movs	r4, #0
 113              	.LVL6:
 114              	.L12:
ARM GAS  C:\Users\tom\AppData\Local\Temp\ccpKpL1G.s 			page 4


 115              	.LBB4:
 116              	.LBB5:
  56:hw/usart_f1.c ****     va_end(arp);
  57:hw/usart_f1.c **** }
  58:hw/usart_f1.c **** 
  59:hw/usart_f1.c **** void USARTx_Config(USART_TypeDef* USARTx)
  60:hw/usart_f1.c **** {
  61:hw/usart_f1.c ****     unsigned short txpin = 0, rxpin = 0;
  62:hw/usart_f1.c ****     GPIO_TypeDef* GPIOx = NULL;
  63:hw/usart_f1.c ****     DMA_Channel_TypeDef* DMA_Channelx = NULL;
  64:hw/usart_f1.c **** 
  65:hw/usart_f1.c ****     RCC_APB2PeriphClockCmd(RCC_APB2Periph_GPIOA | RCC_APB2Periph_GPIOB, ENABLE);
  66:hw/usart_f1.c ****     RCC_APB2PeriphClockCmd(RCC_APB2Periph_AFIO | RCC_APB2Periph_USART1, ENABLE);
  67:hw/usart_f1.c ****     RCC_AHBPeriphClockCmd(RCC_AHBPeriph_DMA1, ENABLE);
  68:hw/usart_f1.c ****     GPIO_InitTypeDef GPIO_InitStructure;
  69:hw/usart_f1.c ****     USART_InitTypeDef USART_InitStructure;
  70:hw/usart_f1.c ****     NVIC_InitTypeDef NVIC_InitStructure;
  71:hw/usart_f1.c ****     DMA_InitTypeDef DMA_InitStructure;
  72:hw/usart_f1.c **** 
  73:hw/usart_f1.c ****     GPIO_StructInit(&GPIO_InitStructure);
  74:hw/usart_f1.c ****     USART_StructInit(&USART_InitStructure);
  75:hw/usart_f1.c **** 
  76:hw/usart_f1.c ****     switch((unsigned long)USARTx) {
  77:hw/usart_f1.c ****         case (unsigned long)USART2:
  78:hw/usart_f1.c ****             txpin = GPIO_Pin_2;
  79:hw/usart_f1.c ****             rxpin = GPIO_Pin_3;
  80:hw/usart_f1.c ****             GPIOx = GPIOA;
  81:hw/usart_f1.c ****             NVIC_InitStructure.NVIC_IRQChannel = USART2_IRQn;
  82:hw/usart_f1.c ****             DMA_Channelx = DMA1_Channel6;
  83:hw/usart_f1.c ****             DMA_InitStructure.DMA_PeripheralBaseAddr =
  84:hw/usart_f1.c ****                     (unsigned long)(&USART2->DR);
  85:hw/usart_f1.c **** //            DMA_InitStructure.DMA_MemoryBaseAddr = (unsigned long)usart2_rx_buf;
  86:hw/usart_f1.c ****             USART_InitStructure.USART_BaudRate = 500000UL;
  87:hw/usart_f1.c ****             break;
  88:hw/usart_f1.c ****         case (unsigned long)USART3:
  89:hw/usart_f1.c ****             txpin = GPIO_Pin_10;
  90:hw/usart_f1.c ****             rxpin = GPIO_Pin_11;
  91:hw/usart_f1.c ****             GPIOx = GPIOB;
  92:hw/usart_f1.c ****             NVIC_InitStructure.NVIC_IRQChannel = USART3_IRQn;
  93:hw/usart_f1.c ****             DMA_Channelx = DMA1_Channel3;
  94:hw/usart_f1.c ****             DMA_InitStructure.DMA_PeripheralBaseAddr =
  95:hw/usart_f1.c ****                     (unsigned long)(&USART3->DR);
  96:hw/usart_f1.c **** //            DMA_InitStructure.DMA_MemoryBaseAddr = (unsigned long)usart3_rx_buf;
  97:hw/usart_f1.c ****             USART_InitStructure.USART_BaudRate = 9600UL;
  98:hw/usart_f1.c ****             break;
  99:hw/usart_f1.c ****         case (unsigned long)USART1:
 100:hw/usart_f1.c ****             txpin = GPIO_Pin_6;
 101:hw/usart_f1.c ****             rxpin = GPIO_Pin_7;
 102:hw/usart_f1.c ****             GPIOx = GPIOB;
 103:hw/usart_f1.c ****             GPIO_PinRemapConfig(GPIO_Remap_USART1, ENABLE);
 104:hw/usart_f1.c ****             NVIC_InitStructure.NVIC_IRQChannel = USART1_IRQn;
 105:hw/usart_f1.c ****             DMA_Channelx = DMA1_Channel5;
 106:hw/usart_f1.c ****             DMA_InitStructure.DMA_PeripheralBaseAddr =
 107:hw/usart_f1.c ****                     (unsigned long)(&USART1->DR);
 108:hw/usart_f1.c ****             DMA_InitStructure.DMA_MemoryBaseAddr = (unsigned long)usart1_rx_buf;
 109:hw/usart_f1.c ****             USART_InitStructure.USART_BaudRate = 500000UL;
 110:hw/usart_f1.c ****             break;
ARM GAS  C:\Users\tom\AppData\Local\Temp\ccpKpL1G.s 			page 5


 111:hw/usart_f1.c ****     }
 112:hw/usart_f1.c ****     GPIO_InitStructure.GPIO_Pin = txpin;
 113:hw/usart_f1.c ****     GPIO_InitStructure.GPIO_Mode = GPIO_Mode_AF_PP;
 114:hw/usart_f1.c ****     GPIO_InitStructure.GPIO_Speed = GPIO_Speed_10MHz;
 115:hw/usart_f1.c ****     GPIO_Init(GPIOx, &GPIO_InitStructure);
 116:hw/usart_f1.c ****     GPIO_InitStructure.GPIO_Mode = GPIO_Mode_IPU;
 117:hw/usart_f1.c ****     GPIO_InitStructure.GPIO_Pin = rxpin;
 118:hw/usart_f1.c ****     GPIO_Init(GPIOx, &GPIO_InitStructure);
 119:hw/usart_f1.c **** 
 120:hw/usart_f1.c ****     NVIC_InitStructure.NVIC_IRQChannelPreemptionPriority = 1;
 121:hw/usart_f1.c ****     NVIC_InitStructure.NVIC_IRQChannelSubPriority = 1;
 122:hw/usart_f1.c ****     NVIC_InitStructure.NVIC_IRQChannelCmd = ENABLE;
 123:hw/usart_f1.c ****     NVIC_Init(&NVIC_InitStructure);
 124:hw/usart_f1.c **** 
 125:hw/usart_f1.c ****     DMA_DeInit(DMA_Channelx);
 126:hw/usart_f1.c ****     DMA_InitStructure.DMA_DIR = DMA_DIR_PeripheralSRC;  // 单向，外设源
 127:hw/usart_f1.c ****     DMA_InitStructure.DMA_BufferSize = MAX_LEN;
 128:hw/usart_f1.c ****     DMA_InitStructure.DMA_PeripheralInc = DMA_PeripheralInc_Disable;   // 禁止外设递增
 129:hw/usart_f1.c ****     DMA_InitStructure.DMA_MemoryInc = DMA_MemoryInc_Enable; // 允许内存递增
 130:hw/usart_f1.c ****     DMA_InitStructure.DMA_PeripheralDataSize = DMA_PeripheralDataSize_Byte;
 131:hw/usart_f1.c ****     DMA_InitStructure.DMA_MemoryDataSize = DMA_MemoryDataSize_Byte;
 132:hw/usart_f1.c ****     DMA_InitStructure.DMA_Mode = DMA_Mode_Normal;
 133:hw/usart_f1.c ****     DMA_InitStructure.DMA_Priority = DMA_Priority_VeryHigh;
 134:hw/usart_f1.c ****     DMA_InitStructure.DMA_M2M = DMA_M2M_Disable;
 135:hw/usart_f1.c ****     DMA_Init(DMA_Channelx, &DMA_InitStructure);
 136:hw/usart_f1.c ****     DMA_Cmd(DMA_Channelx, ENABLE);
 137:hw/usart_f1.c **** 
 138:hw/usart_f1.c ****     USART_DeInit(USARTx);
 139:hw/usart_f1.c ****     USART_InitStructure.USART_WordLength = USART_WordLength_8b;
 140:hw/usart_f1.c ****     USART_InitStructure.USART_StopBits = USART_StopBits_1;
 141:hw/usart_f1.c ****     USART_InitStructure.USART_Parity = USART_Parity_No;
 142:hw/usart_f1.c ****     USART_InitStructure.USART_HardwareFlowControl =
 143:hw/usart_f1.c ****             USART_HardwareFlowControl_None;
 144:hw/usart_f1.c ****     USART_InitStructure.USART_Mode = USART_Mode_Tx | USART_Mode_Rx;
 145:hw/usart_f1.c ****     USART_Init(USARTx, &USART_InitStructure);
 146:hw/usart_f1.c **** 
 147:hw/usart_f1.c ****     USART_ITConfig(USARTx, USART_IT_IDLE, ENABLE);
 148:hw/usart_f1.c ****     USART_DMACmd(USARTx, USART_DMAReq_Rx, ENABLE);
 149:hw/usart_f1.c ****     USART_Cmd(USARTx, ENABLE);
 150:hw/usart_f1.c **** }
 151:hw/usart_f1.c **** 
 152:hw/usart_f1.c **** void USART_Config(void)
 153:hw/usart_f1.c **** {
 154:hw/usart_f1.c ****     USARTx_Config(USART1);
 155:hw/usart_f1.c **** //    USARTx_Config(USART2);
 156:hw/usart_f1.c **** //    USARTx_Config(USART3);
 157:hw/usart_f1.c **** }
 158:hw/usart_f1.c **** 
 159:hw/usart_f1.c **** void USART_WriteData_s(USART_TypeDef* USARTx, const void* data, int num)
 160:hw/usart_f1.c **** {
 161:hw/usart_f1.c ****     while(num--) {
 117              		.loc 1 161 0
 118 0022 BC42     		cmp	r4, r7
 119 0024 0BD0     		beq	.L18
 120              	.L17:
 162:hw/usart_f1.c ****         ( {  while (USART_GetFlagStatus(USARTx, USART_FLAG_TXE) == RESET);});
 121              		.loc 1 162 0
ARM GAS  C:\Users\tom\AppData\Local\Temp\ccpKpL1G.s 			page 6


 122 0026 2846     		mov	r0, r5
 123 0028 8021     		movs	r1, #128
 124 002a FFF7FEFF 		bl	USART_GetFlagStatus
 125              	.LVL7:
 126 002e 0028     		cmp	r0, #0
 127 0030 F9D0     		beq	.L17
 163:hw/usart_f1.c ****         USART_SendData(USARTx, *((unsigned char*)data));
 128              		.loc 1 163 0
 129 0032 315D     		ldrb	r1, [r6, r4]	@ zero_extendqisi2
 130 0034 2846     		mov	r0, r5
 131 0036 FFF7FEFF 		bl	USART_SendData
 132              	.LVL8:
 133 003a 0134     		adds	r4, r4, #1
 134              	.LVL9:
 135 003c F1E7     		b	.L12
 136              	.LVL10:
 137              	.L18:
 164:hw/usart_f1.c ****         data++;
 165:hw/usart_f1.c ****     }
 166:hw/usart_f1.c ****     ( {  while (USART_GetFlagStatus(USARTx, USART_FLAG_TC) == RESET);});
 138              		.loc 1 166 0
 139 003e 2846     		mov	r0, r5
 140 0040 4021     		movs	r1, #64
 141 0042 FFF7FEFF 		bl	USART_GetFlagStatus
 142              	.LVL11:
 143 0046 0028     		cmp	r0, #0
 144 0048 F9D0     		beq	.L18
 145              	.LBE5:
 146              	.LBE4:
  57:hw/usart_f1.c **** 
 147              		.loc 1 57 0
 148 004a 42B0     		add	sp, sp, #264
 149              	.LCFI4:
 150              		.cfi_def_cfa_offset 32
 151              		@ sp needed
 152 004c BDE8F040 		pop	{r4, r5, r6, r7, lr}
 153              	.LCFI5:
 154              		.cfi_restore 14
 155              		.cfi_restore 7
 156              		.cfi_restore 6
 157              		.cfi_restore 5
 158              		.cfi_restore 4
 159              		.cfi_def_cfa_offset 12
 160              	.LVL12:
 161 0050 03B0     		add	sp, sp, #12
 162              	.LCFI6:
 163              		.cfi_restore 3
 164              		.cfi_restore 2
 165              		.cfi_restore 1
 166              		.cfi_def_cfa_offset 0
 167 0052 7047     		bx	lr
 168              		.cfi_endproc
 169              	.LFE57:
 170              		.size	uprintf, .-uprintf
 171              		.section	.text.USARTx_Config,"ax",%progbits
 172              		.align	1
 173              		.global	USARTx_Config
ARM GAS  C:\Users\tom\AppData\Local\Temp\ccpKpL1G.s 			page 7


 174              		.thumb
 175              		.thumb_func
 176              		.type	USARTx_Config, %function
 177              	USARTx_Config:
 178              	.LFB58:
  60:hw/usart_f1.c ****     unsigned short txpin = 0, rxpin = 0;
 179              		.loc 1 60 0
 180              		.cfi_startproc
 181              		@ args = 0, pretend = 0, frame = 72
 182              		@ frame_needed = 0, uses_anonymous_args = 0
 183              	.LVL13:
 184 0000 2DE9F041 		push	{r4, r5, r6, r7, r8, lr}
 185              	.LCFI7:
 186              		.cfi_def_cfa_offset 24
 187              		.cfi_offset 4, -24
 188              		.cfi_offset 5, -20
 189              		.cfi_offset 6, -16
 190              		.cfi_offset 7, -12
 191              		.cfi_offset 8, -8
 192              		.cfi_offset 14, -4
 193 0004 0746     		mov	r7, r0
 194 0006 92B0     		sub	sp, sp, #72
 195              	.LCFI8:
 196              		.cfi_def_cfa_offset 96
  65:hw/usart_f1.c ****     RCC_APB2PeriphClockCmd(RCC_APB2Periph_AFIO | RCC_APB2Periph_USART1, ENABLE);
 197              		.loc 1 65 0
 198 0008 0C20     		movs	r0, #12
 199              	.LVL14:
 200 000a 0121     		movs	r1, #1
 201 000c FFF7FEFF 		bl	RCC_APB2PeriphClockCmd
 202              	.LVL15:
  66:hw/usart_f1.c ****     RCC_AHBPeriphClockCmd(RCC_AHBPeriph_DMA1, ENABLE);
 203              		.loc 1 66 0
 204 0010 44F20100 		movw	r0, #16385
 205 0014 0121     		movs	r1, #1
 206 0016 FFF7FEFF 		bl	RCC_APB2PeriphClockCmd
 207              	.LVL16:
  67:hw/usart_f1.c ****     GPIO_InitTypeDef GPIO_InitStructure;
 208              		.loc 1 67 0
 209 001a 0120     		movs	r0, #1
 210 001c 0146     		mov	r1, r0
 211 001e FFF7FEFF 		bl	RCC_AHBPeriphClockCmd
 212              	.LVL17:
  73:hw/usart_f1.c ****     USART_StructInit(&USART_InitStructure);
 213              		.loc 1 73 0
 214 0022 01A8     		add	r0, sp, #4
 215 0024 FFF7FEFF 		bl	GPIO_StructInit
 216              	.LVL18:
  74:hw/usart_f1.c **** 
 217              		.loc 1 74 0
 218 0028 03A8     		add	r0, sp, #12
 219 002a FFF7FEFF 		bl	USART_StructInit
 220              	.LVL19:
  76:hw/usart_f1.c ****         case (unsigned long)USART2:
 221              		.loc 1 76 0
 222 002e 4D4B     		ldr	r3, .L28
 223 0030 9F42     		cmp	r7, r3
ARM GAS  C:\Users\tom\AppData\Local\Temp\ccpKpL1G.s 			page 8


 224 0032 14D0     		beq	.L23
 225 0034 03F57043 		add	r3, r3, #61440
 226 0038 9F42     		cmp	r7, r3
 227 003a 1FD0     		beq	.L24
 228 003c A3F57443 		sub	r3, r3, #62464
 229 0040 9F42     		cmp	r7, r3
 230 0042 2ED1     		bne	.L27
 231              	.LVL20:
  81:hw/usart_f1.c ****             DMA_Channelx = DMA1_Channel6;
 232              		.loc 1 81 0
 233 0044 2623     		movs	r3, #38
 234 0046 8DF80830 		strb	r3, [sp, #8]
 235              	.LVL21:
  83:hw/usart_f1.c ****                     (unsigned long)(&USART2->DR);
 236              		.loc 1 83 0
 237 004a 474B     		ldr	r3, .L28+4
  82:hw/usart_f1.c ****             DMA_InitStructure.DMA_PeripheralBaseAddr =
 238              		.loc 1 82 0
 239 004c 474D     		ldr	r5, .L28+8
  83:hw/usart_f1.c ****                     (unsigned long)(&USART2->DR);
 240              		.loc 1 83 0
 241 004e 0793     		str	r3, [sp, #28]
  86:hw/usart_f1.c ****             break;
 242              		.loc 1 86 0
 243 0050 474B     		ldr	r3, .L28+12
  80:hw/usart_f1.c ****             NVIC_InitStructure.NVIC_IRQChannel = USART2_IRQn;
 244              		.loc 1 80 0
 245 0052 484C     		ldr	r4, .L28+16
  86:hw/usart_f1.c ****             break;
 246              		.loc 1 86 0
 247 0054 0393     		str	r3, [sp, #12]
  79:hw/usart_f1.c ****             GPIOx = GPIOA;
 248              		.loc 1 79 0
 249 0056 4FF00808 		mov	r8, #8
  78:hw/usart_f1.c ****             rxpin = GPIO_Pin_3;
 250              		.loc 1 78 0
 251 005a 0423     		movs	r3, #4
  87:hw/usart_f1.c ****         case (unsigned long)USART3:
 252              		.loc 1 87 0
 253 005c 25E0     		b	.L22
 254              	.LVL22:
 255              	.L23:
  92:hw/usart_f1.c ****             DMA_Channelx = DMA1_Channel3;
 256              		.loc 1 92 0
 257 005e 2723     		movs	r3, #39
 258 0060 8DF80830 		strb	r3, [sp, #8]
 259              	.LVL23:
  94:hw/usart_f1.c ****                     (unsigned long)(&USART3->DR);
 260              		.loc 1 94 0
 261 0064 444B     		ldr	r3, .L28+20
  93:hw/usart_f1.c ****             DMA_InitStructure.DMA_PeripheralBaseAddr =
 262              		.loc 1 93 0
 263 0066 454D     		ldr	r5, .L28+24
  94:hw/usart_f1.c ****                     (unsigned long)(&USART3->DR);
 264              		.loc 1 94 0
 265 0068 0793     		str	r3, [sp, #28]
  97:hw/usart_f1.c ****             break;
ARM GAS  C:\Users\tom\AppData\Local\Temp\ccpKpL1G.s 			page 9


 266              		.loc 1 97 0
 267 006a 4FF41653 		mov	r3, #9600
 268 006e 0393     		str	r3, [sp, #12]
  91:hw/usart_f1.c ****             NVIC_InitStructure.NVIC_IRQChannel = USART3_IRQn;
 269              		.loc 1 91 0
 270 0070 434C     		ldr	r4, .L28+28
  90:hw/usart_f1.c ****             GPIOx = GPIOB;
 271              		.loc 1 90 0
 272 0072 4FF40068 		mov	r8, #2048
  89:hw/usart_f1.c ****             rxpin = GPIO_Pin_11;
 273              		.loc 1 89 0
 274 0076 4FF48063 		mov	r3, #1024
  98:hw/usart_f1.c ****         case (unsigned long)USART1:
 275              		.loc 1 98 0
 276 007a 16E0     		b	.L22
 277              	.LVL24:
 278              	.L24:
 103:hw/usart_f1.c ****             NVIC_InitStructure.NVIC_IRQChannel = USART1_IRQn;
 279              		.loc 1 103 0
 280 007c 0420     		movs	r0, #4
 281 007e 0121     		movs	r1, #1
 282 0080 FFF7FEFF 		bl	GPIO_PinRemapConfig
 283              	.LVL25:
 104:hw/usart_f1.c ****             DMA_Channelx = DMA1_Channel5;
 284              		.loc 1 104 0
 285 0084 2523     		movs	r3, #37
 286 0086 8DF80830 		strb	r3, [sp, #8]
 287              	.LVL26:
 106:hw/usart_f1.c ****                     (unsigned long)(&USART1->DR);
 288              		.loc 1 106 0
 289 008a 3E4B     		ldr	r3, .L28+32
 105:hw/usart_f1.c ****             DMA_InitStructure.DMA_PeripheralBaseAddr =
 290              		.loc 1 105 0
 291 008c 3E4D     		ldr	r5, .L28+36
 106:hw/usart_f1.c ****                     (unsigned long)(&USART1->DR);
 292              		.loc 1 106 0
 293 008e 0793     		str	r3, [sp, #28]
 108:hw/usart_f1.c ****             USART_InitStructure.USART_BaudRate = 500000UL;
 294              		.loc 1 108 0
 295 0090 3E4B     		ldr	r3, .L28+40
 102:hw/usart_f1.c ****             GPIO_PinRemapConfig(GPIO_Remap_USART1, ENABLE);
 296              		.loc 1 102 0
 297 0092 3B4C     		ldr	r4, .L28+28
 108:hw/usart_f1.c ****             USART_InitStructure.USART_BaudRate = 500000UL;
 298              		.loc 1 108 0
 299 0094 0893     		str	r3, [sp, #32]
 109:hw/usart_f1.c ****             break;
 300              		.loc 1 109 0
 301 0096 364B     		ldr	r3, .L28+12
 101:hw/usart_f1.c ****             GPIOx = GPIOB;
 302              		.loc 1 101 0
 303 0098 4FF08008 		mov	r8, #128
 109:hw/usart_f1.c ****             break;
 304              		.loc 1 109 0
 305 009c 0393     		str	r3, [sp, #12]
 100:hw/usart_f1.c ****             rxpin = GPIO_Pin_7;
 306              		.loc 1 100 0
ARM GAS  C:\Users\tom\AppData\Local\Temp\ccpKpL1G.s 			page 10


 307 009e 4023     		movs	r3, #64
 110:hw/usart_f1.c ****     }
 308              		.loc 1 110 0
 309 00a0 03E0     		b	.L22
 310              	.LVL27:
 311              	.L27:
  63:hw/usart_f1.c **** 
 312              		.loc 1 63 0
 313 00a2 0025     		movs	r5, #0
  62:hw/usart_f1.c ****     DMA_Channel_TypeDef* DMA_Channelx = NULL;
 314              		.loc 1 62 0
 315 00a4 2C46     		mov	r4, r5
  61:hw/usart_f1.c ****     GPIO_TypeDef* GPIOx = NULL;
 316              		.loc 1 61 0
 317 00a6 A846     		mov	r8, r5
 318 00a8 2B46     		mov	r3, r5
 319              	.LVL28:
 320              	.L22:
 114:hw/usart_f1.c ****     GPIO_Init(GPIOx, &GPIO_InitStructure);
 321              		.loc 1 114 0
 322 00aa 0126     		movs	r6, #1
 112:hw/usart_f1.c ****     GPIO_InitStructure.GPIO_Mode = GPIO_Mode_AF_PP;
 323              		.loc 1 112 0
 324 00ac ADF80430 		strh	r3, [sp, #4]	@ movhi
 115:hw/usart_f1.c ****     GPIO_InitStructure.GPIO_Mode = GPIO_Mode_IPU;
 325              		.loc 1 115 0
 326 00b0 2046     		mov	r0, r4
 113:hw/usart_f1.c ****     GPIO_InitStructure.GPIO_Speed = GPIO_Speed_10MHz;
 327              		.loc 1 113 0
 328 00b2 1823     		movs	r3, #24
 329              	.LVL29:
 115:hw/usart_f1.c ****     GPIO_InitStructure.GPIO_Mode = GPIO_Mode_IPU;
 330              		.loc 1 115 0
 331 00b4 01A9     		add	r1, sp, #4
 332              	.LVL30:
 113:hw/usart_f1.c ****     GPIO_InitStructure.GPIO_Speed = GPIO_Speed_10MHz;
 333              		.loc 1 113 0
 334 00b6 8DF80730 		strb	r3, [sp, #7]
 114:hw/usart_f1.c ****     GPIO_Init(GPIOx, &GPIO_InitStructure);
 335              		.loc 1 114 0
 336 00ba 8DF80660 		strb	r6, [sp, #6]
 115:hw/usart_f1.c ****     GPIO_InitStructure.GPIO_Mode = GPIO_Mode_IPU;
 337              		.loc 1 115 0
 338 00be FFF7FEFF 		bl	GPIO_Init
 339              	.LVL31:
 116:hw/usart_f1.c ****     GPIO_InitStructure.GPIO_Pin = rxpin;
 340              		.loc 1 116 0
 341 00c2 4823     		movs	r3, #72
 118:hw/usart_f1.c **** 
 342              		.loc 1 118 0
 343 00c4 01A9     		add	r1, sp, #4
 344 00c6 2046     		mov	r0, r4
 116:hw/usart_f1.c ****     GPIO_InitStructure.GPIO_Pin = rxpin;
 345              		.loc 1 116 0
 346 00c8 8DF80730 		strb	r3, [sp, #7]
 117:hw/usart_f1.c ****     GPIO_Init(GPIOx, &GPIO_InitStructure);
 347              		.loc 1 117 0
ARM GAS  C:\Users\tom\AppData\Local\Temp\ccpKpL1G.s 			page 11


 348 00cc ADF80480 		strh	r8, [sp, #4]	@ movhi
 118:hw/usart_f1.c **** 
 349              		.loc 1 118 0
 350 00d0 FFF7FEFF 		bl	GPIO_Init
 351              	.LVL32:
 123:hw/usart_f1.c **** 
 352              		.loc 1 123 0
 353 00d4 02A8     		add	r0, sp, #8
 120:hw/usart_f1.c ****     NVIC_InitStructure.NVIC_IRQChannelSubPriority = 1;
 354              		.loc 1 120 0
 355 00d6 8DF80960 		strb	r6, [sp, #9]
 121:hw/usart_f1.c ****     NVIC_InitStructure.NVIC_IRQChannelCmd = ENABLE;
 356              		.loc 1 121 0
 357 00da 8DF80A60 		strb	r6, [sp, #10]
 122:hw/usart_f1.c ****     NVIC_Init(&NVIC_InitStructure);
 358              		.loc 1 122 0
 359 00de 8DF80B60 		strb	r6, [sp, #11]
 123:hw/usart_f1.c **** 
 360              		.loc 1 123 0
 361 00e2 FFF7FEFF 		bl	NVIC_Init
 362              	.LVL33:
 125:hw/usart_f1.c ****     DMA_InitStructure.DMA_DIR = DMA_DIR_PeripheralSRC;  // 单向，外设源
 363              		.loc 1 125 0
 364 00e6 2846     		mov	r0, r5
 365 00e8 FFF7FEFF 		bl	DMA_DeInit
 366              	.LVL34:
 127:hw/usart_f1.c ****     DMA_InitStructure.DMA_PeripheralInc = DMA_PeripheralInc_Disable;   // 禁止外设递增
 367              		.loc 1 127 0
 368 00ec 4FF48073 		mov	r3, #256
 369 00f0 0A93     		str	r3, [sp, #40]
 129:hw/usart_f1.c ****     DMA_InitStructure.DMA_PeripheralDataSize = DMA_PeripheralDataSize_Byte;
 370              		.loc 1 129 0
 371 00f2 8023     		movs	r3, #128
 126:hw/usart_f1.c ****     DMA_InitStructure.DMA_BufferSize = MAX_LEN;
 372              		.loc 1 126 0
 373 00f4 0024     		movs	r4, #0
 374              	.LVL35:
 129:hw/usart_f1.c ****     DMA_InitStructure.DMA_PeripheralDataSize = DMA_PeripheralDataSize_Byte;
 375              		.loc 1 129 0
 376 00f6 0C93     		str	r3, [sp, #48]
 135:hw/usart_f1.c ****     DMA_Cmd(DMA_Channelx, ENABLE);
 377              		.loc 1 135 0
 378 00f8 2846     		mov	r0, r5
 133:hw/usart_f1.c ****     DMA_InitStructure.DMA_M2M = DMA_M2M_Disable;
 379              		.loc 1 133 0
 380 00fa 4FF44053 		mov	r3, #12288
 135:hw/usart_f1.c ****     DMA_Cmd(DMA_Channelx, ENABLE);
 381              		.loc 1 135 0
 382 00fe 07A9     		add	r1, sp, #28
 133:hw/usart_f1.c ****     DMA_InitStructure.DMA_M2M = DMA_M2M_Disable;
 383              		.loc 1 133 0
 384 0100 1093     		str	r3, [sp, #64]
 126:hw/usart_f1.c ****     DMA_InitStructure.DMA_BufferSize = MAX_LEN;
 385              		.loc 1 126 0
 386 0102 0994     		str	r4, [sp, #36]
 128:hw/usart_f1.c ****     DMA_InitStructure.DMA_MemoryInc = DMA_MemoryInc_Enable; // 允许内存递增
 387              		.loc 1 128 0
ARM GAS  C:\Users\tom\AppData\Local\Temp\ccpKpL1G.s 			page 12


 388 0104 0B94     		str	r4, [sp, #44]
 130:hw/usart_f1.c ****     DMA_InitStructure.DMA_MemoryDataSize = DMA_MemoryDataSize_Byte;
 389              		.loc 1 130 0
 390 0106 0D94     		str	r4, [sp, #52]
 131:hw/usart_f1.c ****     DMA_InitStructure.DMA_Mode = DMA_Mode_Normal;
 391              		.loc 1 131 0
 392 0108 0E94     		str	r4, [sp, #56]
 132:hw/usart_f1.c ****     DMA_InitStructure.DMA_Priority = DMA_Priority_VeryHigh;
 393              		.loc 1 132 0
 394 010a 0F94     		str	r4, [sp, #60]
 134:hw/usart_f1.c ****     DMA_Init(DMA_Channelx, &DMA_InitStructure);
 395              		.loc 1 134 0
 396 010c 1194     		str	r4, [sp, #68]
 135:hw/usart_f1.c ****     DMA_Cmd(DMA_Channelx, ENABLE);
 397              		.loc 1 135 0
 398 010e FFF7FEFF 		bl	DMA_Init
 399              	.LVL36:
 136:hw/usart_f1.c **** 
 400              		.loc 1 136 0
 401 0112 3146     		mov	r1, r6
 402 0114 2846     		mov	r0, r5
 403 0116 FFF7FEFF 		bl	DMA_Cmd
 404              	.LVL37:
 138:hw/usart_f1.c ****     USART_InitStructure.USART_WordLength = USART_WordLength_8b;
 405              		.loc 1 138 0
 406 011a 3846     		mov	r0, r7
 407 011c FFF7FEFF 		bl	USART_DeInit
 408              	.LVL38:
 144:hw/usart_f1.c ****     USART_Init(USARTx, &USART_InitStructure);
 409              		.loc 1 144 0
 410 0120 0C23     		movs	r3, #12
 145:hw/usart_f1.c **** 
 411              		.loc 1 145 0
 412 0122 0DEB0301 		add	r1, sp, r3
 413 0126 3846     		mov	r0, r7
 144:hw/usart_f1.c ****     USART_Init(USARTx, &USART_InitStructure);
 414              		.loc 1 144 0
 415 0128 ADF81630 		strh	r3, [sp, #22]	@ movhi
 139:hw/usart_f1.c ****     USART_InitStructure.USART_StopBits = USART_StopBits_1;
 416              		.loc 1 139 0
 417 012c ADF81040 		strh	r4, [sp, #16]	@ movhi
 140:hw/usart_f1.c ****     USART_InitStructure.USART_Parity = USART_Parity_No;
 418              		.loc 1 140 0
 419 0130 ADF81240 		strh	r4, [sp, #18]	@ movhi
 141:hw/usart_f1.c ****     USART_InitStructure.USART_HardwareFlowControl =
 420              		.loc 1 141 0
 421 0134 ADF81440 		strh	r4, [sp, #20]	@ movhi
 142:hw/usart_f1.c ****             USART_HardwareFlowControl_None;
 422              		.loc 1 142 0
 423 0138 ADF81840 		strh	r4, [sp, #24]	@ movhi
 145:hw/usart_f1.c **** 
 424              		.loc 1 145 0
 425 013c FFF7FEFF 		bl	USART_Init
 426              	.LVL39:
 147:hw/usart_f1.c ****     USART_DMACmd(USARTx, USART_DMAReq_Rx, ENABLE);
 427              		.loc 1 147 0
 428 0140 3846     		mov	r0, r7
ARM GAS  C:\Users\tom\AppData\Local\Temp\ccpKpL1G.s 			page 13


 429 0142 3246     		mov	r2, r6
 430 0144 40F22441 		movw	r1, #1060
 431 0148 FFF7FEFF 		bl	USART_ITConfig
 432              	.LVL40:
 148:hw/usart_f1.c ****     USART_Cmd(USARTx, ENABLE);
 433              		.loc 1 148 0
 434 014c 3846     		mov	r0, r7
 435 014e 3246     		mov	r2, r6
 436 0150 4021     		movs	r1, #64
 437 0152 FFF7FEFF 		bl	USART_DMACmd
 438              	.LVL41:
 149:hw/usart_f1.c **** }
 439              		.loc 1 149 0
 440 0156 3846     		mov	r0, r7
 441 0158 3146     		mov	r1, r6
 442 015a FFF7FEFF 		bl	USART_Cmd
 443              	.LVL42:
 150:hw/usart_f1.c **** 
 444              		.loc 1 150 0
 445 015e 12B0     		add	sp, sp, #72
 446              	.LCFI9:
 447              		.cfi_def_cfa_offset 24
 448              		@ sp needed
 449 0160 BDE8F081 		pop	{r4, r5, r6, r7, r8, pc}
 450              	.LVL43:
 451              	.L29:
 452              		.align	2
 453              	.L28:
 454 0164 00480040 		.word	1073760256
 455 0168 04440040 		.word	1073759236
 456 016c 6C000240 		.word	1073873004
 457 0170 20A10700 		.word	500000
 458 0174 00080140 		.word	1073809408
 459 0178 04480040 		.word	1073760260
 460 017c 30000240 		.word	1073872944
 461 0180 000C0140 		.word	1073810432
 462 0184 04380140 		.word	1073821700
 463 0188 58000240 		.word	1073872984
 464 018c 00000000 		.word	usart1_rx_buf
 465              		.cfi_endproc
 466              	.LFE58:
 467              		.size	USARTx_Config, .-USARTx_Config
 468              		.section	.text.USART_Config,"ax",%progbits
 469              		.align	1
 470              		.global	USART_Config
 471              		.thumb
 472              		.thumb_func
 473              		.type	USART_Config, %function
 474              	USART_Config:
 475              	.LFB59:
 153:hw/usart_f1.c ****     USARTx_Config(USART1);
 476              		.loc 1 153 0
 477              		.cfi_startproc
 478              		@ args = 0, pretend = 0, frame = 0
 479              		@ frame_needed = 0, uses_anonymous_args = 0
 480              		@ link register save eliminated.
 154:hw/usart_f1.c **** //    USARTx_Config(USART2);
ARM GAS  C:\Users\tom\AppData\Local\Temp\ccpKpL1G.s 			page 14


 481              		.loc 1 154 0
 482 0000 0148     		ldr	r0, .L31
 483 0002 FFF7FEBF 		b	USARTx_Config
 484              	.LVL44:
 485              	.L32:
 486 0006 00BF     		.align	2
 487              	.L31:
 488 0008 00380140 		.word	1073821696
 489              		.cfi_endproc
 490              	.LFE59:
 491              		.size	USART_Config, .-USART_Config
 492              		.section	.text.USART_WriteByte,"ax",%progbits
 493              		.align	1
 494              		.global	USART_WriteByte
 495              		.thumb
 496              		.thumb_func
 497              		.type	USART_WriteByte, %function
 498              	USART_WriteByte:
 499              	.LFB61:
 167:hw/usart_f1.c **** }
 168:hw/usart_f1.c **** 
 169:hw/usart_f1.c **** void USART_WriteByte(USART_TypeDef* USARTx, unsigned char byte)
 170:hw/usart_f1.c **** {
 500              		.loc 1 170 0
 501              		.cfi_startproc
 502              		@ args = 0, pretend = 0, frame = 0
 503              		@ frame_needed = 0, uses_anonymous_args = 0
 504              	.LVL45:
 505 0000 38B5     		push	{r3, r4, r5, lr}
 506              	.LCFI10:
 507              		.cfi_def_cfa_offset 16
 508              		.cfi_offset 3, -16
 509              		.cfi_offset 4, -12
 510              		.cfi_offset 5, -8
 511              		.cfi_offset 14, -4
 512 0002 0446     		mov	r4, r0
 513 0004 0D46     		mov	r5, r1
 514              	.LVL46:
 515              	.L34:
 171:hw/usart_f1.c ****     ( {  while(USART_GetFlagStatus(USARTx, USART_FLAG_TXE) == RESET);});
 516              		.loc 1 171 0 discriminator 1
 517 0006 2046     		mov	r0, r4
 518 0008 8021     		movs	r1, #128
 519 000a FFF7FEFF 		bl	USART_GetFlagStatus
 520              	.LVL47:
 521 000e 0028     		cmp	r0, #0
 522 0010 F9D0     		beq	.L34
 172:hw/usart_f1.c ****     USART_SendData(USARTx, byte);
 523              		.loc 1 172 0
 524 0012 2046     		mov	r0, r4
 525 0014 2946     		mov	r1, r5
 526 0016 FFF7FEFF 		bl	USART_SendData
 527              	.LVL48:
 528              	.L35:
 173:hw/usart_f1.c ****     ( {  while(USART_GetFlagStatus(USARTx, USART_FLAG_TC) == RESET);});
 529              		.loc 1 173 0 discriminator 1
 530 001a 2046     		mov	r0, r4
ARM GAS  C:\Users\tom\AppData\Local\Temp\ccpKpL1G.s 			page 15


 531 001c 4021     		movs	r1, #64
 532 001e FFF7FEFF 		bl	USART_GetFlagStatus
 533              	.LVL49:
 534 0022 0028     		cmp	r0, #0
 535 0024 F9D0     		beq	.L35
 174:hw/usart_f1.c **** }
 536              		.loc 1 174 0
 537 0026 38BD     		pop	{r3, r4, r5, pc}
 538              		.cfi_endproc
 539              	.LFE61:
 540              		.size	USART_WriteByte, .-USART_WriteByte
 541              		.section	.text.USART_RX_IDLE_IRQHandler,"ax",%progbits
 542              		.align	1
 543              		.global	USART_RX_IDLE_IRQHandler
 544              		.thumb
 545              		.thumb_func
 546              		.type	USART_RX_IDLE_IRQHandler, %function
 547              	USART_RX_IDLE_IRQHandler:
 548              	.LFB62:
 175:hw/usart_f1.c **** 
 176:hw/usart_f1.c **** void USART_RX_IDLE_IRQHandler(USART_TypeDef* USARTx)
 177:hw/usart_f1.c **** {
 549              		.loc 1 177 0
 550              		.cfi_startproc
 551              		@ args = 0, pretend = 0, frame = 0
 552              		@ frame_needed = 0, uses_anonymous_args = 0
 553              	.LVL50:
 554 0000 F8B5     		push	{r3, r4, r5, r6, r7, lr}
 555              	.LCFI11:
 556              		.cfi_def_cfa_offset 24
 557              		.cfi_offset 3, -24
 558              		.cfi_offset 4, -20
 559              		.cfi_offset 5, -16
 560              		.cfi_offset 6, -12
 561              		.cfi_offset 7, -8
 562              		.cfi_offset 14, -4
 563              		.loc 1 177 0
 564 0002 0546     		mov	r5, r0
 178:hw/usart_f1.c ****     DMA_Channel_TypeDef* DMA_Channelx = NULL;
 179:hw/usart_f1.c **** //    volatile unsigned char* usart_rx_buf = NULL;
 180:hw/usart_f1.c ****     unsigned char size;
 181:hw/usart_f1.c ****     if(USARTx == USART1) {
 565              		.loc 1 181 0
 566 0004 1D4B     		ldr	r3, .L46
 567 0006 1E4F     		ldr	r7, .L46+4
 568              	.LVL51:
 569 0008 9842     		cmp	r0, r3
 182:hw/usart_f1.c ****         DMA_Channelx = DMA1_Channel5;
 570              		.loc 1 182 0
 571 000a 0ABF     		itet	eq
 572 000c 1D4C     		ldreq	r4, .L46+8
 178:hw/usart_f1.c ****     DMA_Channel_TypeDef* DMA_Channelx = NULL;
 573              		.loc 1 178 0
 574 000e 0024     		movne	r4, #0
 575              	.LVL52:
 183:hw/usart_f1.c ****         usartx_rx_buf = usart1_rx_buf;
 576              		.loc 1 183 0
ARM GAS  C:\Users\tom\AppData\Local\Temp\ccpKpL1G.s 			page 16


 577 0010 1D4B     		ldreq	r3, .L46+12
 184:hw/usart_f1.c ****     }
 185:hw/usart_f1.c **** /*    else if(USARTx == USART2) {
 186:hw/usart_f1.c ****         DMA_Channelx = DMA1_Channel6;
 187:hw/usart_f1.c ****         usartx_rx_buf = usart2_rx_buf;
 188:hw/usart_f1.c ****     }
 189:hw/usart_f1.c ****     else if(USARTx == USART3) {
 190:hw/usart_f1.c ****         DMA_Channelx = DMA1_Channel3;
 191:hw/usart_f1.c ****         usartx_rx_buf = usart3_rx_buf;
 192:hw/usart_f1.c ****     }*/
 193:hw/usart_f1.c **** 
 194:hw/usart_f1.c ****     DMA_Cmd(DMA_Channelx, DISABLE);    // 关闭 DMA, 防止处理期间有数据
 578              		.loc 1 194 0
 579 0012 4FF00001 		mov	r1, #0
 580 0016 2046     		mov	r0, r4
 581              	.LVL53:
 183:hw/usart_f1.c ****         usartx_rx_buf = usart1_rx_buf;
 582              		.loc 1 183 0
 583 0018 08BF     		it	eq
 584 001a 3B60     		streq	r3, [r7]
 585              		.loc 1 194 0
 586 001c FFF7FEFF 		bl	DMA_Cmd
 587              	.LVL54:
 195:hw/usart_f1.c ****     size = USARTx->SR;
 196:hw/usart_f1.c ****     size = USARTx->DR;
 197:hw/usart_f1.c ****     size = MAX_LEN - DMA_GetCurrDataCounter(DMA_Channelx);
 588              		.loc 1 197 0
 589 0020 2046     		mov	r0, r4
 195:hw/usart_f1.c ****     size = USARTx->SR;
 590              		.loc 1 195 0
 591 0022 2B88     		ldrh	r3, [r5]
 592              	.LVL55:
 196:hw/usart_f1.c ****     size = MAX_LEN - DMA_GetCurrDataCounter(DMA_Channelx);
 593              		.loc 1 196 0
 594 0024 AB88     		ldrh	r3, [r5, #4]
 595              		.loc 1 197 0
 596 0026 FFF7FEFF 		bl	DMA_GetCurrDataCounter
 597              	.LVL56:
 198:hw/usart_f1.c ****     DMA_SetCurrDataCounter(DMA_Channelx, MAX_LEN);
 598              		.loc 1 198 0
 599 002a 4FF48071 		mov	r1, #256
 197:hw/usart_f1.c ****     DMA_SetCurrDataCounter(DMA_Channelx, MAX_LEN);
 600              		.loc 1 197 0
 601 002e 0646     		mov	r6, r0
 602              	.LVL57:
 603              		.loc 1 198 0
 604 0030 2046     		mov	r0, r4
 605 0032 FFF7FEFF 		bl	DMA_SetCurrDataCounter
 606              	.LVL58:
 199:hw/usart_f1.c ****     if(g_frame.type == FRAME_TYPE_NONE) {
 607              		.loc 1 199 0
 608 0036 154B     		ldr	r3, .L46+16
 609 0038 93F80821 		ldrb	r2, [r3, #264]	@ zero_extendqisi2
 610 003c 92B9     		cbnz	r2, .L43
 200:hw/usart_f1.c ****         memcpy((char*)g_frame.msg, usartx_rx_buf, MAX_LEN);
 611              		.loc 1 200 0
 612 003e 4FF48072 		mov	r2, #256
ARM GAS  C:\Users\tom\AppData\Local\Temp\ccpKpL1G.s 			page 17


 613 0042 1846     		mov	r0, r3
 614 0044 3968     		ldr	r1, [r7]
 615 0046 FFF7FEFF 		bl	memcpy
 616              	.LVL59:
 201:hw/usart_f1.c ****         g_frame.size = size;
 202:hw/usart_f1.c ****         g_frame.USARTx = USARTx;
 203:hw/usart_f1.c **** 
 204:hw/usart_f1.c ****         if(USARTx == USART1) {
 617              		.loc 1 204 0
 618 004a 0C4A     		ldr	r2, .L46
 197:hw/usart_f1.c ****     DMA_SetCurrDataCounter(DMA_Channelx, MAX_LEN);
 619              		.loc 1 197 0
 620 004c 7642     		negs	r6, r6
 621              	.LVL60:
 622              		.loc 1 204 0
 623 004e 9542     		cmp	r5, r2
 201:hw/usart_f1.c ****         g_frame.size = size;
 624              		.loc 1 201 0
 625 0050 F6B2     		uxtb	r6, r6
 205:hw/usart_f1.c ****             g_frame.type = FRAME_TYPE_BATT;
 626              		.loc 1 205 0
 627 0052 08BF     		it	eq
 628 0054 0122     		moveq	r2, #1
 201:hw/usart_f1.c ****         g_frame.size = size;
 629              		.loc 1 201 0
 630 0056 C0F80461 		str	r6, [r0, #260]
 202:hw/usart_f1.c **** 
 631              		.loc 1 202 0
 632 005a C0F80051 		str	r5, [r0, #256]
 633              		.loc 1 205 0
 634 005e 08BF     		it	eq
 635 0060 80F80821 		strbeq	r2, [r0, #264]
 636              	.L43:
 206:hw/usart_f1.c ****         }
 207:hw/usart_f1.c ****         else if(USARTx == USART2) {
 208:hw/usart_f1.c ****         }
 209:hw/usart_f1.c ****         else if(USARTx == USART3) {
 210:hw/usart_f1.c ****         }
 211:hw/usart_f1.c ****     }
 212:hw/usart_f1.c ****     bzero((char*)usartx_rx_buf, sizeof(usart1_rx_buf));
 637              		.loc 1 212 0
 638 0064 3868     		ldr	r0, [r7]
 639 0066 0021     		movs	r1, #0
 640 0068 4FF48072 		mov	r2, #256
 641 006c FFF7FEFF 		bl	memset
 642              	.LVL61:
 213:hw/usart_f1.c ****     DMA_Cmd(DMA_Channelx, ENABLE);    // 关闭 DMA, 防止处理期间有数据
 643              		.loc 1 213 0
 644 0070 2046     		mov	r0, r4
 214:hw/usart_f1.c **** }
 645              		.loc 1 214 0
 646 0072 BDE8F840 		pop	{r3, r4, r5, r6, r7, lr}
 647              	.LCFI12:
 648              		.cfi_restore 14
 649              		.cfi_restore 7
 650              		.cfi_restore 6
 651              		.cfi_restore 5
ARM GAS  C:\Users\tom\AppData\Local\Temp\ccpKpL1G.s 			page 18


 652              		.cfi_restore 4
 653              		.cfi_restore 3
 654              		.cfi_def_cfa_offset 0
 655              	.LVL62:
 213:hw/usart_f1.c ****     DMA_Cmd(DMA_Channelx, ENABLE);    // 关闭 DMA, 防止处理期间有数据
 656              		.loc 1 213 0
 657 0076 0121     		movs	r1, #1
 658 0078 FFF7FEBF 		b	DMA_Cmd
 659              	.LVL63:
 660              	.L47:
 661              		.align	2
 662              	.L46:
 663 007c 00380140 		.word	1073821696
 664 0080 00000000 		.word	usartx_rx_buf
 665 0084 58000240 		.word	1073872984
 666 0088 00000000 		.word	usart1_rx_buf
 667 008c 00000000 		.word	g_frame
 668              		.cfi_endproc
 669              	.LFE62:
 670              		.size	USART_RX_IDLE_IRQHandler, .-USART_RX_IDLE_IRQHandler
 671              		.comm	g_frame,268,4
 672              		.global	g_mode
 673              		.global	flag_updated
 674              		.comm	usartx_rx_buf,4,4
 675              		.comm	usart1_rx_buf,256,1
 676              		.section	.bss.flag_updated,"aw",%nobits
 677              		.type	flag_updated, %object
 678              		.size	flag_updated, 1
 679              	flag_updated:
 680 0000 00       		.space	1
 681              		.section	.bss.g_mode,"aw",%nobits
 682              		.type	g_mode, %object
 683              		.size	g_mode, 1
 684              	g_mode:
 685 0000 00       		.space	1
 686              		.text
 687              	.Letext0:
 688              		.file 2 "c:\\yagarto\\arm-none-eabi\\include\\machine\\_default_types.h"
 689              		.file 3 "c:\\yagarto\\lib\\gcc\\arm-none-eabi\\4.9.3\\include\\stddef.h"
 690              		.file 4 "c:\\yagarto\\lib\\gcc\\arm-none-eabi\\4.9.3\\include\\stdarg.h"
 691              		.file 5 "c:\\yagarto\\arm-none-eabi\\include\\stdint.h"
 692              		.file 6 "c:/yagarto/cmsis_cm3_v361/_cmsis/stm32f10x.h"
 693              		.file 7 "c:/yagarto/cmsis_cm3_v361/_f10x_stdperiph_drv/inc/stm32f10x_dma.h"
 694              		.file 8 "c:/yagarto/cmsis_cm3_v361/_f10x_stdperiph_drv/inc/stm32f10x_gpio.h"
 695              		.file 9 "c:/yagarto/cmsis_cm3_v361/_f10x_stdperiph_drv/inc/stm32f10x_usart.h"
 696              		.file 10 "c:/yagarto/cmsis_cm3_v361/_f10x_stdperiph_drv/inc/misc.h"
 697              		.file 11 "hw/usart_f1.h"
 698              		.file 12 "c:/yagarto/cmsis_cm3_v361/_cmsis/core_cm3.h"
 699              		.file 13 "c:\\yagarto\\arm-none-eabi\\include\\stdio.h"
 700              		.file 14 "c:\\yagarto\\arm-none-eabi\\include\\string.h"
 701              		.file 15 "c:/yagarto/cmsis_cm3_v361/_f10x_stdperiph_drv/inc/stm32f10x_rcc.h"
 702              		.file 16 "<built-in>"