ARM GAS  C:\Users\tom\AppData\Local\Temp\ccHd2x2O.s 			page 1


   1              		.syntax unified
   2              		.cpu cortex-m3
   3              		.fpu softvfp
   4              		.eabi_attribute 20, 1
   5              		.eabi_attribute 21, 1
   6              		.eabi_attribute 23, 3
   7              		.eabi_attribute 24, 1
   8              		.eabi_attribute 25, 1
   9              		.eabi_attribute 26, 1
  10              		.eabi_attribute 30, 4
  11              		.eabi_attribute 34, 1
  12              		.eabi_attribute 18, 4
  13              		.thumb
  14              		.file	"batt.c"
  15              		.text
  16              	.Ltext0:
  17              		.cfi_sections	.debug_frame
  18              		.global	__aeabi_f2d
  19              		.section	.text.BATT_ViewVoltage,"ax",%progbits
  20              		.align	1
  21              		.global	BATT_ViewVoltage
  22              		.thumb
  23              		.thumb_func
  24              		.type	BATT_ViewVoltage, %function
  25              	BATT_ViewVoltage:
  26              	.LFB56:
  27              		.file 1 "app/batt.c"
   1:app/batt.c    **** #include <stdio.h> 
   2:app/batt.c    **** #include "adc_f1.h"
   3:app/batt.c    **** #include "dac_f1.h"
   4:app/batt.c    **** #include "batt.h"
   5:app/batt.c    **** 
   6:app/batt.c    **** void BATT_ViewVoltage(void)
   7:app/batt.c    **** {
  28              		.loc 1 7 0
  29              		.cfi_startproc
  30              		@ args = 0, pretend = 0, frame = 0
  31              		@ frame_needed = 0, uses_anonymous_args = 0
  32 0000 10B5     		push	{r4, lr}
  33              	.LCFI0:
  34              		.cfi_def_cfa_offset 8
  35              		.cfi_offset 4, -8
  36              		.cfi_offset 14, -4
   8:app/batt.c    ****     printf("%.3fV\n", ADC_GetResult()->volt);
  37              		.loc 1 8 0
  38 0002 FFF7FEFF 		bl	ADC_GetResult
  39              	.LVL0:
  40 0006 0068     		ldr	r0, [r0]	@ float
  41 0008 FFF7FEFF 		bl	__aeabi_f2d
  42              	.LVL1:
   9:app/batt.c    **** }
  43              		.loc 1 9 0
  44 000c BDE81040 		pop	{r4, lr}
  45              	.LCFI1:
  46              		.cfi_restore 14
  47              		.cfi_restore 4
  48              		.cfi_def_cfa_offset 0
ARM GAS  C:\Users\tom\AppData\Local\Temp\ccHd2x2O.s 			page 2


   8:app/batt.c    ****     printf("%.3fV\n", ADC_GetResult()->volt);
  49              		.loc 1 8 0
  50 0010 0246     		mov	r2, r0
  51 0012 0B46     		mov	r3, r1
  52 0014 0148     		ldr	r0, .L2
  53 0016 FFF7FEBF 		b	printf
  54              	.LVL2:
  55              	.L3:
  56 001a 00BF     		.align	2
  57              	.L2:
  58 001c 00000000 		.word	.LC0
  59              		.cfi_endproc
  60              	.LFE56:
  61              		.size	BATT_ViewVoltage, .-BATT_ViewVoltage
  62              		.global	__aeabi_dmul
  63              		.global	__aeabi_d2iz
  64              		.global	__aeabi_i2d
  65              		.global	__aeabi_ddiv
  66              		.global	__aeabi_dadd
  67              		.global	__aeabi_d2f
  68              		.section	.text.BATT_Measure,"ax",%progbits
  69              		.align	1
  70              		.global	BATT_Measure
  71              		.thumb
  72              		.thumb_func
  73              		.type	BATT_Measure, %function
  74              	BATT_Measure:
  75              	.LFB57:
  10:app/batt.c    **** 
  11:app/batt.c    **** void BATT_Measure(const char* msg)
  12:app/batt.c    **** {
  76              		.loc 1 12 0
  77              		.cfi_startproc
  78              		@ args = 0, pretend = 0, frame = 8
  79              		@ frame_needed = 0, uses_anonymous_args = 0
  80              	.LVL3:
  81 0000 F0B5     		push	{r4, r5, r6, r7, lr}
  82              	.LCFI2:
  83              		.cfi_def_cfa_offset 20
  84              		.cfi_offset 4, -20
  85              		.cfi_offset 5, -16
  86              		.cfi_offset 6, -12
  87              		.cfi_offset 7, -8
  88              		.cfi_offset 14, -4
  89 0002 85B0     		sub	sp, sp, #20
  90              	.LCFI3:
  91              		.cfi_def_cfa_offset 40
  13:app/batt.c    ****     int curr, v_end, volt;
  14:app/batt.c    ****     float q = 0;
  15:app/batt.c    **** 
  16:app/batt.c    ****     sscanf(msg + 1, "%d%d", &curr, &v_end);
  92              		.loc 1 16 0
  93 0004 02AA     		add	r2, sp, #8
  94 0006 03AB     		add	r3, sp, #12
  95 0008 2549     		ldr	r1, .L8+8
  96 000a 0130     		adds	r0, r0, #1
  97              	.LVL4:
ARM GAS  C:\Users\tom\AppData\Local\Temp\ccHd2x2O.s 			page 3


  98 000c FFF7FEFF 		bl	sscanf
  99              	.LVL5:
  17:app/batt.c    ****     printf("Load current[mA] = %d\n", curr);
 100              		.loc 1 17 0
 101 0010 0299     		ldr	r1, [sp, #8]
 102 0012 2448     		ldr	r0, .L8+12
 103 0014 FFF7FEFF 		bl	printf
 104              	.LVL6:
  18:app/batt.c    ****     printf("Ending voltage[mV] = %d\n", v_end);
 105              		.loc 1 18 0
 106 0018 0399     		ldr	r1, [sp, #12]
 107 001a 2348     		ldr	r0, .L8+16
 108 001c FFF7FEFF 		bl	printf
 109              	.LVL7:
  19:app/batt.c    **** 
  20:app/batt.c    ****     DAC_CurrentSet(curr);
 110              		.loc 1 20 0
 111 0020 0298     		ldr	r0, [sp, #8]
 112 0022 FFF7FEFF 		bl	DAC_CurrentSet
 113              	.LVL8:
  14:app/batt.c    **** 
 114              		.loc 1 14 0
 115 0026 0025     		movs	r5, #0
 116              	.LVL9:
 117              	.L5:
 118              	.LBB2:
  21:app/batt.c    **** 
  22:app/batt.c    ****     do {
  23:app/batt.c    ****         int inteval = 1000;
  24:app/batt.c    ****         volt = ADC_GetResult()->volt * 1000.0;
 119              		.loc 1 24 0 discriminator 1
 120 0028 FFF7FEFF 		bl	ADC_GetResult
 121              	.LVL10:
 122 002c 0068     		ldr	r0, [r0]	@ float
 123 002e FFF7FEFF 		bl	__aeabi_f2d
 124              	.LVL11:
 125 0032 0022     		movs	r2, #0
 126 0034 1D4B     		ldr	r3, .L8+20
 127 0036 FFF7FEFF 		bl	__aeabi_dmul
 128              	.LVL12:
 129 003a FFF7FEFF 		bl	__aeabi_d2iz
 130              	.LVL13:
 131 003e 0446     		mov	r4, r0
 132              	.LVL14:
  25:app/batt.c    **** 
  26:app/batt.c    ****         q += curr * (inteval / 1000.0) / 3600.0;
 133              		.loc 1 26 0 discriminator 1
 134 0040 2846     		mov	r0, r5
 135              	.LVL15:
 136 0042 FFF7FEFF 		bl	__aeabi_f2d
 137              	.LVL16:
 138 0046 0646     		mov	r6, r0
 139 0048 0298     		ldr	r0, [sp, #8]
 140 004a 0F46     		mov	r7, r1
 141 004c FFF7FEFF 		bl	__aeabi_i2d
 142              	.LVL17:
 143 0050 11A3     		adr	r3, .L8
ARM GAS  C:\Users\tom\AppData\Local\Temp\ccHd2x2O.s 			page 4


 144 0052 D3E90023 		ldrd	r2, [r3]
 145 0056 FFF7FEFF 		bl	__aeabi_ddiv
 146              	.LVL18:
 147 005a 0246     		mov	r2, r0
 148 005c 0B46     		mov	r3, r1
 149 005e 3046     		mov	r0, r6
 150 0060 3946     		mov	r1, r7
 151 0062 FFF7FEFF 		bl	__aeabi_dadd
 152              	.LVL19:
 153 0066 FFF7FEFF 		bl	__aeabi_d2f
 154              	.LVL20:
 155 006a 0546     		mov	r5, r0
 156              	.LVL21:
  27:app/batt.c    ****         printf("%6.3f %6d\n", q, volt);
 157              		.loc 1 27 0 discriminator 1
 158 006c FFF7FEFF 		bl	__aeabi_f2d
 159              	.LVL22:
 160 0070 0094     		str	r4, [sp]
 161 0072 0246     		mov	r2, r0
 162 0074 0B46     		mov	r3, r1
 163 0076 0E48     		ldr	r0, .L8+24
 164 0078 FFF7FEFF 		bl	printf
 165              	.LVL23:
  28:app/batt.c    ****         _delay_ms(1000);
 166              		.loc 1 28 0 discriminator 1
 167 007c 4FF47A70 		mov	r0, #1000
 168 0080 FFF7FEFF 		bl	_delay_ms_systick
 169              	.LVL24:
 170              	.LBE2:
  29:app/batt.c    ****     }while(volt > v_end);
 171              		.loc 1 29 0 discriminator 1
 172 0084 039B     		ldr	r3, [sp, #12]
 173 0086 9C42     		cmp	r4, r3
 174 0088 CEDC     		bgt	.L5
  30:app/batt.c    ****     DAC_CurrentSet(0);
 175              		.loc 1 30 0
 176 008a 0020     		movs	r0, #0
 177 008c FFF7FEFF 		bl	DAC_CurrentSet
 178              	.LVL25:
  31:app/batt.c    **** }
 179              		.loc 1 31 0
 180 0090 05B0     		add	sp, sp, #20
 181              	.LCFI4:
 182              		.cfi_def_cfa_offset 20
 183              		@ sp needed
 184 0092 F0BD     		pop	{r4, r5, r6, r7, pc}
 185              	.LVL26:
 186              	.L9:
 187 0094 AFF30080 		.align	3
 188              	.L8:
 189 0098 00000000 		.word	0
 190 009c 0020AC40 		.word	1085022208
 191 00a0 07000000 		.word	.LC1
 192 00a4 0C000000 		.word	.LC2
 193 00a8 23000000 		.word	.LC3
 194 00ac 00408F40 		.word	1083129856
 195 00b0 3C000000 		.word	.LC4
ARM GAS  C:\Users\tom\AppData\Local\Temp\ccHd2x2O.s 			page 5


 196              		.cfi_endproc
 197              	.LFE57:
 198              		.size	BATT_Measure, .-BATT_Measure
 199 00b4 AFF30080 		.section	.text.BATT_Parse,"ax",%progbits
 200              		.align	1
 201              		.global	BATT_Parse
 202              		.thumb
 203              		.thumb_func
 204              		.type	BATT_Parse, %function
 205              	BATT_Parse:
 206              	.LFB58:
  32:app/batt.c    **** 
  33:app/batt.c    **** void BATT_Parse(const char* msg, int size)
  34:app/batt.c    **** {
 207              		.loc 1 34 0
 208              		.cfi_startproc
 209              		@ args = 0, pretend = 0, frame = 8
 210              		@ frame_needed = 0, uses_anonymous_args = 0
 211              	.LVL27:
 212 0000 07B5     		push	{r0, r1, r2, lr}
 213              	.LCFI5:
 214              		.cfi_def_cfa_offset 16
 215              		.cfi_offset 14, -4
  35:app/batt.c    ****     switch(msg[0]) {
 216              		.loc 1 35 0
 217 0002 0378     		ldrb	r3, [r0]	@ zero_extendqisi2
 218 0004 562B     		cmp	r3, #86
 219 0006 0CD0     		beq	.L12
 220 0008 04D8     		bhi	.L13
 221 000a 4D2B     		cmp	r3, #77
 222 000c 0CD0     		beq	.L14
 223 000e 4F2B     		cmp	r3, #79
 224 0010 0DD0     		beq	.L15
 225 0012 18E0     		b	.L10
 226              	.L13:
 227 0014 6F2B     		cmp	r3, #111
 228 0016 0AD0     		beq	.L15
 229 0018 762B     		cmp	r3, #118
 230 001a 02D0     		beq	.L12
 231 001c 6D2B     		cmp	r3, #109
 232 001e 12D1     		bne	.L10
 233 0020 02E0     		b	.L14
 234              	.L12:
  36:app/batt.c    ****         case 'v':
  37:app/batt.c    ****         case 'V':
  38:app/batt.c    ****             BATT_ViewVoltage();
 235              		.loc 1 38 0
 236 0022 FFF7FEFF 		bl	BATT_ViewVoltage
 237              	.LVL28:
  39:app/batt.c    ****             break;
 238              		.loc 1 39 0
 239 0026 0EE0     		b	.L10
 240              	.LVL29:
 241              	.L14:
  40:app/batt.c    ****         case 'm':
  41:app/batt.c    ****         case 'M':
  42:app/batt.c    ****             BATT_Measure(msg);
ARM GAS  C:\Users\tom\AppData\Local\Temp\ccHd2x2O.s 			page 6


 242              		.loc 1 42 0
 243 0028 FFF7FEFF 		bl	BATT_Measure
 244              	.LVL30:
  43:app/batt.c    ****             break;
 245              		.loc 1 43 0
 246 002c 0BE0     		b	.L10
 247              	.LVL31:
 248              	.L15:
 249              	.LBB3:
  44:app/batt.c    ****         case 'o':
  45:app/batt.c    ****         case 'O': {
  46:app/batt.c    ****             int curr;
  47:app/batt.c    ****             sscanf(msg + 1, "%d", &curr);
 250              		.loc 1 47 0
 251 002e 0749     		ldr	r1, .L34
 252              	.LVL32:
 253 0030 01AA     		add	r2, sp, #4
 254 0032 0130     		adds	r0, r0, #1
 255              	.LVL33:
 256 0034 FFF7FEFF 		bl	sscanf
 257              	.LVL34:
  48:app/batt.c    ****             printf("%d\n", curr);
 258              		.loc 1 48 0
 259 0038 0548     		ldr	r0, .L34+4
 260 003a 0199     		ldr	r1, [sp, #4]
 261 003c FFF7FEFF 		bl	printf
 262              	.LVL35:
  49:app/batt.c    ****             DAC_CurrentSet(curr);
 263              		.loc 1 49 0
 264 0040 0198     		ldr	r0, [sp, #4]
 265 0042 FFF7FEFF 		bl	DAC_CurrentSet
 266              	.LVL36:
 267              	.L10:
 268              	.LBE3:
  50:app/batt.c    ****             break;
  51:app/batt.c    ****         }
  52:app/batt.c    ****     }
  53:app/batt.c    **** }
 269              		.loc 1 53 0
 270 0046 03B0     		add	sp, sp, #12
 271              	.LCFI6:
 272              		.cfi_def_cfa_offset 4
 273              		@ sp needed
 274 0048 5DF804FB 		ldr	pc, [sp], #4
 275              	.L35:
 276              		.align	2
 277              	.L34:
 278 004c 47000000 		.word	.LC5
 279 0050 4A000000 		.word	.LC6
 280              		.cfi_endproc
 281              	.LFE58:
 282              		.size	BATT_Parse, .-BATT_Parse
 283              		.section	.rodata.str1.1,"aMS",%progbits,1
 284              	.LC0:
 285 0000 252E3366 		.ascii	"%.3fV\012\000"
 285      560A00
 286              	.LC1:
ARM GAS  C:\Users\tom\AppData\Local\Temp\ccHd2x2O.s 			page 7


 287 0007 25642564 		.ascii	"%d%d\000"
 287      00
 288              	.LC2:
 289 000c 4C6F6164 		.ascii	"Load current[mA] = %d\012\000"
 289      20637572 
 289      72656E74 
 289      5B6D415D 
 289      203D2025 
 290              	.LC3:
 291 0023 456E6469 		.ascii	"Ending voltage[mV] = %d\012\000"
 291      6E672076 
 291      6F6C7461 
 291      67655B6D 
 291      565D203D 
 292              	.LC4:
 293 003c 25362E33 		.ascii	"%6.3f %6d\012\000"
 293      66202536 
 293      640A00
 294              	.LC5:
 295 0047 256400   		.ascii	"%d\000"
 296              	.LC6:
 297 004a 25640A00 		.ascii	"%d\012\000"
 298              		.text
 299              	.Letext0:
 300              		.file 2 "c:\\yagarto\\arm-none-eabi\\include\\machine\\_default_types.h"
 301              		.file 3 "c:\\yagarto\\arm-none-eabi\\include\\stdint.h"
 302              		.file 4 "hw/adc_f1.h"
 303              		.file 5 "c:\\yagarto\\arm-none-eabi\\include\\stdio.h"
 304              		.file 6 "c:/yagarto/cmsis_cm3_v361/_cmsis/core_cm3.h"
 305              		.file 7 "./_libs/misc.h"
 306              		.file 8 "hw/dac_f1.h"